4000: 07         RLCA                    
4001: 00         NOP                     
4002: 0B         DEC     BC              
4003: 07         RLCA                    
4004: 1B         DEC     DE              
4005: 04         INC     B               
4006: 3F         CCF                     
4007: 13         INC     DE              
4008: 3F         CCF                     
4009: 14         INC     D               
400A: 3F         CCF                     
400B: 10 27      STOP    $27             
400D: 18 1F      JR      $402E           
400F: 0D         DEC     C               
4010: 17         RLA                     
4011: 0D         DEC     C               
4012: 2B         DEC     HL              
4013: 17         RLA                     
4014: 6F         LD      L,A             
4015: 30 78      JR      NC,$408F        
4017: 27         DAA                     
4018: 37         SCF                     
4019: 0F         RRCA                    
401A: 1E 01      LD      E,$01           
401C: 37         SCF                     
401D: 0E 1F      LD      C,$1F           
401F: 00         NOP                     
4020: C0         RET     NZ              
4021: 00         NOP                     
4022: 20 C0      JR      NZ,$3FE4        
4024: 18 E0      JR      $4006           
4026: DC E8 FC   CALL    C,$FCE8         
4029: 28 FC      JR      Z,$4027         
402B: 08 E4 18   LD      ($18E4),SP      
402E: F8 B0      LDHL    SP,$B0          
4030: E8 B0      ADD     SP,$B0          
4032: D4 E8 F4   CALL    NC,$F4E8        
4035: 08 74 B8   LD      ($B874),SP      
4038: F8 B0      LDHL    SP,$B0          
403A: 30 C0      JR      NC,$3FFC        
403C: F8 00      LDHL    SP,$00          
403E: F0 00      LD      A,($00)         
4040: 3C         INC     A               
4041: 00         NOP                     
4042: 24         INC     H               
4043: 18 5A      JR      $409F           
4045: 3C         INC     A               
4046: 5A         LD      E,D             
4047: 3C         INC     A               
4048: 7E         LD      A,(HL)          
4049: 00         NOP                     
404A: 3C         INC     A               
404B: 18 3C      JR      $4089           
404D: 18 3C      JR      $408B           
404F: 18 3C      JR      $408D           
4051: 18 3C      JR      $408F           
4053: 18 3C      JR      $4091           
4055: 18 3C      JR      $4093           
4057: 18 3C      JR      $4095           
4059: 18 3C      JR      $4097           
405B: 18 18      JR      $4075           
405D: 00         NOP                     
405E: 00         NOP                     
405F: 00         NOP                     
4060: 00         NOP                     
4061: 00         NOP                     
4062: 00         NOP                     
4063: 00         NOP                     
4064: 00         NOP                     
4065: 00         NOP                     
4066: 00         NOP                     
4067: 00         NOP                     
4068: 00         NOP                     
4069: 00         NOP                     
406A: 00         NOP                     
406B: 00         NOP                     
406C: 00         NOP                     
406D: 00         NOP                     
406E: 00         NOP                     
406F: 00         NOP                     
4070: 00         NOP                     
4071: 00         NOP                     
4072: 00         NOP                     
4073: 00         NOP                     
4074: 3F         CCF                     
4075: 00         NOP                     
4076: 7F         LD      A,A             
4077: 3F         CCF                     
4078: 7F         LD      A,A             
4079: 3F         CCF                     
407A: 3F         CCF                     
407B: 00         NOP                     
407C: 00         NOP                     
407D: 00         NOP                     
407E: 00         NOP                     
407F: 00         NOP                     
4080: 00         NOP                     
4081: 00         NOP                     
4082: 00         NOP                     
4083: 00         NOP                     
4084: 00         NOP                     
4085: 00         NOP                     
4086: 00         NOP                     
4087: 00         NOP                     
4088: 00         NOP                     
4089: 00         NOP                     
408A: 00         NOP                     
408B: 00         NOP                     
408C: 00         NOP                     
408D: 00         NOP                     
408E: 00         NOP                     
408F: 00         NOP                     
4090: 00         NOP                     
4091: 00         NOP                     
4092: 1C         INC     E               
4093: 00         NOP                     
4094: F3         DI                      
4095: 0C         INC     C               
4096: FD         ???                     
4097: EE FD      XOR     $FD             
4099: EE F3      XOR     $F3             
409B: 0C         INC     C               
409C: 1C         INC     E               
409D: 00         NOP                     
409E: 00         NOP                     
409F: 00         NOP                     
40A0: 00         NOP                     
40A1: 00         NOP                     
40A2: 00         NOP                     
40A3: 00         NOP                     
40A4: 00         NOP                     
40A5: 00         NOP                     
40A6: 0D         DEC     C               
40A7: 00         NOP                     
40A8: 1F         RRA                     
40A9: 0D         DEC     C               
40AA: 1F         RRA                     
40AB: 0E 0F      LD      C,$0F           
40AD: 07         RLCA                    
40AE: 1F         RRA                     
40AF: 0B         DEC     BC              
40B0: 2B         DEC     HL              
40B1: 1D         DEC     E               
40B2: 3D         DEC     A               
40B3: 18 54      JR      $4109           
40B5: 38 78      JR      C,$412F         
40B7: 30 68      JR      NC,$4121        
40B9: 30 70      JR      NC,$412B        
40BB: 20 70      JR      NZ,$412D        
40BD: 20 70      JR      NZ,$412F        
40BF: 20 00      JR      NZ,$40C1        
40C1: 00         NOP                     
40C2: 3F         CCF                     
40C3: 00         NOP                     
40C4: DF         RST     0X18            
40C5: 3F         CCF                     
40C6: 77         LD      (HL),A          
40C7: F8 D8      LDHL    SP,$D8          
40C9: E0 60      LDFF00  ($60),A         
40CB: 80         ADD     A,B             
40CC: 80         ADD     A,B             
40CD: 00         NOP                     
40CE: C0         RET     NZ              
40CF: 80         ADD     A,B             
40D0: E0 C0      LDFF00  ($C0),A         
40D2: F0 E0      LD      A,($E0)         
40D4: FA 70 75   LD      A,($7570)       
40D7: 3A         LD      A,(HLD)         
40D8: 2D         DEC     L               
40D9: 16 1D      LD      D,$1D           
40DB: 0E 23      LD      C,$23           
40DD: 1C         INC     E               
40DE: 1E 00      LD      E,$00           
40E0: 00         NOP                     
40E1: 00         NOP                     
40E2: 00         NOP                     
40E3: 00         NOP                     
40E4: 00         NOP                     
40E5: 02         LD      (BC),A          
40E6: 02         LD      (BC),A          
40E7: 05         DEC     B               
40E8: 02         LD      (BC),A          
40E9: 05         DEC     B               
40EA: 02         LD      (BC),A          
40EB: 05         DEC     B               
40EC: 02         LD      (BC),A          
40ED: 05         DEC     B               
40EE: 02         LD      (BC),A          
40EF: 05         DEC     B               
40F0: 02         LD      (BC),A          
40F1: 1D         DEC     E               
40F2: 1E 21      LD      E,$21           
40F4: 2E 51      LD      L,$51           
40F6: 3E 41      LD      A,$41           
40F8: 3C         INC     A               
40F9: 42         LD      B,D             
40FA: 00         NOP                     
40FB: 3C         INC     A               
40FC: 00         NOP                     
40FD: 00         NOP                     
40FE: 00         NOP                     
40FF: 00         NOP                     
4100: E0 00      LDFF00  ($00),A         
4102: 98         SBC     B               
4103: 60         LD      H,B             
4104: A6         AND     (HL)            
4105: 78         LD      A,B             
4106: 59         LD      E,C             
4107: 3E 56      LD      A,$56           
4109: 3F         CCF                     
410A: 29         ADD     HL,HL           
410B: 1F         RRA                     
410C: 2A         LD      A,(HLI)         
410D: 1D         DEC     E               
410E: 15         DEC     D               
410F: 0E 15      LD      C,$15           
4111: 0E 0A      LD      C,$0A           
4113: 07         RLCA                    
4114: 0A         LD      A,(BC)          
4115: 07         RLCA                    
4116: 0A         LD      A,(BC)          
4117: 07         RLCA                    
4118: 15         DEC     D               
4119: 0E 2B      LD      C,$2B           
411B: 1C         INC     E               
411C: 57         LD      D,A             
411D: 38 AF      JR      C,$40CE         
411F: 70         LD      (HL),B          
4120: 01 00 02   LD      BC,$0200        
4123: 01 05 03   LD      BC,$0305        
4126: 8A         ADC     A,D             
4127: 07         RLCA                    
4128: 75         LD      (HL),L          
4129: 8E         ADC     A,(HL)          
412A: 8B         ADC     A,E             
412B: FC         ???                     
412C: 77         LD      (HL),A          
412D: F8 8F      LDHL    SP,$8F          
412F: 70         LD      (HL),B          
4130: FE 01      CP      $01             
4132: FC         ???                     
4133: 03         INC     BC              
4134: C0         RET     NZ              
4135: 3F         CCF                     
4136: C3 3F C7   JP      $C73F           
4139: 3F         CCF                     
413A: CF         RST     0X08            
413B: 3F         CCF                     
413C: 9F         SBC     A               
413D: 7F         LD      A,A             
413E: 1F         RRA                     
413F: FF         RST     0X38            
4140: 00         NOP                     
4141: 00         NOP                     
4142: 00         NOP                     
4143: 00         NOP                     
4144: 3F         CCF                     
4145: 00         NOP                     
4146: 3F         CCF                     
4147: 1F         RRA                     
4148: 3F         CCF                     
4149: 1F         RRA                     
414A: 1C         INC     E               
414B: 0F         RRCA                    
414C: 1C         INC     E               
414D: 0F         RRCA                    
414E: 0E 07      LD      C,$07           
4150: 0E 07      LD      C,$07           
4152: 07         RLCA                    
4153: 03         INC     BC              
4154: 07         RLCA                    
4155: 03         INC     BC              
4156: 03         INC     BC              
4157: 01 03 01   LD      BC,$0103        
415A: 01 00 00   LD      BC,$0000        
415D: 00         NOP                     
415E: 00         NOP                     
415F: 00         NOP                     
4160: 3C         INC     A               
4161: 00         NOP                     
4162: 7A         LD      A,D             
4163: 34         INC     (HL)            
4164: FD         ???                     
4165: 7A         LD      A,D             
4166: FF         RST     0X38            
4167: 78         LD      A,B             
4168: F9         LD      SP,HL           
4169: 16 99      LD      D,$99           
416B: 66         LD      H,(HL)          
416C: 4A         LD      C,D             
416D: 34         INC     (HL)            
416E: 3C         INC     A               
416F: 00         NOP                     
4170: 00         NOP                     
4171: 00         NOP                     
4172: 00         NOP                     
4173: 00         NOP                     
4174: 00         NOP                     
4175: 00         NOP                     
4176: 00         NOP                     
4177: 00         NOP                     
4178: 00         NOP                     
4179: 00         NOP                     
417A: 00         NOP                     
417B: 00         NOP                     
417C: 00         NOP                     
417D: 00         NOP                     
417E: 00         NOP                     
417F: 00         NOP                     
4180: 00         NOP                     
4181: 00         NOP                     
4182: 10 10      STOP    $10             
4184: 00         NOP                     
4185: 00         NOP                     
4186: 00         NOP                     
4187: 82         ADD     A,D             
4188: 00         NOP                     
4189: 38 38      JR      C,$41C3         
418B: 7C         LD      A,H             
418C: 5C         LD      E,H             
418D: FE 3E      CP      $3E             
418F: 7F         LD      A,A             
4190: 7E         LD      A,(HL)          
4191: FF         RST     0X38            
4192: 07         RLCA                    
4193: FF         RST     0X38            
4194: 03         INC     BC              
4195: 07         RLCA                    
4196: 01 03 41   LD      BC,$4103        
4199: 43         LD      B,E             
419A: 01 13 00   LD      BC,$0013        
419D: 01 00 01   LD      BC,$0100        
41A0: 00         NOP                     
41A1: C0         RET     NZ              
41A2: 00         NOP                     
41A3: 60         LD      H,B             
41A4: 00         NOP                     
41A5: 71         LD      (HL),C          
41A6: 00         NOP                     
41A7: 33         INC     SP              
41A8: 00         NOP                     
41A9: 37         SCF                     
41AA: 00         NOP                     
41AB: 36 00      LD      (HL),$00        
41AD: 16 00      LD      D,$00           
41AF: 14         INC     D               
41B0: 00         NOP                     
41B1: 00         NOP                     
41B2: 00         NOP                     
41B3: 00         NOP                     
41B4: 00         NOP                     
41B5: 00         NOP                     
41B6: 00         NOP                     
41B7: 00         NOP                     
41B8: 00         NOP                     
41B9: 00         NOP                     
41BA: 00         NOP                     
41BB: 00         NOP                     
41BC: 00         NOP                     
41BD: 00         NOP                     
41BE: 00         NOP                     
41BF: 00         NOP                     
41C0: 00         NOP                     
41C1: 00         NOP                     
41C2: 00         NOP                     
41C3: 00         NOP                     
41C4: 00         NOP                     
41C5: 00         NOP                     
41C6: 30 10      JR      NC,$41D8        
41C8: 30 10      JR      NC,$41DA        
41CA: 1C         INC     E               
41CB: 0C         INC     C               
41CC: 0F         RRCA                    
41CD: 03         INC     BC              
41CE: 03         INC     BC              
41CF: 00         NOP                     
41D0: 00         NOP                     
41D1: 00         NOP                     
41D2: 00         NOP                     
41D3: 00         NOP                     
41D4: 00         NOP                     
41D5: 00         NOP                     
41D6: 00         NOP                     
41D7: 00         NOP                     
41D8: 00         NOP                     
41D9: 00         NOP                     
41DA: 00         NOP                     
41DB: 00         NOP                     
41DC: 00         NOP                     
41DD: 00         NOP                     
41DE: 00         NOP                     
41DF: 00         NOP                     
41E0: 00         NOP                     
41E1: 00         NOP                     
41E2: 00         NOP                     
41E3: 00         NOP                     
41E4: 00         NOP                     
41E5: 00         NOP                     
41E6: 00         NOP                     
41E7: 00         NOP                     
41E8: 07         RLCA                    
41E9: 00         NOP                     
41EA: 08 07 11   LD      ($1107),SP      
41ED: 0F         RRCA                    
41EE: 13         INC     DE              
41EF: 0F         RRCA                    
41F0: 0B         DEC     BC              
41F1: 07         RLCA                    
41F2: 09         ADD     HL,BC           
41F3: 07         RLCA                    
41F4: 08 07 04   LD      ($0407),SP      
41F7: 03         INC     BC              
41F8: 03         INC     BC              
41F9: 00         NOP                     
41FA: 00         NOP                     
41FB: 00         NOP                     
41FC: 00         NOP                     
41FD: 00         NOP                     
41FE: 00         NOP                     
41FF: 00         NOP                     
4200: 00         NOP                     
4201: 00         NOP                     
4202: 4C         LD      C,H             
4203: 00         NOP                     
4204: 50         LD      D,B             
4205: 00         NOP                     
4206: 70         LD      (HL),B          
4207: 00         NOP                     
4208: 88         ADC     A,B             
4209: 70         LD      (HL),B          
420A: E4         ???                     
420B: 18 F6      JR      $4203           
420D: 68         LD      L,B             
420E: F7         RST     0X30            
420F: 6A         LD      L,D             
4210: 7F         LD      A,A             
4211: 06 4E      LD      B,$4E           
4213: 30 76      JR      NC,$428B        
4215: 38 4C      JR      C,$4263         
4217: 30 3E      JR      NC,$4257        
4219: 0C         INC     C               
421A: 1E 00      LD      E,$00           
421C: 00         NOP                     
421D: 00         NOP                     
421E: 00         NOP                     
421F: 00         NOP                     
4220: E0 00      LDFF00  ($00),A         
4222: F0 60      LD      A,($60)         
4224: F8 70      LDHL    SP,$70          
4226: BC         CP      H               
4227: 78         LD      A,B             
4228: 7E         LD      A,(HL)          
4229: 3C         INC     A               
422A: 5E         LD      E,(HL)          
422B: 3C         INC     A               
422C: 2F         CPL                     
422D: 1E 1F      LD      E,$1F           
422F: 06 07      LD      B,$07           
4231: 00         NOP                     
4232: 00         NOP                     
4233: 00         NOP                     
4234: 00         NOP                     
4235: 00         NOP                     
4236: 00         NOP                     
4237: 00         NOP                     
4238: 00         NOP                     
4239: 00         NOP                     
423A: 00         NOP                     
423B: 00         NOP                     
423C: 00         NOP                     
423D: 00         NOP                     
423E: 00         NOP                     
423F: 00         NOP                     
4240: 00         NOP                     
4241: 00         NOP                     
4242: 00         NOP                     
4243: 00         NOP                     
4244: 00         NOP                     
4245: 00         NOP                     
4246: 00         NOP                     
4247: 00         NOP                     
4248: 00         NOP                     
4249: 00         NOP                     
424A: 00         NOP                     
424B: 00         NOP                     
424C: 18 00      JR      $424E           
424E: 24         INC     H               
424F: 18 24      JR      $4275           
4251: 18 18      JR      $426B           
4253: 00         NOP                     
4254: 00         NOP                     
4255: 00         NOP                     
4256: 00         NOP                     
4257: 00         NOP                     
4258: 00         NOP                     
4259: 00         NOP                     
425A: 00         NOP                     
425B: 00         NOP                     
425C: 00         NOP                     
425D: 00         NOP                     
425E: 00         NOP                     
425F: 00         NOP                     
4260: 00         NOP                     
4261: 00         NOP                     
4262: 00         NOP                     
4263: 00         NOP                     
4264: 7E         LD      A,(HL)          
4265: 00         NOP                     
4266: FF         RST     0X38            
4267: 00         NOP                     
4268: FF         RST     0X38            
4269: 00         NOP                     
426A: 7E         LD      A,(HL)          
426B: 00         NOP                     
426C: 00         NOP                     
426D: 00         NOP                     
426E: 00         NOP                     
426F: 00         NOP                     
4270: 00         NOP                     
4271: 00         NOP                     
4272: 00         NOP                     
4273: 00         NOP                     
4274: 00         NOP                     
4275: 00         NOP                     
4276: 00         NOP                     
4277: 00         NOP                     
4278: 00         NOP                     
4279: 00         NOP                     
427A: 00         NOP                     
427B: 00         NOP                     
427C: 00         NOP                     
427D: 00         NOP                     
427E: 00         NOP                     
427F: 00         NOP                     
4280: 00         NOP                     
4281: 00         NOP                     
4282: 1F         RRA                     
4283: 00         NOP                     
4284: 26 18      LD      H,$18           
4286: 2A         LD      A,(HLI)         
4287: 14         INC     D               
4288: 52         LD      D,D             
4289: 2C         INC     L               
428A: 84         ADD     A,H             
428B: 78         LD      A,B             
428C: F8 00      LDHL    SP,$00          
428E: 00         NOP                     
428F: 00         NOP                     
4290: 00         NOP                     
4291: 00         NOP                     
4292: 00         NOP                     
4293: 00         NOP                     
4294: 00         NOP                     
4295: 00         NOP                     
4296: 00         NOP                     
4297: 00         NOP                     
4298: 00         NOP                     
4299: 00         NOP                     
429A: 00         NOP                     
429B: 00         NOP                     
429C: 00         NOP                     
429D: 00         NOP                     
429E: 00         NOP                     
429F: 00         NOP                     
42A0: 01 00 02   LD      BC,$0200        
42A3: 01 02 01   LD      BC,$0102        
42A6: 02         LD      (BC),A          
42A7: 01 02 01   LD      BC,$0102        
42AA: 02         LD      (BC),A          
42AB: 01 02 01   LD      BC,$0102        
42AE: 02         LD      (BC),A          
42AF: 01 02 01   LD      BC,$0102        
42B2: 02         LD      (BC),A          
42B3: 01 03 00   LD      BC,$0003        
42B6: 0F         RRCA                    
42B7: 01 0F 05   LD      BC,$050F        
42BA: 07         RLCA                    
42BB: 02         LD      (BC),A          
42BC: 03         INC     BC              
42BD: 01 01 00   LD      BC,$0001        
42C0: 00         NOP                     
42C1: 00         NOP                     
42C2: 00         NOP                     
42C3: 00         NOP                     
42C4: 00         NOP                     
42C5: 00         NOP                     
42C6: 00         NOP                     
42C7: 00         NOP                     
42C8: 18 00      JR      $42CA           
42CA: 38 10      JR      C,$42DC         
42CC: 7F         LD      A,A             
42CD: 20 FC      JR      NZ,$42CB        
42CF: 5B         LD      E,E             
42D0: FC         ???                     
42D1: 5B         LD      E,E             
42D2: 7F         LD      A,A             
42D3: 20 38      JR      NZ,$430D        
42D5: 10 18      STOP    $18             
42D7: 00         NOP                     
42D8: 00         NOP                     
42D9: 00         NOP                     
42DA: 00         NOP                     
42DB: 00         NOP                     
42DC: 00         NOP                     
42DD: 00         NOP                     
42DE: 00         NOP                     
42DF: 00         NOP                     
42E0: 00         NOP                     
42E1: 00         NOP                     
42E2: 00         NOP                     
42E3: 00         NOP                     
42E4: 00         NOP                     
42E5: 00         NOP                     
42E6: 00         NOP                     
42E7: 00         NOP                     
42E8: 00         NOP                     
42E9: 00         NOP                     
42EA: 00         NOP                     
42EB: 00         NOP                     
42EC: FE 00      CP      $00             
42EE: 01 FE 01   LD      BC,$01FE        
42F1: FE FE      CP      $FE             
42F3: 00         NOP                     
42F4: 00         NOP                     
42F5: 00         NOP                     
42F6: 00         NOP                     
42F7: 00         NOP                     
42F8: 00         NOP                     
42F9: 00         NOP                     
42FA: 00         NOP                     
42FB: 00         NOP                     
42FC: 00         NOP                     
42FD: 00         NOP                     
42FE: 00         NOP                     
42FF: 00         NOP                     
4300: 03         INC     BC              
4301: 00         NOP                     
4302: 04         INC     B               
4303: 03         INC     BC              
4304: 0B         DEC     BC              
4305: 07         RLCA                    
4306: 14         INC     D               
4307: 0F         RRCA                    
4308: 14         INC     D               
4309: 0F         RRCA                    
430A: 63         LD      H,E             
430B: 1F         RRA                     
430C: B7         OR      A               
430D: 7F         LD      A,A             
430E: E7         RST     0X20            
430F: 7F         LD      A,A             
4310: E3         ???                     
4311: 7F         LD      A,A             
4312: AB         XOR     E               
4313: 77         LD      (HL),A          
4314: 48         LD      C,B             
4315: 37         SCF                     
4316: 34         INC     (HL)            
4317: 0B         DEC     BC              
4318: 13         INC     DE              
4319: 0C         INC     C               
431A: 18 07      JR      $4323           
431C: 0C         INC     C               
431D: 03         INC     BC              
431E: 03         INC     BC              
431F: 00         NOP                     
4320: 00         NOP                     
4321: 00         NOP                     
4322: 60         LD      H,B             
4323: 00         NOP                     
4324: 90         SUB     B               
4325: 60         LD      H,B             
4326: F0 60      LD      A,($60)         
4328: 61         LD      H,C             
4329: 00         NOP                     
432A: 06 01      LD      B,$01           
432C: 09         ADD     HL,BC           
432D: 07         RLCA                    
432E: 0B         DEC     BC              
432F: 07         RLCA                    
4330: 0B         DEC     BC              
4331: 07         RLCA                    
4332: 09         ADD     HL,BC           
4333: 07         RLCA                    
4334: 04         INC     B               
4335: 03         INC     BC              
4336: 03         INC     BC              
4337: 00         NOP                     
4338: 60         LD      H,B             
4339: 00         NOP                     
433A: 90         SUB     B               
433B: 60         LD      H,B             
433C: F0 60      LD      A,($60)         
433E: 60         LD      H,B             
433F: 00         NOP                     
4340: 06 00      LD      B,$00           
4342: 0A         LD      A,(BC)          
4343: 04         INC     B               
4344: 0B         DEC     BC              
4345: 06 0A      LD      B,$0A           
4347: 07         RLCA                    
4348: 37         SCF                     
4349: 0F         RRCA                    
434A: 56         LD      D,(HL)          
434B: 2F         CPL                     
434C: 74         LD      (HL),H          
434D: 2F         CPL                     
434E: 6E         LD      L,(HL)          
434F: 3D         DEC     A               
4350: 6A         LD      L,D             
4351: 3D         DEC     A               
4352: 5B         LD      E,E             
4353: 3C         INC     A               
4354: 4B         LD      C,E             
4355: 3C         INC     A               
4356: 2D         DEC     L               
4357: 1E 26      LD      E,$26           
4359: 1F         RRA                     
435A: 13         INC     DE              
435B: 0F         RRCA                    
435C: 0C         INC     C               
435D: 03         INC     BC              
435E: 03         INC     BC              
435F: 00         NOP                     
4360: 00         NOP                     
4361: 00         NOP                     
4362: 01 00 03   LD      BC,$0300        
4365: 00         NOP                     
4366: 03         INC     BC              
4367: 01 07 01   LD      BC,$0107        
436A: 0F         RRCA                    
436B: 03         INC     BC              
436C: 3E 07      LD      A,$07           
436E: 7D         LD      A,L             
436F: 1E 7D      LD      E,$7D           
4371: 1E 3E      LD      E,$3E           
4373: 07         RLCA                    
4374: 0F         RRCA                    
4375: 03         INC     BC              
4376: 07         RLCA                    
4377: 01 03 01   LD      BC,$0103        
437A: 03         INC     BC              
437B: 00         NOP                     
437C: 01 00 00   LD      BC,$0000        
437F: 00         NOP                     
4380: 02         LD      (BC),A          
4381: 03         INC     BC              
4382: 05         DEC     B               
4383: 06 0B      LD      B,$0B           
4385: 0C         INC     C               
4386: 17         RLA                     
4387: 18 2D      JR      $43B6           
4389: 33         INC     SP              
438A: 3A         LD      A,(HLD)         
438B: 26 34      LD      H,$34           
438D: 2C         INC     L               
438E: 38 38      JR      C,$43C8         
4390: 00         NOP                     
4391: 00         NOP                     
4392: 00         NOP                     
4393: 00         NOP                     
4394: 00         NOP                     
4395: 00         NOP                     
4396: 00         NOP                     
4397: 00         NOP                     
4398: 00         NOP                     
4399: 00         NOP                     
439A: 00         NOP                     
439B: 00         NOP                     
439C: 00         NOP                     
439D: 00         NOP                     
439E: 00         NOP                     
439F: 00         NOP                     
43A0: 00         NOP                     
43A1: 00         NOP                     
43A2: 00         NOP                     
43A3: 00         NOP                     
43A4: 30 00      JR      NC,$43A6        
43A6: 38 10      JR      C,$43B8         
43A8: 1E 08      LD      E,$08           
43AA: 0D         DEC     C               
43AB: 06 0B      LD      B,$0B           
43AD: 07         RLCA                    
43AE: 07         RLCA                    
43AF: 03         INC     BC              
43B0: 07         RLCA                    
43B1: 03         INC     BC              
43B2: 0B         DEC     BC              
43B3: 07         RLCA                    
43B4: 0D         DEC     C               
43B5: 06 1E      LD      B,$1E           
43B7: 08 38 10   LD      ($1038),SP      
43BA: 30 00      JR      NC,$43BC        
43BC: 00         NOP                     
43BD: 00         NOP                     
43BE: 00         NOP                     
43BF: 00         NOP                     
43C0: C0         RET     NZ              
43C1: 00         NOP                     
43C2: E0 40      LDFF00  ($40),A         
43C4: 70         LD      (HL),B          
43C5: 20 28      JR      NZ,$43EF        
43C7: 10 18      STOP    $18             
43C9: 00         NOP                     
43CA: 00         NOP                     
43CB: 00         NOP                     
43CC: 00         NOP                     
43CD: 00         NOP                     
43CE: 00         NOP                     
43CF: 00         NOP                     
43D0: 00         NOP                     
43D1: 00         NOP                     
43D2: 00         NOP                     
43D3: 00         NOP                     
43D4: 00         NOP                     
43D5: 00         NOP                     
43D6: 18 00      JR      $43D8           
43D8: 28 10      JR      Z,$43EA         
43DA: 70         LD      (HL),B          
43DB: 20 E0      JR      NZ,$43BD        
43DD: 40         LD      B,B             
43DE: C0         RET     NZ              
43DF: 00         NOP                     
43E0: 00         NOP                     
43E1: 00         NOP                     
43E2: 3C         INC     A               
43E3: 00         NOP                     
43E4: 5A         LD      E,D             
43E5: 3C         INC     A               
43E6: 7E         LD      A,(HL)          
43E7: 3C         INC     A               
43E8: 7E         LD      A,(HL)          
43E9: 3C         INC     A               
43EA: 5A         LD      E,D             
43EB: 3C         INC     A               
43EC: 3C         INC     A               
43ED: 00         NOP                     
43EE: 00         NOP                     
43EF: 00         NOP                     
43F0: 00         NOP                     
43F1: 00         NOP                     
43F2: 00         NOP                     
43F3: 00         NOP                     
43F4: 00         NOP                     
43F5: 00         NOP                     
43F6: 00         NOP                     
43F7: 00         NOP                     
43F8: 00         NOP                     
43F9: 00         NOP                     
43FA: 00         NOP                     
43FB: 00         NOP                     
43FC: 00         NOP                     
43FD: 00         NOP                     
43FE: 00         NOP                     
43FF: 00         NOP                     
4400: 00         NOP                     
4401: 00         NOP                     
4402: 00         NOP                     
4403: 00         NOP                     
4404: 00         NOP                     
4405: 00         NOP                     
4406: 78         LD      A,B             
4407: 78         LD      A,B             
4408: FF         RST     0X38            
4409: 87         ADD     A,A             
440A: FF         RST     0X38            
440B: 84         ADD     A,H             
440C: 7F         LD      A,A             
440D: 44         LD      B,H             
440E: 6D         LD      L,L             
440F: 5E         LD      E,(HL)          
4410: 7E         LD      A,(HL)          
4411: 43         LD      B,E             
4412: 7F         LD      A,A             
4413: 41         LD      B,C             
4414: FE 82      CP      $82             
4416: FC         ???                     
4417: 84         ADD     A,H             
4418: 78         LD      A,B             
4419: 48         LD      C,B             
441A: 30 30      JR      NC,$444C        
441C: 00         NOP                     
441D: 00         NOP                     
441E: 00         NOP                     
441F: 00         NOP                     
4420: 1C         INC     E               
4421: 1C         INC     E               
4422: 3E 22      LD      A,$22           
4424: 7E         LD      A,(HL)          
4425: 42         LD      B,D             
4426: FC         ???                     
4427: 84         ADD     A,H             
4428: EC         ???                     
4429: 94         SUB     H               
442A: DE E2      SBC     $E2             
442C: BF         CP      A               
442D: C1         POP     BC              
442E: FF         RST     0X38            
442F: 81         ADD     A,C             
4430: DF         RST     0X18            
4431: E1         POP     HL              
4432: 37         SCF                     
4433: 39         ADD     HL,SP           
4434: 0E 0E      LD      C,$0E           
4436: 00         NOP                     
4437: 00         NOP                     
4438: 00         NOP                     
4439: 00         NOP                     
443A: 00         NOP                     
443B: 00         NOP                     
443C: 00         NOP                     
443D: 00         NOP                     
443E: 00         NOP                     
443F: 00         NOP                     
4440: 0F         RRCA                    
4441: 0F         RRCA                    
4442: 1F         RRA                     
4443: 10 3F      STOP    $3F             
4445: 27         DAA                     
4446: 3F         CCF                     
4447: 28 3F      JR      Z,$4488         
4449: 27         DAA                     
444A: 3C         INC     A               
444B: 30 3F      JR      NC,$448C        
444D: 3F         CCF                     
444E: 3F         CCF                     
444F: 3B         DEC     SP              
4450: 3F         CCF                     
4451: 38 3F      JR      C,$4492         
4453: 3A         LD      A,(HLD)         
4454: 2F         CPL                     
4455: 38 3F      JR      C,$4496         
4457: 2F         CPL                     
4458: 1C         INC     E               
4459: 10 0F      STOP    $0F             
445B: 0F         RRCA                    
445C: 00         NOP                     
445D: 00         NOP                     
445E: 00         NOP                     
445F: 00         NOP                     
4460: E0 E0      LDFF00  ($E0),A         
4462: F0 10      LD      A,($10)         
4464: F8 C8      LDHL    SP,$C8          
4466: F8 28      LDHL    SP,$28          
4468: F8 C8      LDHL    SP,$C8          
446A: 78         LD      A,B             
446B: 18 F8      JR      $4465           
446D: F8 F8      LDHL    SP,$F8          
446F: B8         CP      B               
4470: F8 38      LDHL    SP,$38          
4472: F8 B8      LDHL    SP,$B8          
4474: E8 38      ADD     SP,$38          
4476: F8 E8      LDHL    SP,$E8          
4478: 70         LD      (HL),B          
4479: 10 E0      STOP    $E0             
447B: E0 00      LDFF00  ($00),A         
447D: 00         NOP                     
447E: 00         NOP                     
447F: 00         NOP                     
4480: 00         NOP                     
4481: 00         NOP                     
4482: 00         NOP                     
4483: 00         NOP                     
4484: 38 38      JR      C,$44BE         
4486: 2C         INC     L               
4487: 34         INC     (HL)            
4488: 2F         CPL                     
4489: 33         INC     SP              
448A: FF         RST     0X38            
448B: F0 9F      LD      A,($9F)         
448D: EC         ???                     
448E: 9F         SBC     A               
448F: E3         ???                     
4490: 4F         LD      C,A             
4491: 70         LD      (HL),B          
4492: FF         RST     0X38            
4493: FF         RST     0X38            
4494: 9F         SBC     A               
4495: E0 9F      LDFF00  ($9F),A         
4497: E0 4F      LDFF00  ($4F),A         
4499: 70         LD      (HL),B          
449A: 37         SCF                     
449B: 38 0F      JR      C,$44AC         
449D: 0F         RRCA                    
449E: 00         NOP                     
449F: 00         NOP                     
44A0: 1C         INC     E               
44A1: 1C         INC     E               
44A2: 3E 22      LD      A,$22           
44A4: 3F         CCF                     
44A5: 31 1F 19   LD      SP,$191F        
44A8: FF         RST     0X38            
44A9: FF         RST     0X38            
44AA: FE 1A      CP      $1A             
44AC: FE 6A      CP      $6A             
44AE: FE 92      CP      $92             
44B0: FA 66 FC   LD      A,($FC66)       
44B3: 84         ADD     A,H             
44B4: F4         ???                     
44B5: 0C         INC     C               
44B6: E8 18      ADD     SP,$18          
44B8: D0         RET     NC              
44B9: 30 60      JR      NC,$451B        
44BB: E0 80      LDFF00  ($80),A         
44BD: 80         ADD     A,B             
44BE: 00         NOP                     
44BF: 00         NOP                     
44C0: 01 01 03   LD      BC,$0301        
44C3: 02         LD      (BC),A          
44C4: 03         INC     BC              
44C5: 02         LD      (BC),A          
44C6: 03         INC     BC              
44C7: 02         LD      (BC),A          
44C8: 03         INC     BC              
44C9: 02         LD      (BC),A          
44CA: 03         INC     BC              
44CB: 02         LD      (BC),A          
44CC: 03         INC     BC              
44CD: 02         LD      (BC),A          
44CE: 03         INC     BC              
44CF: 02         LD      (BC),A          
44D0: 03         INC     BC              
44D1: 02         LD      (BC),A          
44D2: 03         INC     BC              
44D3: 02         LD      (BC),A          
44D4: 03         INC     BC              
44D5: 02         LD      (BC),A          
44D6: 03         INC     BC              
44D7: 02         LD      (BC),A          
44D8: 03         INC     BC              
44D9: 02         LD      (BC),A          
44DA: 03         INC     BC              
44DB: 02         LD      (BC),A          
44DC: 01 01 00   LD      BC,$0001        
44DF: 00         NOP                     
44E0: 80         ADD     A,B             
44E1: 80         ADD     A,B             
44E2: C0         RET     NZ              
44E3: 40         LD      B,B             
44E4: C0         RET     NZ              
44E5: 40         LD      B,B             
44E6: E0 60      LDFF00  ($60),A         
44E8: F0 90      LD      A,($90)         
44EA: F0 90      LD      A,($90)         
44EC: F0 10      LD      A,($10)         
44EE: E0 20      LDFF00  ($20),A         
44F0: C0         RET     NZ              
44F1: 40         LD      B,B             
44F2: C0         RET     NZ              
44F3: 40         LD      B,B             
44F4: C0         RET     NZ              
44F5: 40         LD      B,B             
44F6: C0         RET     NZ              
44F7: 40         LD      B,B             
44F8: C0         RET     NZ              
44F9: 40         LD      B,B             
44FA: C0         RET     NZ              
44FB: 40         LD      B,B             
44FC: 80         ADD     A,B             
44FD: 80         ADD     A,B             
44FE: 00         NOP                     
44FF: 00         NOP                     
4500: 07         RLCA                    
4501: 07         RLCA                    
4502: 07         RLCA                    
4503: 04         INC     B               
4504: 03         INC     BC              
4505: 03         INC     BC              
4506: 02         LD      (BC),A          
4507: 03         INC     BC              
4508: 0D         DEC     C               
4509: 0E 13      LD      C,$13           
450B: 1C         INC     E               
450C: 2F         CPL                     
450D: 34         INC     (HL)            
450E: 3F         CCF                     
450F: 24         INC     H               
4510: 5F         LD      E,A             
4511: 6F         LD      L,A             
4512: 5F         LD      E,A             
4513: 70         LD      (HL),B          
4514: 7F         LD      A,A             
4515: 67         LD      H,A             
4516: 7F         LD      A,A             
4517: 57         LD      D,A             
4518: 7F         LD      A,A             
4519: 50         LD      D,B             
451A: 3F         CCF                     
451B: 26 1F      LD      H,$1F           
451D: 1F         RRA                     
451E: 00         NOP                     
451F: 00         NOP                     
4520: E0 E0      LDFF00  ($E0),A         
4522: E0 20      LDFF00  ($20),A         
4524: C0         RET     NZ              
4525: C0         RET     NZ              
4526: 40         LD      B,B             
4527: C0         RET     NZ              
4528: B0         OR      B               
4529: 70         LD      (HL),B          
452A: C8         RET     Z               
452B: 38 F4      JR      C,$4521         
452D: 2C         INC     L               
452E: FC         ???                     
452F: 24         INC     H               
4530: FA F6 FA   LD      A,($FAF6)       
4533: 0E FE      LD      C,$FE           
4535: 66         LD      H,(HL)          
4536: FE 6A      CP      $6A             
4538: FE 0A      CP      $0A             
453A: FC         ???                     
453B: E4         ???                     
453C: F8 F8      LDHL    SP,$F8          
453E: 00         NOP                     
453F: 00         NOP                     
4540: 01 01 0F   LD      BC,$0F01        
4543: 0E 1B      LD      C,$1B           
4545: 17         RLA                     
4546: 31 2F 2C   LD      SP,$2C2F        
4549: 3F         CCF                     
454A: 32         LD      (HLD),A         
454B: 33         INC     SP              
454C: 07         RLCA                    
454D: 05         DEC     B               
454E: 0F         RRCA                    
454F: 08 16 19   LD      ($1916),SP      
4552: 19         ADD     HL,DE           
4553: 16 1F      LD      D,$1F           
4555: 10 16      STOP    $16             
4557: 19         ADD     HL,DE           
4558: 19         ADD     HL,DE           
4559: 16 0F      LD      D,$0F           
455B: 08 07 07   LD      ($0707),SP      
455E: 00         NOP                     
455F: 00         NOP                     
4560: C0         RET     NZ              
4561: C0         RET     NZ              
4562: 70         LD      (HL),B          
4563: F0 98      LD      A,($98)         
4565: E8 0C      ADD     SP,$0C          
4567: F4         ???                     
4568: 34         INC     (HL)            
4569: FC         ???                     
456A: 4C         LD      C,H             
456B: CC E0 A0   CALL    Z,$A0E0         
456E: F0 10      LD      A,($10)         
4570: 68         LD      L,B             
4571: 98         SBC     B               
4572: 98         SBC     B               
4573: 68         LD      L,B             
4574: F8 08      LDHL    SP,$08          
4576: 68         LD      L,B             
4577: 98         SBC     B               
4578: 98         SBC     B               
4579: 68         LD      L,B             
457A: F0 10      LD      A,($10)         
457C: E0 E0      LDFF00  ($E0),A         
457E: 00         NOP                     
457F: 00         NOP                     
4580: 07         RLCA                    
4581: 07         RLCA                    
4582: 0C         INC     C               
4583: 0F         RRCA                    
4584: 0E 0B      LD      C,$0B           
4586: 0F         RRCA                    
4587: 0D         DEC     C               
4588: 1F         RRA                     
4589: 12         LD      (DE),A          
458A: 2F         CPL                     
458B: 33         INC     SP              
458C: 27         DAA                     
458D: 3E 35      LD      A,$35           
458F: 3E 1C      LD      A,$1C           
4591: 1F         RRA                     
4592: 03         INC     BC              
4593: 03         INC     BC              
4594: 01 01 01   LD      BC,$0101        
4597: 01 03 02   LD      BC,$0203        
459A: 03         INC     BC              
459B: 02         LD      (BC),A          
459C: 03         INC     BC              
459D: 03         INC     BC              
459E: 00         NOP                     
459F: 00         NOP                     
45A0: 80         ADD     A,B             
45A1: 80         ADD     A,B             
45A2: 78         LD      A,B             
45A3: F8 C4      LDHL    SP,$C4          
45A5: FC         ???                     
45A6: E4         ???                     
45A7: 9C         SBC     H               
45A8: E4         ???                     
45A9: 9C         SBC     H               
45AA: E4         ???                     
45AB: FC         ???                     
45AC: F8 38      LDHL    SP,$38          
45AE: 90         SUB     B               
45AF: 70         LD      (HL),B          
45B0: 10 F0      STOP    $F0             
45B2: E0 E0      LDFF00  ($E0),A         
45B4: C0         RET     NZ              
45B5: 40         LD      B,B             
45B6: C0         RET     NZ              
45B7: 40         LD      B,B             
45B8: C0         RET     NZ              
45B9: 40         LD      B,B             
45BA: C0         RET     NZ              
45BB: 40         LD      B,B             
45BC: 80         ADD     A,B             
45BD: 80         ADD     A,B             
45BE: 00         NOP                     
45BF: 00         NOP                     
45C0: 00         NOP                     
45C1: 00         NOP                     
45C2: 3F         CCF                     
45C3: 3F         CCF                     
45C4: 7F         LD      A,A             
45C5: 40         LD      B,B             
45C6: 7F         LD      A,A             
45C7: 40         LD      B,B             
45C8: 7F         LD      A,A             
45C9: 40         LD      B,B             
45CA: 7F         LD      A,A             
45CB: 60         LD      H,B             
45CC: 7F         LD      A,A             
45CD: 52         LD      D,D             
45CE: 7F         LD      A,A             
45CF: 4F         LD      C,A             
45D0: 7F         LD      A,A             
45D1: 43         LD      B,E             
45D2: 7F         LD      A,A             
45D3: 41         LD      B,C             
45D4: 7F         LD      A,A             
45D5: 40         LD      B,B             
45D6: 7F         LD      A,A             
45D7: 40         LD      B,B             
45D8: 3F         CCF                     
45D9: 3F         CCF                     
45DA: 00         NOP                     
45DB: 00         NOP                     
45DC: 00         NOP                     
45DD: 00         NOP                     
45DE: 00         NOP                     
45DF: 00         NOP                     
45E0: 00         NOP                     
45E1: 00         NOP                     
45E2: FC         ???                     
45E3: FC         ???                     
45E4: FE 02      CP      $02             
45E6: FE 02      CP      $02             
45E8: FE 02      CP      $02             
45EA: FE 06      CP      $06             
45EC: FE 4A      CP      $4A             
45EE: FE F2      CP      $F2             
45F0: FE C2      CP      $C2             
45F2: FE 82      CP      $82             
45F4: FE 02      CP      $02             
45F6: FE 02      CP      $02             
45F8: FC         ???                     
45F9: FC         ???                     
45FA: 00         NOP                     
45FB: 00         NOP                     
45FC: 00         NOP                     
45FD: 00         NOP                     
45FE: 00         NOP                     
45FF: 00         NOP                     
4600: 00         NOP                     
4601: 00         NOP                     
4602: 00         NOP                     
4603: 00         NOP                     
4604: 00         NOP                     
4605: 00         NOP                     
4606: 00         NOP                     
4607: 00         NOP                     
4608: 00         NOP                     
4609: 00         NOP                     
460A: 01 01 03   LD      BC,$0301        
460D: 02         LD      (BC),A          
460E: 03         INC     BC              
460F: 03         INC     BC              
4610: 03         INC     BC              
4611: 02         LD      (BC),A          
4612: 07         RLCA                    
4613: 04         INC     B               
4614: 0F         RRCA                    
4615: 08 1F 10   LD      ($101F),SP      
4618: 3B         DEC     SP              
4619: 24         INC     H               
461A: 36 29      LD      (HL),$29        
461C: 1F         RRA                     
461D: 1F         RRA                     
461E: 00         NOP                     
461F: 00         NOP                     
4620: 1C         INC     E               
4621: 1C         INC     E               
4622: 1C         INC     E               
4623: 14         INC     D               
4624: 34         INC     (HL)            
4625: 2C         INC     L               
4626: 38 28      JR      C,$4650         
4628: 68         LD      L,B             
4629: 58         LD      E,B             
462A: F0 D0      LD      A,($D0)         
462C: F0 30      LD      A,($30)         
462E: F0 90      LD      A,($90)         
4630: F0 50      LD      A,($50)         
4632: E0 20      LDFF00  ($20),A         
4634: A0         AND     B               
4635: 60         LD      H,B             
4636: C0         RET     NZ              
4637: 40         LD      B,B             
4638: 40         LD      B,B             
4639: C0         RET     NZ              
463A: 80         ADD     A,B             
463B: 80         ADD     A,B             
463C: 00         NOP                     
463D: 00         NOP                     
463E: 00         NOP                     
463F: 00         NOP                     
4640: 00         NOP                     
4641: 00         NOP                     
4642: 00         NOP                     
4643: 00         NOP                     
4644: 00         NOP                     
4645: 00         NOP                     
4646: 00         NOP                     
4647: 00         NOP                     
4648: 0C         INC     C               
4649: 0C         INC     C               
464A: 1C         INC     E               
464B: 14         INC     D               
464C: 1C         INC     E               
464D: 14         INC     D               
464E: 3C         INC     A               
464F: 24         INC     H               
4650: 3E 22      LD      A,$22           
4652: 3E 2E      LD      A,$2E           
4654: 38 28      JR      C,$467E         
4656: 3C         INC     A               
4657: 24         INC     H               
4658: 1F         RRA                     
4659: 13         INC     DE              
465A: 0F         RRCA                    
465B: 08 07 07   LD      ($0707),SP      
465E: 00         NOP                     
465F: 00         NOP                     
4660: 18 18      JR      $467A           
4662: 3C         INC     A               
4663: 24         INC     H               
4664: 7C         LD      A,H             
4665: 54         LD      D,H             
4666: 78         LD      A,B             
4667: 48         LD      C,B             
4668: 70         LD      (HL),B          
4669: 50         LD      D,B             
466A: 70         LD      (HL),B          
466B: 50         LD      D,B             
466C: 70         LD      (HL),B          
466D: 50         LD      D,B             
466E: 78         LD      A,B             
466F: 48         LD      C,B             
4670: 38 28      JR      C,$469A         
4672: 38 28      JR      C,$469C         
4674: 38 28      JR      C,$469E         
4676: 78         LD      A,B             
4677: 48         LD      C,B             
4678: F0 90      LD      A,($90)         
467A: E0 20      LDFF00  ($20),A         
467C: C0         RET     NZ              
467D: C0         RET     NZ              
467E: 00         NOP                     
467F: 00         NOP                     
4680: 03         INC     BC              
4681: 03         INC     BC              
4682: 0F         RRCA                    
4683: 0E 0F      LD      C,$0F           
4685: 0B         DEC     BC              
4686: 1E 1E      LD      E,$1E           
4688: 1C         INC     E               
4689: 14         INC     D               
468A: 3C         INC     A               
468B: 3C         INC     A               
468C: 38 28      JR      C,$46B6         
468E: 38 38      JR      C,$46C8         
4690: 7C         LD      A,H             
4691: 44         LD      B,H             
4692: D6 8A      SUB     $8A             
4694: F6 8A      OR      $8A             
4696: C7         RST     0X00            
4697: BB         CP      E               
4698: 7F         LD      A,A             
4699: 46         LD      B,(HL)          
469A: 3B         DEC     SP              
469B: 3B         DEC     SP              
469C: 00         NOP                     
469D: 00         NOP                     
469E: 00         NOP                     
469F: 00         NOP                     
46A0: F8 F8      LDHL    SP,$F8          
46A2: FE AE      CP      $AE             
46A4: FE FA      CP      $FA             
46A6: 0F         RRCA                    
46A7: 0F         RRCA                    
46A8: 07         RLCA                    
46A9: 05         DEC     B               
46AA: 07         RLCA                    
46AB: 07         RLCA                    
46AC: 07         RLCA                    
46AD: 05         DEC     B               
46AE: 07         RLCA                    
46AF: 07         RLCA                    
46B0: 07         RLCA                    
46B1: 05         DEC     B               
46B2: 0F         RRCA                    
46B3: 0F         RRCA                    
46B4: 3E 3A      LD      A,$3A           
46B6: FE EE      CP      $EE             
46B8: F8 B8      LDHL    SP,$B8          
46BA: E0 E0      LDFF00  ($E0),A         
46BC: 00         NOP                     
46BD: 00         NOP                     
46BE: 00         NOP                     
46BF: 00         NOP                     
46C0: 00         NOP                     
46C1: 00         NOP                     
46C2: 00         NOP                     
46C3: 00         NOP                     
46C4: 07         RLCA                    
46C5: 07         RLCA                    
46C6: 0F         RRCA                    
46C7: 08 0F 09   LD      ($090F),SP      
46CA: 0F         RRCA                    
46CB: 0A         LD      A,(BC)          
46CC: 0F         RRCA                    
46CD: 0E 0F      LD      C,$0F           
46CF: 0F         RRCA                    
46D0: 0F         RRCA                    
46D1: 0F         RRCA                    
46D2: 0F         RRCA                    
46D3: 0F         RRCA                    
46D4: 07         RLCA                    
46D5: 06 03      LD      B,$03           
46D7: 02         LD      (BC),A          
46D8: 01 01 00   LD      BC,$0001        
46DB: 00         NOP                     
46DC: 00         NOP                     
46DD: 00         NOP                     
46DE: 00         NOP                     
46DF: 00         NOP                     
46E0: 00         NOP                     
46E1: 00         NOP                     
46E2: 00         NOP                     
46E3: 00         NOP                     
46E4: 00         NOP                     
46E5: 00         NOP                     
46E6: C0         RET     NZ              
46E7: C0         RET     NZ              
46E8: E0 20      LDFF00  ($20),A         
46EA: E0 20      LDFF00  ($20),A         
46EC: F0 10      LD      A,($10)         
46EE: F0 10      LD      A,($10)         
46F0: F0 F0      LD      A,($F0)         
46F2: F0 10      LD      A,($10)         
46F4: F0 10      LD      A,($10)         
46F6: F0 10      LD      A,($10)         
46F8: E0 20      LDFF00  ($20),A         
46FA: C0         RET     NZ              
46FB: C0         RET     NZ              
46FC: 00         NOP                     
46FD: 00         NOP                     
46FE: 00         NOP                     
46FF: 00         NOP                     
4700: 00         NOP                     
4701: 00         NOP                     
4702: 01 01 03   LD      BC,$0301        
4705: 02         LD      (BC),A          
4706: 06 05      LD      B,$05           
4708: 0D         DEC     C               
4709: 0B         DEC     BC              
470A: 0E 0B      LD      C,$0B           
470C: 0E 0B      LD      C,$0B           
470E: 0E 0B      LD      C,$0B           
4710: 0F         RRCA                    
4711: 09         ADD     HL,BC           
4712: 1F         RRA                     
4713: 14         INC     D               
4714: 3B         DEC     SP              
4715: 27         DAA                     
4716: 74         LD      (HL),H          
4717: 4C         LD      C,H             
4718: E8 98      ADD     SP,$98          
471A: D0         RET     NC              
471B: B0         OR      B               
471C: 60         LD      H,B             
471D: 60         LD      H,B             
471E: 00         NOP                     
471F: 00         NOP                     
4720: F8 F8      LDHL    SP,$F8          
4722: FC         ???                     
4723: 04         INC     B               
4724: 7E         LD      A,(HL)          
4725: F2         ???                     
4726: EE 9A      XOR     $9A             
4728: 8E         ADC     A,(HL)          
4729: 7A         LD      A,D             
472A: 0E FA      LD      C,$FA           
472C: 1A         LD      A,(DE)          
472D: F6 34      OR      $34             
472F: EC         ???                     
4730: E8 D8      ADD     SP,$D8          
4732: D0         RET     NC              
4733: 30 E0      JR      NC,$4715        
4735: E0 00      LDFF00  ($00),A         
4737: 00         NOP                     
4738: 00         NOP                     
4739: 00         NOP                     
473A: 00         NOP                     
473B: 00         NOP                     
473C: 00         NOP                     
473D: 00         NOP                     
473E: 00         NOP                     
473F: 00         NOP                     
4740: 00         NOP                     
4741: 00         NOP                     
4742: 00         NOP                     
4743: 00         NOP                     
4744: 00         NOP                     
4745: 00         NOP                     
4746: 00         NOP                     
4747: 07         RLCA                    
4748: 04         INC     B               
4749: 08 0B 10   LD      ($100B),SP      
474C: 07         RLCA                    
474D: 10 07      STOP    $07             
474F: 10 00      STOP    $00             
4751: 00         NOP                     
4752: 00         NOP                     
4753: 00         NOP                     
4754: 00         NOP                     
4755: 00         NOP                     
4756: 00         NOP                     
4757: E0 20      LDFF00  ($20),A         
4759: 10 D0      STOP    $D0             
475B: 08 E0 08   LD      ($08E0),SP      
475E: E0 08      LDFF00  ($08),A         
4760: 07         RLCA                    
4761: 10 07      STOP    $07             
4763: 10 0B      STOP    $0B             
4765: 10 04      STOP    $04             
4767: 08 00 07   LD      ($0700),SP      
476A: 00         NOP                     
476B: 00         NOP                     
476C: 00         NOP                     
476D: 00         NOP                     
476E: 00         NOP                     
476F: 00         NOP                     
4770: E0 08      LDFF00  ($08),A         
4772: E0 08      LDFF00  ($08),A         
4774: D0         RET     NC              
4775: 08 20 10   LD      ($1020),SP      
4778: 00         NOP                     
4779: E0 00      LDFF00  ($00),A         
477B: 00         NOP                     
477C: 00         NOP                     
477D: 00         NOP                     
477E: 00         NOP                     
477F: 00         NOP                     
4780: 00         NOP                     
4781: 00         NOP                     
4782: 00         NOP                     
4783: 00         NOP                     
4784: 44         LD      B,H             
4785: 00         NOP                     
4786: 28 00      JR      Z,$4788         
4788: 10 00      STOP    $00             
478A: 28 00      JR      Z,$478C         
478C: 44         LD      B,H             
478D: 00         NOP                     
478E: 00         NOP                     
478F: 00         NOP                     
4790: 00         NOP                     
4791: 00         NOP                     
4792: 00         NOP                     
4793: 00         NOP                     
4794: 44         LD      B,H             
4795: 00         NOP                     
4796: 28 00      JR      Z,$4798         
4798: 10 00      STOP    $00             
479A: 28 00      JR      Z,$479C         
479C: 44         LD      B,H             
479D: 00         NOP                     
479E: 00         NOP                     
479F: 00         NOP                     
47A0: 00         NOP                     
47A1: 00         NOP                     
47A2: 00         NOP                     
47A3: 00         NOP                     
47A4: 00         NOP                     
47A5: 00         NOP                     
47A6: 00         NOP                     
47A7: 00         NOP                     
47A8: 00         NOP                     
47A9: 00         NOP                     
47AA: 00         NOP                     
47AB: 00         NOP                     
47AC: FF         RST     0X38            
47AD: FF         RST     0X38            
47AE: FF         RST     0X38            
47AF: FF         RST     0X38            
47B0: 00         NOP                     
47B1: 00         NOP                     
47B2: 00         NOP                     
47B3: 00         NOP                     
47B4: 00         NOP                     
47B5: 00         NOP                     
47B6: 00         NOP                     
47B7: 00         NOP                     
47B8: 00         NOP                     
47B9: 00         NOP                     
47BA: 00         NOP                     
47BB: 00         NOP                     
47BC: 00         NOP                     
47BD: 00         NOP                     
47BE: 00         NOP                     
47BF: 00         NOP                     
47C0: 00         NOP                     
47C1: 00         NOP                     
47C2: 41         LD      B,C             
47C3: 00         NOP                     
47C4: 63         LD      H,E             
47C5: 00         NOP                     
47C6: 77         LD      (HL),A          
47C7: 00         NOP                     
47C8: 3E 00      LD      A,$00           
47CA: 1C         INC     E               
47CB: 00         NOP                     
47CC: 08 00 00   LD      ($0000),SP      
47CF: 00         NOP                     
47D0: 00         NOP                     
47D1: 00         NOP                     
47D2: 08 00 1C   LD      ($1C00),SP      
47D5: 00         NOP                     
47D6: 3E 00      LD      A,$00           
47D8: 77         LD      (HL),A          
47D9: 00         NOP                     
47DA: 63         LD      H,E             
47DB: 00         NOP                     
47DC: 41         LD      B,C             
47DD: 00         NOP                     
47DE: 00         NOP                     
47DF: 00         NOP                     
47E0: 0E 00      LD      C,$00           
47E2: 1C         INC     E               
47E3: 00         NOP                     
47E4: 38 00      JR      C,$47E6         
47E6: 70         LD      (HL),B          
47E7: 00         NOP                     
47E8: 38 00      JR      C,$47EA         
47EA: 1C         INC     E               
47EB: 00         NOP                     
47EC: 0E 00      LD      C,$00           
47EE: 00         NOP                     
47EF: 00         NOP                     
47F0: 70         LD      (HL),B          
47F1: 00         NOP                     
47F2: 38 00      JR      C,$47F4         
47F4: 1C         INC     E               
47F5: 00         NOP                     
47F6: 0E 00      LD      C,$00           
47F8: 1C         INC     E               
47F9: 00         NOP                     
47FA: 38 00      JR      C,$47FC         
47FC: 70         LD      (HL),B          
47FD: 00         NOP                     
47FE: 00         NOP                     
47FF: 00         NOP                     
4800: 00         NOP                     
4801: 00         NOP                     
4802: 06 06      LD      B,$06           
4804: 0C         INC     C               
4805: 0C         INC     C               
4806: 08 08 18   LD      ($1808),SP      
4809: 18 34      JR      $483F           
480B: 2C         INC     L               
480C: 7E         LD      A,(HL)          
480D: 7E         LD      A,(HL)          
480E: 6E         LD      L,(HL)          
480F: 9F         SBC     A               
4810: EF         RST     0X28            
4811: 9F         SBC     A               
4812: 8D         ADC     A,L             
4813: FF         RST     0X38            
4814: FD         ???                     
4815: FF         RST     0X38            
4816: 7A         LD      A,D             
4817: FF         RST     0X38            
4818: 66         LD      H,(HL)          
4819: 7E         LD      A,(HL)          
481A: 18 3C      JR      $4858           
481C: 00         NOP                     
481D: 00         NOP                     
481E: 00         NOP                     
481F: 00         NOP                     
4820: 00         NOP                     
4821: 00         NOP                     
4822: 1C         INC     E               
4823: 1C         INC     E               
4824: 22         LD      (HLI),A         
4825: 22         LD      (HLI),A         
4826: 5F         LD      E,A             
4827: 41         LD      B,C             
4828: FF         RST     0X38            
4829: ED         ???                     
482A: DF         RST     0X18            
482B: BD         CP      L               
482C: AB         XOR     E               
482D: 9B         SBC     E               
482E: A8         XOR     B               
482F: 98         SBC     B               
4830: E8 98      ADD     SP,$98          
4832: CB BB      SET     1,E             
4834: 9D         SBC     L               
4835: FD         ???                     
4836: ED         ???                     
4837: ED         ???                     
4838: 73         LD      (HL),E          
4839: 41         LD      B,C             
483A: 3E 22      LD      A,$22           
483C: 1C         INC     E               
483D: 1C         INC     E               
483E: 00         NOP                     
483F: 00         NOP                     
4840: 18 18      JR      $485A           
4842: 2C         INC     L               
4843: 24         INC     H               
4844: 2C         INC     L               
4845: 24         INC     H               
4846: 2C         INC     L               
4847: 24         INC     H               
4848: 2C         INC     L               
4849: 24         INC     H               
484A: 2C         INC     L               
484B: 24         INC     H               
484C: 2C         INC     L               
484D: 24         INC     H               
484E: 2C         INC     L               
484F: 24         INC     H               
4850: 2C         INC     L               
4851: 24         INC     H               
4852: EF         RST     0X28            
4853: E7         RST     0X20            
4854: FF         RST     0X38            
4855: BD         CP      L               
4856: 7E         LD      A,(HL)          
4857: 42         LD      B,D             
4858: 3C         INC     A               
4859: 3C         INC     A               
485A: 24         INC     H               
485B: 3C         INC     A               
485C: 24         INC     H               
485D: 3C         INC     A               
485E: 18 18      JR      $4878           
4860: 00         NOP                     
4861: 00         NOP                     
4862: 00         NOP                     
4863: 00         NOP                     
4864: 00         NOP                     
4865: 00         NOP                     
4866: E7         RST     0X20            
4867: E7         RST     0X20            
4868: FF         RST     0X38            
4869: BD         CP      L               
486A: FF         RST     0X38            
486B: 81         ADD     A,C             
486C: FF         RST     0X38            
486D: BD         CP      L               
486E: E7         RST     0X20            
486F: BD         CP      L               
4870: E7         RST     0X20            
4871: BD         CP      L               
4872: E7         RST     0X20            
4873: BD         CP      L               
4874: FF         RST     0X38            
4875: 99         SBC     C               
4876: 7E         LD      A,(HL)          
4877: 42         LD      B,D             
4878: 3C         INC     A               
4879: 3C         INC     A               
487A: 00         NOP                     
487B: 00         NOP                     
487C: 00         NOP                     
487D: 00         NOP                     
487E: 00         NOP                     
487F: 00         NOP                     
4880: 00         NOP                     
4881: 00         NOP                     
4882: 0E 0E      LD      C,$0E           
4884: 1E 12      LD      E,$12           
4886: 3E 26      LD      A,$26           
4888: 7A         LD      A,D             
4889: 4A         LD      C,D             
488A: 72         LD      (HL),D          
488B: 52         LD      D,D             
488C: 72         LD      (HL),D          
488D: 52         LD      D,D             
488E: 72         LD      (HL),D          
488F: 52         LD      D,D             
4890: 72         LD      (HL),D          
4891: 52         LD      D,D             
4892: 72         LD      (HL),D          
4893: 52         LD      D,D             
4894: 72         LD      (HL),D          
4895: 52         LD      D,D             
4896: 7A         LD      A,D             
4897: 4A         LD      C,D             
4898: 3E 26      LD      A,$26           
489A: 1E 12      LD      E,$12           
489C: 0E 0E      LD      C,$0E           
489E: 00         NOP                     
489F: 00         NOP                     
48A0: 08 08 14   LD      ($1408),SP      
48A3: 14         INC     D               
48A4: 2A         LD      A,(HLI)         
48A5: 22         LD      (HLI),A         
48A6: 55         LD      D,L             
48A7: 49         LD      C,C             
48A8: 63         LD      H,E             
48A9: 5D         LD      E,L             
48AA: 36 3E      LD      (HL),$3E        
48AC: 08 08 08   LD      ($0808),SP      
48AF: 08 10 10   LD      ($1010),SP      
48B2: 10 10      STOP    $10             
48B4: 08 08 1C   LD      ($1C08),SP      
48B7: 1C         INC     E               
48B8: 3A         LD      A,(HLD)         
48B9: 26 22      LD      H,$22           
48BB: 3E 22      LD      A,$22           
48BD: 3E 3E      LD      A,$3E           
48BF: 3E 1C      LD      A,$1C           
48C1: 1C         INC     E               
48C2: 3E 22      LD      A,$22           
48C4: 7F         LD      A,A             
48C5: 63         LD      H,E             
48C6: 7F         LD      A,A             
48C7: 41         LD      B,C             
48C8: 22         LD      (HLI),A         
48C9: 3E 1C      LD      A,$1C           
48CB: 1C         INC     E               
48CC: 3E 22      LD      A,$22           
48CE: 3E 36      LD      A,$36           
48D0: 1C         INC     E               
48D1: 1C         INC     E               
48D2: 1C         INC     E               
48D3: 14         INC     D               
48D4: 1C         INC     E               
48D5: 14         INC     D               
48D6: 1C         INC     E               
48D7: 14         INC     D               
48D8: 1C         INC     E               
48D9: 14         INC     D               
48DA: 1C         INC     E               
48DB: 14         INC     D               
48DC: 1C         INC     E               
48DD: 1C         INC     E               
48DE: 00         NOP                     
48DF: 00         NOP                     
48E0: 00         NOP                     
48E1: 00         NOP                     
48E2: DB         ???                     
48E3: DB         ???                     
48E4: FF         RST     0X38            
48E5: A5         AND     L               
48E6: DB         ???                     
48E7: A5         AND     L               
48E8: 76         HALT                    
48E9: 4A         LD      C,D             
48EA: 3C         INC     A               
48EB: 3C         INC     A               
48EC: 34         INC     (HL)            
48ED: 2C         INC     L               
48EE: 76         HALT                    
48EF: 4A         LD      C,D             
48F0: D5         PUSH    DE              
48F1: 8B         ADC     A,E             
48F2: DD         ???                     
48F3: 83         ADD     A,E             
48F4: FD         ???                     
48F5: 83         ADD     A,E             
48F6: FD         ???                     
48F7: 83         ADD     A,E             
48F8: A9         XOR     C               
48F9: D7         RST     0X10            
48FA: 66         LD      H,(HL)          
48FB: 7E         LD      A,(HL)          
48FC: 3C         INC     A               
48FD: 3C         INC     A               
48FE: 00         NOP                     
48FF: 00         NOP                     
4900: 00         NOP                     
4901: 00         NOP                     
4902: 0E 0E      LD      C,$0E           
4904: 1F         RRA                     
4905: 11 3F 21   LD      DE,$213F        
4908: 3F         CCF                     
4909: 29         ADD     HL,HL           
490A: 7F         LD      A,A             
490B: 41         LD      B,C             
490C: 7D         LD      A,L             
490D: 53         LD      D,E             
490E: FD         ???                     
490F: 83         ADD     A,E             
4910: F9         LD      SP,HL           
4911: 97         SUB     A               
4912: FA 86 F2   LD      A,($F286)       
4915: AE         XOR     (HL)            
4916: E4         ???                     
4917: 9C         SBC     H               
4918: 8C         ADC     A,H             
4919: FC         ???                     
491A: 76         HALT                    
491B: 7A         LD      A,D             
491C: 0E 0E      LD      C,$0E           
491E: 00         NOP                     
491F: 00         NOP                     
4920: 07         RLCA                    
4921: 07         RLCA                    
4922: 09         ADD     HL,BC           
4923: 0F         RRCA                    
4924: 11 1F 21   LD      DE,$211F        
4927: 3F         CCF                     
4928: 39         ADD     HL,SP           
4929: 27         DAA                     
492A: 75         LD      (HL),L          
492B: 4B         LD      C,E             
492C: 77         LD      (HL),A          
492D: 49         LD      C,C             
492E: 6F         LD      L,A             
492F: 51         LD      D,C             
4930: 6E         LD      L,(HL)          
4931: 56         LD      D,(HL)          
4932: 5E         LD      E,(HL)          
4933: 62         LD      H,D             
4934: 5C         LD      E,H             
4935: 64         LD      H,H             
4936: 78         LD      A,B             
4937: 78         LD      A,B             
4938: 70         LD      (HL),B          
4939: 50         LD      D,B             
493A: 70         LD      (HL),B          
493B: 50         LD      D,B             
493C: 70         LD      (HL),B          
493D: 50         LD      D,B             
493E: 20 20      JR      NZ,$4960        
4940: 1C         INC     E               
4941: 1C         INC     E               
4942: 3A         LD      A,(HLD)         
4943: 26 7D      LD      H,$7D           
4945: 5B         LD      E,E             
4946: 7D         LD      A,L             
4947: 5B         LD      E,E             
4948: 7D         LD      A,L             
4949: 5B         LD      E,E             
494A: 7B         LD      A,E             
494B: 47         LD      B,A             
494C: 3F         CCF                     
494D: 3D         DEC     A               
494E: 3F         CCF                     
494F: 25         DEC     H               
4950: 7F         LD      A,A             
4951: 59         LD      E,C             
4952: 7F         LD      A,A             
4953: 41         LD      B,C             
4954: FF         RST     0X38            
4955: 81         ADD     A,C             
4956: FF         RST     0X38            
4957: 91         SUB     C               
4958: EF         RST     0X28            
4959: A9         XOR     C               
495A: C7         RST     0X00            
495B: C5         PUSH    BC              
495C: 03         INC     BC              
495D: 03         INC     BC              
495E: 00         NOP                     
495F: 00         NOP                     
4960: 00         NOP                     
4961: 00         NOP                     
4962: 7E         LD      A,(HL)          
4963: 7E         LD      A,(HL)          
4964: 7E         LD      A,(HL)          
4965: 42         LD      B,D             
4966: 66         LD      H,(HL)          
4967: 7E         LD      A,(HL)          
4968: 3C         INC     A               
4969: 24         INC     H               
496A: 3C         INC     A               
496B: 24         INC     H               
496C: 3C         INC     A               
496D: 3C         INC     A               
496E: FF         RST     0X38            
496F: E7         RST     0X20            
4970: FF         RST     0X38            
4971: A5         AND     L               
4972: DB         ???                     
4973: BD         CP      L               
4974: C3 BD E7   JP      $E7BD           
4977: 99         SBC     C               
4978: 7E         LD      A,(HL)          
4979: 42         LD      B,D             
497A: 3C         INC     A               
497B: 24         INC     H               
497C: 18 18      JR      $4996           
497E: 00         NOP                     
497F: 00         NOP                     
4980: 00         NOP                     
4981: 00         NOP                     
4982: 7F         LD      A,A             
4983: 7F         LD      A,A             
4984: 5F         LD      E,A             
4985: 41         LD      B,C             
4986: 7F         LD      A,A             
4987: 41         LD      B,C             
4988: 3F         CCF                     
4989: 3F         CCF                     
498A: 1F         RRA                     
498B: 15         DEC     D               
498C: 1F         RRA                     
498D: 1D         DEC     E               
498E: 1F         RRA                     
498F: 15         DEC     D               
4990: 1F         RRA                     
4991: 15         DEC     D               
4992: 3F         CCF                     
4993: 3D         DEC     A               
4994: 7F         LD      A,A             
4995: 41         LD      B,C             
4996: FF         RST     0X38            
4997: 81         ADD     A,C             
4998: FF         RST     0X38            
4999: 85         ADD     A,L             
499A: 7B         LD      A,E             
499B: 7B         LD      A,E             
499C: 00         NOP                     
499D: 00         NOP                     
499E: 00         NOP                     
499F: 00         NOP                     
49A0: 01 01 1A   LD      BC,$1A01        
49A3: 1A         LD      A,(DE)          
49A4: 3F         CCF                     
49A5: 27         DAA                     
49A6: 41         LD      B,C             
49A7: 7F         LD      A,A             
49A8: 40         LD      B,B             
49A9: 7F         LD      A,A             
49AA: 41         LD      B,C             
49AB: 7F         LD      A,A             
49AC: 27         DAA                     
49AD: 3E 1F      LD      A,$1F           
49AF: 18 07      JR      $49B8           
49B1: 04         INC     B               
49B2: 0F         RRCA                    
49B3: 09         ADD     HL,BC           
49B4: 0F         RRCA                    
49B5: 0A         LD      A,(BC)          
49B6: 07         RLCA                    
49B7: 04         INC     B               
49B8: 03         INC     BC              
49B9: 03         INC     BC              
49BA: 06 05      LD      B,$05           
49BC: 07         RLCA                    
49BD: 07         RLCA                    
49BE: 00         NOP                     
49BF: 00         NOP                     
49C0: 80         ADD     A,B             
49C1: 80         ADD     A,B             
49C2: 70         LD      (HL),B          
49C3: 70         LD      (HL),B          
49C4: 30 70      JR      NC,$4A36        
49C6: 18 78      JR      $4A40           
49C8: 18 F8      JR      $49C2           
49CA: 90         SUB     B               
49CB: 70         LD      (HL),B          
49CC: B0         OR      B               
49CD: 70         LD      (HL),B          
49CE: 40         LD      B,B             
49CF: C0         RET     NZ              
49D0: 74         LD      (HL),H          
49D1: FC         ???                     
49D2: 7C         LD      A,H             
49D3: F4         ???                     
49D4: 7C         LD      A,H             
49D5: E4         ???                     
49D6: FC         ???                     
49D7: 04         INC     B               
49D8: F8 C8      LDHL    SP,$C8          
49DA: 30 F0      JR      NC,$49CC        
49DC: E0 E0      LDFF00  ($E0),A         
49DE: 00         NOP                     
49DF: 00         NOP                     
49E0: 00         NOP                     
49E1: 00         NOP                     
49E2: 06 06      LD      B,$06           
49E4: 0E 0A      LD      C,$0A           
49E6: 1E 1E      LD      E,$1E           
49E8: 36 22      LD      (HL),$22        
49EA: 7F         LD      A,A             
49EB: 79         LD      A,C             
49EC: 7F         LD      A,A             
49ED: 45         LD      B,L             
49EE: CF         RST     0X08            
49EF: 83         ADD     A,E             
49F0: FF         RST     0X38            
49F1: 81         ADD     A,C             
49F2: EF         RST     0X28            
49F3: 9D         SBC     L               
49F4: FF         RST     0X38            
49F5: BD         CP      L               
49F6: FE A2      CP      $A2             
49F8: FC         ???                     
49F9: BC         CP      H               
49FA: E0 A0      LDFF00  ($A0),A         
49FC: C0         RET     NZ              
49FD: C0         RET     NZ              
49FE: 00         NOP                     
49FF: 00         NOP                     
4A00: 7E         LD      A,(HL)          
4A01: 7E         LD      A,(HL)          
4A02: 4E         LD      C,(HL)          
4A03: 42         LD      B,D             
4A04: 7E         LD      A,(HL)          
4A05: 7E         LD      A,(HL)          
4A06: 2C         INC     L               
4A07: 24         INC     H               
4A08: 2C         INC     L               
4A09: 24         INC     H               
4A0A: 2C         INC     L               
4A0B: 24         INC     H               
4A0C: 2C         INC     L               
4A0D: 24         INC     H               
4A0E: 2C         INC     L               
4A0F: 24         INC     H               
4A10: 7E         LD      A,(HL)          
4A11: 42         LD      B,D             
4A12: CF         RST     0X08            
4A13: 81         ADD     A,C             
4A14: A5         AND     L               
4A15: DF         RST     0X18            
4A16: 8D         ADC     A,L             
4A17: FF         RST     0X38            
4A18: B9         CP      C               
4A19: FF         RST     0X38            
4A1A: 42         LD      B,D             
4A1B: 7E         LD      A,(HL)          
4A1C: 3C         INC     A               
4A1D: 3C         INC     A               
4A1E: 00         NOP                     
4A1F: 00         NOP                     
4A20: 00         NOP                     
4A21: 00         NOP                     
4A22: 00         NOP                     
4A23: 00         NOP                     
4A24: 00         NOP                     
4A25: 00         NOP                     
4A26: 00         NOP                     
4A27: 00         NOP                     
4A28: 00         NOP                     
4A29: 00         NOP                     
4A2A: 00         NOP                     
4A2B: 00         NOP                     
4A2C: 00         NOP                     
4A2D: 00         NOP                     
4A2E: 00         NOP                     
4A2F: 00         NOP                     
4A30: 00         NOP                     
4A31: 00         NOP                     
4A32: 00         NOP                     
4A33: 18 00      JR      $4A35           
4A35: 3C         INC     A               
4A36: 00         NOP                     
4A37: 7E         LD      A,(HL)          
4A38: 00         NOP                     
4A39: FF         RST     0X38            
4A3A: 00         NOP                     
4A3B: 3C         INC     A               
4A3C: 00         NOP                     
4A3D: 3C         INC     A               
4A3E: 00         NOP                     
4A3F: 00         NOP                     
4A40: 00         NOP                     
4A41: 00         NOP                     
4A42: 00         NOP                     
4A43: 00         NOP                     
4A44: 0F         RRCA                    
4A45: 0F         RRCA                    
4A46: 17         RLA                     
4A47: 19         ADD     HL,DE           
4A48: 2D         DEC     L               
4A49: 33         INC     SP              
4A4A: 5A         LD      E,D             
4A4B: 66         LD      H,(HL)          
4A4C: B4         OR      H               
4A4D: CC F8 88   CALL    Z,$88F8         
4A50: F8 88      LDHL    SP,$88          
4A52: B4         OR      H               
4A53: CC 5A 66   CALL    Z,$665A         
4A56: 2D         DEC     L               
4A57: 33         INC     SP              
4A58: 17         RLA                     
4A59: 19         ADD     HL,DE           
4A5A: 0F         RRCA                    
4A5B: 0F         RRCA                    
4A5C: 00         NOP                     
4A5D: 00         NOP                     
4A5E: 00         NOP                     
4A5F: 00         NOP                     
4A60: 00         NOP                     
4A61: 00         NOP                     
4A62: 10 10      STOP    $10             
4A64: 38 28      JR      C,$4A8E         
4A66: 7C         LD      A,H             
4A67: 44         LD      B,H             
4A68: FE C6      CP      $C6             
4A6A: FE AA      CP      $AA             
4A6C: FE 92      CP      $92             
4A6E: FE 92      CP      $92             
4A70: FE 92      CP      $92             
4A72: FE 92      CP      $92             
4A74: FE AA      CP      $AA             
4A76: FE C6      CP      $C6             
4A78: 7C         LD      A,H             
4A79: 44         LD      B,H             
4A7A: 38 28      JR      C,$4AA4         
4A7C: 10 10      STOP    $10             
4A7E: 00         NOP                     
4A7F: 00         NOP                     
4A80: 00         NOP                     
4A81: 00         NOP                     
4A82: 00         NOP                     
4A83: 00         NOP                     
4A84: 00         NOP                     
4A85: 00         NOP                     
4A86: 00         NOP                     
4A87: 00         NOP                     
4A88: 00         NOP                     
4A89: 00         NOP                     
4A8A: 00         NOP                     
4A8B: 00         NOP                     
4A8C: 00         NOP                     
4A8D: 00         NOP                     
4A8E: 00         NOP                     
4A8F: 00         NOP                     
4A90: 00         NOP                     
4A91: 00         NOP                     
4A92: 6C         LD      L,H             
4A93: 6C         LD      L,H             
4A94: FE 92      CP      $92             
4A96: D6 AA      SUB     $AA             
4A98: C6 BA      ADD     $BA             
4A9A: 6C         LD      L,H             
4A9B: 54         LD      D,H             
4A9C: 38 28      JR      C,$4AC6         
4A9E: 10 10      STOP    $10             
4AA0: 00         NOP                     
4AA1: 00         NOP                     
4AA2: 00         NOP                     
4AA3: 00         NOP                     
4AA4: 1C         INC     E               
4AA5: 1C         INC     E               
4AA6: 3E 22      LD      A,$22           
4AA8: 71         LD      (HL),C          
4AA9: 4F         LD      C,A             
4AAA: 60         LD      H,B             
4AAB: 5F         LD      E,A             
4AAC: 60         LD      H,B             
4AAD: 5F         LD      E,A             
4AAE: 40         LD      B,B             
4AAF: 7F         LD      A,A             
4AB0: 20 3F      JR      NZ,$4AF1        
4AB2: 10 1F      STOP    $1F             
4AB4: 08 0F 04   LD      ($040F),SP      
4AB7: 07         RLCA                    
4AB8: 02         LD      (BC),A          
4AB9: 03         INC     BC              
4ABA: 01 01 00   LD      BC,$0001        
4ABD: 00         NOP                     
4ABE: 00         NOP                     
4ABF: 00         NOP                     
4AC0: 00         NOP                     
4AC1: 00         NOP                     
4AC2: 1C         INC     E               
4AC3: 00         NOP                     
4AC4: 3E 1C      LD      A,$1C           
4AC6: 7F         LD      A,A             
4AC7: 3E FF      LD      A,$FF           
4AC9: 7F         LD      A,A             
4ACA: FF         RST     0X38            
4ACB: 79         LD      A,C             
4ACC: F9         LD      SP,HL           
4ACD: 76         HALT                    
4ACE: F8 77      LDHL    SP,$77          
4AD0: F8 77      LDHL    SP,$77          
4AD2: 7C         LD      A,H             
4AD3: 3B         DEC     SP              
4AD4: 3E 1D      LD      A,$1D           
4AD6: 1F         RRA                     
4AD7: 0E 0F      LD      C,$0F           
4AD9: 07         RLCA                    
4ADA: 07         RLCA                    
4ADB: 03         INC     BC              
4ADC: 03         INC     BC              
4ADD: 01 01 00   LD      BC,$0001        
4AE0: 18 18      JR      $4AFA           
4AE2: 3C         INC     A               
4AE3: 24         INC     H               
4AE4: 3C         INC     A               
4AE5: 3C         INC     A               
4AE6: 42         LD      B,D             
4AE7: 7E         LD      A,(HL)          
4AE8: A1         AND     C               
4AE9: DF         RST     0X18            
4AEA: 81         ADD     A,C             
4AEB: FF         RST     0X38            
4AEC: FF         RST     0X38            
4AED: FF         RST     0X38            
4AEE: F9         LD      SP,HL           
4AEF: 87         ADD     A,A             
4AF0: D9         RETI                    
4AF1: 87         ADD     A,A             
4AF2: D9         RETI                    
4AF3: 87         ADD     A,A             
4AF4: F9         LD      SP,HL           
4AF5: 87         ADD     A,A             
4AF6: 7A         LD      A,D             
4AF7: 46         LD      B,(HL)          
4AF8: 72         LD      (HL),D          
4AF9: 4E         LD      C,(HL)          
4AFA: 24         INC     H               
4AFB: 3C         INC     A               
4AFC: 18 18      JR      $4B16           
4AFE: 00         NOP                     
4AFF: 00         NOP                     
4B00: 00         NOP                     
4B01: 00         NOP                     
4B02: 3C         INC     A               
4B03: 3C         INC     A               
4B04: 66         LD      H,(HL)          
4B05: 66         LD      H,(HL)          
4B06: 66         LD      H,(HL)          
4B07: 66         LD      H,(HL)          
4B08: 66         LD      H,(HL)          
4B09: 66         LD      H,(HL)          
4B0A: 66         LD      H,(HL)          
4B0B: 66         LD      H,(HL)          
4B0C: 3C         INC     A               
4B0D: 3C         INC     A               
4B0E: 00         NOP                     
4B0F: 00         NOP                     
4B10: 00         NOP                     
4B11: 00         NOP                     
4B12: 18 18      JR      $4B2C           
4B14: 38 38      JR      C,$4B4E         
4B16: 18 18      JR      $4B30           
4B18: 18 18      JR      $4B32           
4B1A: 18 18      JR      $4B34           
4B1C: 18 18      JR      $4B36           
4B1E: 00         NOP                     
4B1F: 00         NOP                     
4B20: 00         NOP                     
4B21: 00         NOP                     
4B22: 3C         INC     A               
4B23: 3C         INC     A               
4B24: 66         LD      H,(HL)          
4B25: 66         LD      H,(HL)          
4B26: 06 06      LD      B,$06           
4B28: 3C         INC     A               
4B29: 3C         INC     A               
4B2A: 60         LD      H,B             
4B2B: 60         LD      H,B             
4B2C: 7E         LD      A,(HL)          
4B2D: 7E         LD      A,(HL)          
4B2E: 00         NOP                     
4B2F: 00         NOP                     
4B30: 00         NOP                     
4B31: 00         NOP                     
4B32: 3C         INC     A               
4B33: 3C         INC     A               
4B34: 66         LD      H,(HL)          
4B35: 66         LD      H,(HL)          
4B36: 0C         INC     C               
4B37: 0C         INC     C               
4B38: 06 06      LD      B,$06           
4B3A: 66         LD      H,(HL)          
4B3B: 66         LD      H,(HL)          
4B3C: 3C         INC     A               
4B3D: 3C         INC     A               
4B3E: 00         NOP                     
4B3F: 00         NOP                     
4B40: 00         NOP                     
4B41: 00         NOP                     
4B42: 0C         INC     C               
4B43: 0C         INC     C               
4B44: 1C         INC     E               
4B45: 1C         INC     E               
4B46: 3C         INC     A               
4B47: 3C         INC     A               
4B48: 6C         LD      L,H             
4B49: 6C         LD      L,H             
4B4A: 7E         LD      A,(HL)          
4B4B: 7E         LD      A,(HL)          
4B4C: 0C         INC     C               
4B4D: 0C         INC     C               
4B4E: 00         NOP                     
4B4F: 00         NOP                     
4B50: 00         NOP                     
4B51: 00         NOP                     
4B52: 7C         LD      A,H             
4B53: 7C         LD      A,H             
4B54: 60         LD      H,B             
4B55: 60         LD      H,B             
4B56: 7C         LD      A,H             
4B57: 7C         LD      A,H             
4B58: 06 06      LD      B,$06           
4B5A: 06 06      LD      B,$06           
4B5C: 7C         LD      A,H             
4B5D: 7C         LD      A,H             
4B5E: 00         NOP                     
4B5F: 00         NOP                     
4B60: 00         NOP                     
4B61: 00         NOP                     
4B62: 3C         INC     A               
4B63: 3C         INC     A               
4B64: 60         LD      H,B             
4B65: 60         LD      H,B             
4B66: 7C         LD      A,H             
4B67: 7C         LD      A,H             
4B68: 66         LD      H,(HL)          
4B69: 66         LD      H,(HL)          
4B6A: 66         LD      H,(HL)          
4B6B: 66         LD      H,(HL)          
4B6C: 3C         INC     A               
4B6D: 3C         INC     A               
4B6E: 00         NOP                     
4B6F: 00         NOP                     
4B70: 00         NOP                     
4B71: 00         NOP                     
4B72: 7E         LD      A,(HL)          
4B73: 7E         LD      A,(HL)          
4B74: 06 06      LD      B,$06           
4B76: 0C         INC     C               
4B77: 0C         INC     C               
4B78: 18 18      JR      $4B92           
4B7A: 18 18      JR      $4B94           
4B7C: 18 18      JR      $4B96           
4B7E: 00         NOP                     
4B7F: 00         NOP                     
4B80: 00         NOP                     
4B81: 00         NOP                     
4B82: 3C         INC     A               
4B83: 3C         INC     A               
4B84: 66         LD      H,(HL)          
4B85: 66         LD      H,(HL)          
4B86: 3C         INC     A               
4B87: 3C         INC     A               
4B88: 66         LD      H,(HL)          
4B89: 66         LD      H,(HL)          
4B8A: 66         LD      H,(HL)          
4B8B: 66         LD      H,(HL)          
4B8C: 3C         INC     A               
4B8D: 3C         INC     A               
4B8E: 00         NOP                     
4B8F: 00         NOP                     
4B90: 00         NOP                     
4B91: 00         NOP                     
4B92: 3C         INC     A               
4B93: 3C         INC     A               
4B94: 66         LD      H,(HL)          
4B95: 66         LD      H,(HL)          
4B96: 66         LD      H,(HL)          
4B97: 66         LD      H,(HL)          
4B98: 3E 3E      LD      A,$3E           
4B9A: 06 06      LD      B,$06           
4B9C: 3C         INC     A               
4B9D: 3C         INC     A               
4B9E: 00         NOP                     
4B9F: 00         NOP                     
4BA0: 00         NOP                     
4BA1: 00         NOP                     
4BA2: 30 30      JR      NC,$4BD4        
4BA4: 30 30      JR      NC,$4BD6        
4BA6: 30 30      JR      NC,$4BD8        
4BA8: 33         INC     SP              
4BA9: 33         INC     SP              
4BAA: 30 30      JR      NC,$4BDC        
4BAC: 3C         INC     A               
4BAD: 3C         INC     A               
4BAE: 00         NOP                     
4BAF: 00         NOP                     
4BB0: 00         NOP                     
4BB1: 00         NOP                     
4BB2: 33         INC     SP              
4BB3: 33         INC     SP              
4BB4: 4A         LD      C,D             
4BB5: 4A         LD      C,D             
4BB6: 4A         LD      C,D             
4BB7: 4A         LD      C,D             
4BB8: 7A         LD      A,D             
4BB9: 7A         LD      A,D             
4BBA: 4A         LD      C,D             
4BBB: 4A         LD      C,D             
4BBC: 4A         LD      C,D             
4BBD: 4A         LD      C,D             
4BBE: 4A         LD      C,D             
4BBF: 4A         LD      C,D             
4BC0: 02         LD      (BC),A          
4BC1: 02         LD      (BC),A          
4BC2: 02         LD      (BC),A          
4BC3: 02         LD      (BC),A          
4BC4: 02         LD      (BC),A          
4BC5: 02         LD      (BC),A          
4BC6: 02         LD      (BC),A          
4BC7: 02         LD      (BC),A          
4BC8: 02         LD      (BC),A          
4BC9: 02         LD      (BC),A          
4BCA: 02         LD      (BC),A          
4BCB: 02         LD      (BC),A          
4BCC: 03         INC     BC              
4BCD: 03         INC     BC              
4BCE: 00         NOP                     
4BCF: 00         NOP                     
4BD0: 00         NOP                     
4BD1: 00         NOP                     
4BD2: 73         LD      (HL),E          
4BD3: 73         LD      (HL),E          
4BD4: 4A         LD      C,D             
4BD5: 4A         LD      C,D             
4BD6: 4A         LD      C,D             
4BD7: 4A         LD      C,D             
4BD8: 72         LD      (HL),D          
4BD9: 72         LD      (HL),D          
4BDA: 4A         LD      C,D             
4BDB: 4A         LD      C,D             
4BDC: 4A         LD      C,D             
4BDD: 4A         LD      C,D             
4BDE: 72         LD      (HL),D          
4BDF: 72         LD      (HL),D          
4BE0: 00         NOP                     
4BE1: 00         NOP                     
4BE2: C0         RET     NZ              
4BE3: C0         RET     NZ              
4BE4: 40         LD      B,B             
4BE5: 40         LD      B,B             
4BE6: 40         LD      B,B             
4BE7: 40         LD      B,B             
4BE8: 40         LD      B,B             
4BE9: 40         LD      B,B             
4BEA: 40         LD      B,B             
4BEB: 40         LD      B,B             
4BEC: 40         LD      B,B             
4BED: 40         LD      B,B             
4BEE: 40         LD      B,B             
4BEF: 40         LD      B,B             
4BF0: 40         LD      B,B             
4BF1: 40         LD      B,B             
4BF2: 40         LD      B,B             
4BF3: 40         LD      B,B             
4BF4: 40         LD      B,B             
4BF5: 40         LD      B,B             
4BF6: 40         LD      B,B             
4BF7: 40         LD      B,B             
4BF8: 40         LD      B,B             
4BF9: 40         LD      B,B             
4BFA: 40         LD      B,B             
4BFB: 40         LD      B,B             
4BFC: C0         RET     NZ              
4BFD: C0         RET     NZ              
4BFE: 00         NOP                     
4BFF: 00         NOP                     
4C00: 00         NOP                     
4C01: 00         NOP                     
4C02: 60         LD      H,B             
4C03: 60         LD      H,B             
4C04: FC         ???                     
4C05: 9C         SBC     H               
4C06: FE 92      CP      $92             
4C08: 6F         LD      L,A             
4C09: 69         LD      L,C             
4C0A: 0F         RRCA                    
4C0B: 09         ADD     HL,BC           
4C0C: 7F         LD      A,A             
4C0D: 7D         LD      A,L             
4C0E: FE 82      CP      $82             
4C10: FE AA      CP      $AA             
4C12: FE 82      CP      $82             
4C14: 7C         LD      A,H             
4C15: 7C         LD      A,H             
4C16: 38 28      JR      C,$4C40         
4C18: 38 28      JR      C,$4C42         
4C1A: 3E 2E      LD      A,$2E           
4C1C: 3E 2A      LD      A,$2A           
4C1E: 3E 3E      LD      A,$3E           
4C20: 00         NOP                     
4C21: 00         NOP                     
4C22: 0F         RRCA                    
4C23: 0F         RRCA                    
4C24: 1F         RRA                     
4C25: 11 3F 25   LD      DE,$253F        
4C28: 3F         CCF                     
4C29: 21 3F 21   LD      HL,$213F        
4C2C: FE E2      CP      $E2             
4C2E: FC         ???                     
4C2F: 9C         SBC     H               
4C30: 78         LD      A,B             
4C31: 48         LD      C,B             
4C32: 38 28      JR      C,$4C5C         
4C34: 38 38      JR      C,$4C6E         
4C36: 38 28      JR      C,$4C60         
4C38: 38 28      JR      C,$4C62         
4C3A: 78         LD      A,B             
4C3B: 58         LD      E,B             
4C3C: 7C         LD      A,H             
4C3D: 44         LD      B,H             
4C3E: 7C         LD      A,H             
4C3F: 7C         LD      A,H             
4C40: 00         NOP                     
4C41: 00         NOP                     
4C42: 66         LD      H,(HL)          
4C43: 66         LD      H,(HL)          
4C44: FF         RST     0X38            
4C45: 99         SBC     C               
4C46: FF         RST     0X38            
4C47: 81         ADD     A,C             
4C48: FF         RST     0X38            
4C49: A5         AND     L               
4C4A: FF         RST     0X38            
4C4B: A5         AND     L               
4C4C: FF         RST     0X38            
4C4D: 81         ADD     A,C             
4C4E: FF         RST     0X38            
4C4F: 99         SBC     C               
4C50: 7E         LD      A,(HL)          
4C51: 42         LD      B,D             
4C52: 3C         INC     A               
4C53: 3C         INC     A               
4C54: 38 28      JR      C,$4C7E         
4C56: 38 28      JR      C,$4C80         
4C58: 3C         INC     A               
4C59: 2C         INC     L               
4C5A: 3E 2A      LD      A,$2A           
4C5C: 3E 2A      LD      A,$2A           
4C5E: 3E 3E      LD      A,$3E           
4C60: 00         NOP                     
4C61: 00         NOP                     
4C62: 03         INC     BC              
4C63: 03         INC     BC              
4C64: 7F         LD      A,A             
4C65: 7D         LD      A,L             
4C66: FF         RST     0X38            
4C67: 91         SUB     C               
4C68: FF         RST     0X38            
4C69: 95         SUB     L               
4C6A: FF         RST     0X38            
4C6B: B1         OR      C               
4C6C: FF         RST     0X38            
4C6D: A1         AND     C               
4C6E: FE FE      CP      $FE             
4C70: 1C         INC     E               
4C71: 14         INC     D               
4C72: 1C         INC     E               
4C73: 14         INC     D               
4C74: 1C         INC     E               
4C75: 14         INC     D               
4C76: 1F         RRA                     
4C77: 17         RLA                     
4C78: 1F         RRA                     
4C79: 15         DEC     D               
4C7A: 7F         LD      A,A             
4C7B: 77         LD      (HL),A          
4C7C: 7C         LD      A,H             
4C7D: 54         LD      D,H             
4C7E: 7C         LD      A,H             
4C7F: 7C         LD      A,H             
4C80: FF         RST     0X38            
4C81: FF         RST     0X38            
4C82: FF         RST     0X38            
4C83: FF         RST     0X38            
4C84: FF         RST     0X38            
4C85: FF         RST     0X38            
4C86: FF         RST     0X38            
4C87: FF         RST     0X38            
4C88: FF         RST     0X38            
4C89: FF         RST     0X38            
4C8A: F6 F6      OR      $F6             
4C8C: F6 F6      OR      $F6             
4C8E: FF         RST     0X38            
4C8F: FF         RST     0X38            
4C90: FF         RST     0X38            
4C91: FF         RST     0X38            
4C92: FF         RST     0X38            
4C93: FF         RST     0X38            
4C94: FF         RST     0X38            
4C95: FF         RST     0X38            
4C96: FF         RST     0X38            
4C97: FF         RST     0X38            
4C98: FF         RST     0X38            
4C99: FF         RST     0X38            
4C9A: FF         RST     0X38            
4C9B: FF         RST     0X38            
4C9C: F9         LD      SP,HL           
4C9D: F9         LD      SP,HL           
4C9E: F6 F6      OR      $F6             
4CA0: 00         NOP                     
4CA1: 00         NOP                     
4CA2: 1C         INC     E               
4CA3: 1C         INC     E               
4CA4: 3C         INC     A               
4CA5: 24         INC     H               
4CA6: 76         HALT                    
4CA7: 4A         LD      C,D             
4CA8: 76         HALT                    
4CA9: 4A         LD      C,D             
4CAA: EF         RST     0X28            
4CAB: 91         SUB     C               
4CAC: EF         RST     0X28            
4CAD: 91         SUB     C               
4CAE: EF         RST     0X28            
4CAF: 91         SUB     C               
4CB0: EF         RST     0X28            
4CB1: D7         RST     0X10            
4CB2: 6C         LD      L,H             
4CB3: 54         LD      D,H             
4CB4: EF         RST     0X28            
4CB5: D7         RST     0X10            
4CB6: EF         RST     0X28            
4CB7: 91         SUB     C               
4CB8: 6E         LD      L,(HL)          
4CB9: 52         LD      D,D             
4CBA: 3C         INC     A               
4CBB: 3C         INC     A               
4CBC: 10 10      STOP    $10             
4CBE: 18 18      JR      $4CD8           
4CC0: 00         NOP                     
4CC1: 00         NOP                     
4CC2: 00         NOP                     
4CC3: 00         NOP                     
4CC4: FE FE      CP      $FE             
4CC6: FE 82      CP      $82             
4CC8: FE FE      CP      $FE             
4CCA: 00         NOP                     
4CCB: 00         NOP                     
4CCC: 00         NOP                     
4CCD: 00         NOP                     
4CCE: 00         NOP                     
4CCF: 00         NOP                     
4CD0: 00         NOP                     
4CD1: 00         NOP                     
4CD2: 6C         LD      L,H             
4CD3: 00         NOP                     
4CD4: 92         SUB     D               
4CD5: 00         NOP                     
4CD6: 82         ADD     A,D             
4CD7: 00         NOP                     
4CD8: 82         ADD     A,D             
4CD9: 00         NOP                     
4CDA: 44         LD      B,H             
4CDB: 00         NOP                     
4CDC: 28 00      JR      Z,$4CDE         
4CDE: 10 00      STOP    $00             
4CE0: 00         NOP                     
4CE1: 00         NOP                     
4CE2: 6C         LD      L,H             
4CE3: 60         LD      H,B             
4CE4: F2         ???                     
4CE5: 90         SUB     B               
4CE6: D2 A0 C2   JP      NC,$C2A0        
4CE9: B0         OR      B               
4CEA: 64         LD      H,H             
4CEB: 50         LD      D,B             
4CEC: 38 20      JR      C,$4D0E         
4CEE: 10 10      STOP    $10             
4CF0: 00         NOP                     
4CF1: 00         NOP                     
4CF2: 0F         RRCA                    
4CF3: 0F         RRCA                    
4CF4: 11 11 25   LD      DE,$2511        
4CF7: 21 41 4F   LD      HL,$4F41        
4CFA: 42         LD      B,D             
4CFB: 7E         LD      A,(HL)          
4CFC: 44         LD      B,H             
4CFD: 7C         LD      A,H             
4CFE: 78         LD      A,B             
4CFF: 78         LD      A,B             
4D00: 00         NOP                     
4D01: 00         NOP                     
4D02: 00         NOP                     
4D03: 00         NOP                     
4D04: 00         NOP                     
4D05: 00         NOP                     
4D06: 03         INC     BC              
4D07: 03         INC     BC              
4D08: 04         INC     B               
4D09: 04         INC     B               
4D0A: 3D         DEC     A               
4D0B: 3D         DEC     A               
4D0C: 43         LD      B,E             
4D0D: 42         LD      B,D             
4D0E: 97         SUB     A               
4D0F: 95         SUB     L               
4D10: 1E 1E      LD      E,$1E           
4D12: 17         RLA                     
4D13: 11 3F 25   LD      DE,$253F        
4D16: FF         RST     0X38            
4D17: DF         RST     0X18            
4D18: F0 B0      LD      A,($B0)         
4D1A: F0 50      LD      A,($50)         
4D1C: F8 98      LDHL    SP,$98          
4D1E: F8 18      LDHL    SP,$18          
4D20: 00         NOP                     
4D21: 00         NOP                     
4D22: 07         RLCA                    
4D23: 07         RLCA                    
4D24: 1A         LD      A,(DE)          
4D25: 18 25      JR      $4D4C           
4D27: 22         LD      (HLI),A         
4D28: 3B         DEC     SP              
4D29: 26 56      LD      H,$56           
4D2B: 4E         LD      C,(HL)          
4D2C: 55         LD      D,L             
4D2D: 4C         LD      C,H             
4D2E: BB         CP      E               
4D2F: 89         ADC     A,C             
4D30: 00         NOP                     
4D31: 00         NOP                     
4D32: 00         NOP                     
4D33: 00         NOP                     
4D34: 80         ADD     A,B             
4D35: 80         ADD     A,B             
4D36: 40         LD      B,B             
4D37: 40         LD      B,B             
4D38: 60         LD      H,B             
4D39: 60         LD      H,B             
4D3A: D0         RET     NC              
4D3B: 50         LD      D,B             
4D3C: D8         RET     C               
4D3D: 98         SBC     B               
4D3E: 74         LD      (HL),H          
4D3F: 94         SUB     H               
4D40: 00         NOP                     
4D41: 00         NOP                     
4D42: 00         NOP                     
4D43: 00         NOP                     
4D44: 01 01 03   LD      BC,$0301        
4D47: 02         LD      (BC),A          
4D48: 1E 1C      LD      E,$1C           
4D4A: 3B         DEC     SP              
4D4B: 27         DAA                     
4D4C: 77         LD      (HL),A          
4D4D: 4F         LD      C,A             
4D4E: 6F         LD      L,A             
4D4F: 5E         LD      E,(HL)          
4D50: 06 06      LD      B,$06           
4D52: 7B         LD      A,E             
4D53: 79         LD      A,C             
4D54: CF         RST     0X08            
4D55: 85         ADD     A,L             
4D56: 1E 02      LD      E,$02           
4D58: 3E 02      LD      A,$02           
4D5A: BA         CP      D               
4D5B: 06 DA      LD      B,$DA           
4D5D: 86         ADD     A,(HL)          
4D5E: 74         LD      (HL),H          
4D5F: 4C         LD      C,H             
4D60: 3C         INC     A               
4D61: 3C         INC     A               
4D62: 44         LD      B,H             
4D63: 44         LD      B,H             
4D64: 5F         LD      E,A             
4D65: 4F         LD      C,A             
4D66: 60         LD      H,B             
4D67: 41         LD      B,C             
4D68: 3F         CCF                     
4D69: 27         DAA                     
4D6A: 1A         LD      A,(DE)          
4D6B: 18 0A      JR      $4D77           
4D6D: 00         NOP                     
4D6E: 0A         LD      A,(BC)          
4D6F: 00         NOP                     
4D70: 00         NOP                     
4D71: 00         NOP                     
4D72: 00         NOP                     
4D73: 00         NOP                     
4D74: 80         ADD     A,B             
4D75: 80         ADD     A,B             
4D76: C0         RET     NZ              
4D77: 40         LD      B,B             
4D78: 60         LD      H,B             
4D79: A0         AND     B               
4D7A: B0         OR      B               
4D7B: D0         RET     NC              
4D7C: D8         RET     C               
4D7D: 68         LD      L,B             
4D7E: AC         XOR     H               
4D7F: 34         INC     (HL)            
4D80: 01 01 03   LD      BC,$0301        
4D83: 02         LD      (BC),A          
4D84: 07         RLCA                    
4D85: 06 0F      LD      B,$0F           
4D87: 09         ADD     HL,BC           
4D88: 1F         RRA                     
4D89: 18 3F      JR      $4DCA           
4D8B: 24         INC     H               
4D8C: 7F         LD      A,A             
4D8D: 62         LD      H,D             
4D8E: FF         RST     0X38            
4D8F: 91         SUB     C               
4D90: 80         ADD     A,B             
4D91: 80         ADD     A,B             
4D92: C0         RET     NZ              
4D93: 40         LD      B,B             
4D94: E0 20      LDFF00  ($20),A         
4D96: F0 10      LD      A,($10)         
4D98: F8 88      LDHL    SP,$88          
4D9A: FC         ???                     
4D9B: 44         LD      B,H             
4D9C: FE 26      CP      $26             
4D9E: F9         LD      SP,HL           
4D9F: 39         ADD     HL,SP           
4DA0: 06 06      LD      B,$06           
4DA2: 05         DEC     B               
4DA3: 05         DEC     B               
4DA4: 07         RLCA                    
4DA5: 04         INC     B               
4DA6: 03         INC     BC              
4DA7: 02         LD      (BC),A          
4DA8: 03         INC     BC              
4DA9: 02         LD      (BC),A          
4DAA: 07         RLCA                    
4DAB: 05         DEC     B               
4DAC: 07         RLCA                    
4DAD: 05         DEC     B               
4DAE: 0E 0A      LD      C,$0A           
4DB0: B0         OR      B               
4DB1: B0         OR      B               
4DB2: 5C         LD      E,H             
4DB3: 5C         LD      E,H             
4DB4: F2         ???                     
4DB5: 12         LD      (DE),A          
4DB6: E9         JP      (HL)            
4DB7: A9         XOR     C               
4DB8: E5         PUSH    HL              
4DB9: 25         DEC     H               
4DBA: F3         DI                      
4DBB: D3         ???                     
4DBC: 70         LD      (HL),B          
4DBD: 50         LD      D,B             
4DBE: 38 28      JR      C,$4DE8         
4DC0: 00         NOP                     
4DC1: 00         NOP                     
4DC2: 07         RLCA                    
4DC3: 07         RLCA                    
4DC4: 0C         INC     C               
4DC5: 08 1F 10   LD      ($101F),SP      
4DC8: 34         INC     (HL)            
4DC9: 2A         LD      A,(HLI)         
4DCA: 61         LD      H,C             
4DCB: 5D         LD      E,L             
4DCC: 43         LD      B,E             
4DCD: 7B         LD      A,E             
4DCE: 47         LD      B,A             
4DCF: 77         LD      (HL),A          
4DD0: 00         NOP                     
4DD1: 00         NOP                     
4DD2: F0 F0      LD      A,($F0)         
4DD4: 38 38      JR      C,$4E0E         
4DD6: 74         LD      (HL),H          
4DD7: 74         LD      (HL),H          
4DD8: FA FA D9   LD      A,($D9FA)       
4DDB: D9         RETI                    
4DDC: E5         PUSH    HL              
4DDD: E5         PUSH    HL              
4DDE: 63         LD      H,E             
4DDF: 63         LD      H,E             
4DE0: 00         NOP                     
4DE1: 00         NOP                     
4DE2: 07         RLCA                    
4DE3: 07         RLCA                    
4DE4: 18 18      JR      $4DFE           
4DE6: 27         DAA                     
4DE7: 20 5F      JR      NZ,$4E48        
4DE9: 41         LD      B,C             
4DEA: 5E         LD      E,(HL)          
4DEB: 42         LD      B,D             
4DEC: 5F         LD      E,A             
4DED: 43         LD      B,E             
4DEE: 67         LD      H,A             
4DEF: 61         LD      H,C             
4DF0: 1C         INC     E               
4DF1: 1C         INC     E               
4DF2: EA EA 56   LD      ($56EA),A       
4DF5: 52         LD      D,D             
4DF6: AC         XOR     H               
4DF7: A4         AND     H               
4DF8: 5C         LD      E,H             
4DF9: 4C         LD      C,H             
4DFA: BA         CP      D               
4DFB: 92         SUB     D               
4DFC: 7A         LD      A,D             
4DFD: 22         LD      (HLI),A         
4DFE: E6 C6      AND     $C6             
4E00: BF         CP      A               
4E01: BA         CP      D               
4E02: AF         XOR     A               
4E03: AC         XOR     H               
4E04: 8F         ADC     A,A             
4E05: 80         ADD     A,B             
4E06: 9F         SBC     A               
4E07: 83         ADD     A,E             
4E08: FD         ???                     
4E09: C6 7F      ADD     $7F             
4E0B: 60         LD      H,B             
4E0C: FF         RST     0X38            
4E0D: 7F         LD      A,A             
4E0E: FF         RST     0X38            
4E0F: 9F         SBC     A               
4E10: F8 78      LDHL    SP,$78          
4E12: F0 30      LD      A,($30)         
4E14: E0 20      LDFF00  ($20),A         
4E16: E0 20      LDFF00  ($20),A         
4E18: E0 20      LDFF00  ($20),A         
4E1A: F8 60      LDHL    SP,$60          
4E1C: FC         ???                     
4E1D: C0         RET     NZ              
4E1E: F8 80      LDHL    SP,$80          
4E20: 87         ADD     A,A             
4E21: 82         ADD     A,D             
4E22: 7E         LD      A,(HL)          
4E23: 7D         LD      A,L             
4E24: 13         INC     DE              
4E25: 1C         INC     E               
4E26: 11 1E 38   LD      DE,$381E        
4E29: 0F         RRCA                    
4E2A: 78         LD      A,B             
4E2B: 0F         RRCA                    
4E2C: 7F         LD      A,A             
4E2D: 07         RLCA                    
4E2E: 3F         CCF                     
4E2F: 00         NOP                     
4E30: 97         SUB     A               
4E31: 77         LD      (HL),A          
4E32: FF         RST     0X38            
4E33: 15         DEC     D               
4E34: 17         RLA                     
4E35: FF         RST     0X38            
4E36: D4 3C 3C   CALL    NC,$3C3C        
4E39: F8 7E      LDHL    SP,$7E          
4E3B: C0         RET     NZ              
4E3C: FE 80      CP      $80             
4E3E: FC         ???                     
4E3F: 00         NOP                     
4E40: 6E         LD      L,(HL)          
4E41: 5E         LD      E,(HL)          
4E42: 76         HALT                    
4E43: 4F         LD      C,A             
4E44: 29         ADD     HL,HL           
4E45: 27         DAA                     
4E46: 73         LD      (HL),E          
4E47: 20 F8      JR      NZ,$4E41        
4E49: 10 FC      STOP    $FC             
4E4B: 0C         INC     C               
4E4C: 7F         LD      A,A             
4E4D: 03         INC     BC              
4E4E: 1F         RRA                     
4E4F: 00         NOP                     
4E50: 74         LD      (HL),H          
4E51: 2C         INC     L               
4E52: B8         CP      B               
4E53: 68         LD      L,B             
4E54: F8 D0      LDHL    SP,$D0          
4E56: DC 10 1E   CALL    C,$1E10         
4E59: 10 3E      STOP    $3E             
4E5B: 20 FC      JR      NZ,$4E59        
4E5D: C0         RET     NZ              
4E5E: F8 00      LDHL    SP,$00          
4E60: 0A         LD      A,(BC)          
4E61: 00         NOP                     
4E62: 0A         LD      A,(BC)          
4E63: 00         NOP                     
4E64: 0A         LD      A,(BC)          
4E65: 00         NOP                     
4E66: 0A         LD      A,(BC)          
4E67: 00         NOP                     
4E68: 3F         CCF                     
4E69: 35         DEC     (HL)            
4E6A: CA 55 CF   JP      Z,$CF55         
4E6D: 7F         LD      A,A             
4E6E: 7F         LD      A,A             
4E6F: 70         LD      (HL),B          
4E70: B6         OR      (HL)            
4E71: 1A         LD      A,(DE)          
4E72: AA         XOR     D               
4E73: 0E A7      LD      C,$A7           
4E75: 05         DEC     B               
4E76: A5         AND     L               
4E77: 07         RLCA                    
4E78: A5         AND     L               
4E79: 07         RLCA                    
4E7A: FD         ???                     
4E7B: 5B         LD      E,E             
4E7C: 0B         DEC     BC              
4E7D: F6 FE      OR      $FE             
4E7F: FC         ???                     
4E80: FF         RST     0X38            
4E81: 89         ADC     A,C             
4E82: 7E         LD      A,(HL)          
4E83: 4E         LD      C,(HL)          
4E84: B3         OR      E               
4E85: F3         DI                      
4E86: 9F         SBC     A               
4E87: FE BA      CP      $BA             
4E89: C7         RST     0X00            
4E8A: C7         RST     0X00            
4E8B: 7F         LD      A,A             
4E8C: 7F         LD      A,A             
4E8D: 38 1F      JR      C,$4EAE         
4E8F: 00         NOP                     
4E90: CF         RST     0X08            
4E91: CF         RST     0X08            
4E92: 7F         LD      A,A             
4E93: 79         LD      A,C             
4E94: F9         LD      SP,HL           
4E95: CF         RST     0X08            
4E96: CF         RST     0X08            
4E97: 7E         LD      A,(HL)          
4E98: 7E         LD      A,(HL)          
4E99: F0 FC      LD      A,($FC)         
4E9B: 80         ADD     A,B             
4E9C: F8 00      LDHL    SP,$00          
4E9E: C0         RET     NZ              
4E9F: 00         NOP                     
4EA0: 0E 0A      LD      C,$0A           
4EA2: 1C         INC     E               
4EA3: 14         INC     D               
4EA4: 1C         INC     E               
4EA5: 14         INC     D               
4EA6: 7F         LD      A,A             
4EA7: 28 FF      JR      Z,$4EA8         
4EA9: 2F         CPL                     
4EAA: DF         RST     0X18            
4EAB: 40         LD      B,B             
4EAC: FF         RST     0X38            
4EAD: 7F         LD      A,A             
4EAE: 7F         LD      A,A             
4EAF: 00         NOP                     
4EB0: 38 28      JR      C,$4EDA         
4EB2: 1C         INC     E               
4EB3: 14         INC     D               
4EB4: 1C         INC     E               
4EB5: 14         INC     D               
4EB6: FE 08      CP      $08             
4EB8: FF         RST     0X38            
4EB9: FE FF      CP      $FF             
4EBB: 02         LD      (BC),A          
4EBC: FF         RST     0X38            
4EBD: FE FE      CP      $FE             
4EBF: 00         NOP                     
4EC0: CF         RST     0X08            
4EC1: 6F         LD      L,A             
4EC2: DD         ???                     
4EC3: 5D         LD      E,L             
4EC4: FE 7E      CP      $7E             
4EC6: E6 66      AND     $66             
4EC8: D1         POP     DE              
4EC9: 71         LD      (HL),C          
4ECA: 68         LD      L,B             
4ECB: 38 77      JR      C,$4F44         
4ECD: 1F         RRA                     
4ECE: 3F         CCF                     
4ECF: 0F         RRCA                    
4ED0: 95         SUB     L               
4ED1: 97         SUB     A               
4ED2: 8B         ADC     A,E             
4ED3: 8E         ADC     A,(HL)          
4ED4: 57         LD      D,A             
4ED5: 5C         LD      E,H             
4ED6: 2E 38      LD      L,$38           
4ED8: 5E         LD      E,(HL)          
4ED9: 70         LD      (HL),B          
4EDA: BC         CP      H               
4EDB: E0 78      LDFF00  ($78),A         
4EDD: C0         RET     NZ              
4EDE: E0 80      LDFF00  ($80),A         
4EE0: 58         LD      E,B             
4EE1: 58         LD      E,B             
4EE2: 67         LD      H,A             
4EE3: 67         LD      H,A             
4EE4: 58         LD      E,B             
4EE5: 58         LD      E,B             
4EE6: 47         LD      B,A             
4EE7: 4F         LD      C,A             
4EE8: C0         RET     NZ              
4EE9: 59         LD      E,C             
4EEA: E0 33      LDFF00  ($33),A         
4EEC: F9         LD      SP,HL           
4EED: 1E 7F      LD      E,$7F           
4EEF: 07         RLCA                    
4EF0: 1A         LD      A,(DE)          
4EF1: 1A         LD      A,(DE)          
4EF2: E6 E6      AND     $E6             
4EF4: 1A         LD      A,(DE)          
4EF5: 1E F2      LD      E,$F2           
4EF7: FE F7      CP      $F7             
4EF9: 3E E7      LD      A,$E7           
4EFB: 3C         INC     A               
4EFC: FF         RST     0X38            
4EFD: 78         LD      A,B             
4EFE: FE E0      CP      $E0             
4F00: 00         NOP                     
4F01: 00         NOP                     
4F02: 03         INC     BC              
4F03: 03         INC     BC              
4F04: 04         INC     B               
4F05: 07         RLCA                    
4F06: 08 0F 10   LD      ($100F),SP      
4F09: 1F         RRA                     
4F0A: 20 3F      JR      NZ,$4F4B        
4F0C: 71         LD      (HL),C          
4F0D: 4E         LD      C,(HL)          
4F0E: 5B         LD      E,E             
4F0F: 64         LD      H,H             
4F10: 4E         LD      C,(HL)          
4F11: 71         LD      (HL),C          
4F12: 44         LD      B,H             
4F13: 7B         LD      A,E             
4F14: 44         LD      B,H             
4F15: 7B         LD      A,E             
4F16: 44         LD      B,H             
4F17: 7B         LD      A,E             
4F18: 44         LD      B,H             
4F19: 7B         LD      A,E             
4F1A: 24         INC     H               
4F1B: 3B         DEC     SP              
4F1C: 18 1F      JR      $4F3D           
4F1E: 07         RLCA                    
4F1F: 07         RLCA                    
4F20: 00         NOP                     
4F21: 00         NOP                     
4F22: E0 E0      LDFF00  ($E0),A         
4F24: 90         SUB     B               
4F25: 70         LD      (HL),B          
4F26: 88         ADC     A,B             
4F27: 78         LD      A,B             
4F28: 84         ADD     A,H             
4F29: 7C         LD      A,H             
4F2A: 82         ADD     A,D             
4F2B: 7E         LD      A,(HL)          
4F2C: C5         PUSH    BC              
4F2D: 3B         DEC     SP              
4F2E: 6D         LD      L,L             
4F2F: 93         SUB     E               
4F30: 39         ADD     HL,SP           
4F31: C7         RST     0X00            
4F32: 11 EF 11   LD      DE,$11EF        
4F35: EF         RST     0X28            
4F36: 11 EF 11   LD      DE,$11EF        
4F39: EF         RST     0X28            
4F3A: 12         LD      (DE),A          
4F3B: EE 0C      XOR     $0C             
4F3D: FC         ???                     
4F3E: F0 F0      LD      A,($F0)         
4F40: 00         NOP                     
4F41: 00         NOP                     
4F42: 01 01 63   LD      BC,$6301        
4F45: 62         LD      H,D             
4F46: 77         LD      (HL),A          
4F47: 54         LD      D,H             
4F48: 7F         LD      A,A             
4F49: 4D         LD      C,L             
4F4A: 6F         LD      L,A             
4F4B: 56         LD      D,(HL)          
4F4C: 77         LD      (HL),A          
4F4D: 4A         LD      C,D             
4F4E: 3B         DEC     SP              
4F4F: 26 1E      LD      H,$1E           
4F51: 1F         RRA                     
4F52: 3B         DEC     SP              
4F53: 27         DAA                     
4F54: 77         LD      (HL),A          
4F55: 4A         LD      C,D             
4F56: 7F         LD      A,A             
4F57: 44         LD      B,H             
4F58: 7F         LD      A,A             
4F59: 7C         LD      A,H             
4F5A: 07         RLCA                    
4F5B: 04         INC     B               
4F5C: 03         INC     BC              
4F5D: 03         INC     BC              
4F5E: 00         NOP                     
4F5F: 00         NOP                     
4F60: 00         NOP                     
4F61: 00         NOP                     
4F62: 80         ADD     A,B             
4F63: 80         ADD     A,B             
4F64: C6 46      ADD     $46             
4F66: EE 2A      XOR     $2A             
4F68: FE B2      CP      $B2             
4F6A: F6 6A      OR      $6A             
4F6C: EE 52      XOR     $52             
4F6E: DC 64 78   CALL    C,$7864         
4F71: F8 DC      LDHL    SP,$DC          
4F73: E4         ???                     
4F74: 4E         LD      C,(HL)          
4F75: F2         ???                     
4F76: 7E         LD      A,(HL)          
4F77: A2         AND     D               
4F78: FE 3E      CP      $3E             
4F7A: E0 20      LDFF00  ($20),A         
4F7C: C0         RET     NZ              
4F7D: C0         RET     NZ              
4F7E: 00         NOP                     
4F7F: 00         NOP                     
4F80: 00         NOP                     
4F81: 00         NOP                     
4F82: FF         RST     0X38            
4F83: FF         RST     0X38            
4F84: FF         RST     0X38            
4F85: 80         ADD     A,B             
4F86: FF         RST     0X38            
4F87: 80         ADD     A,B             
4F88: FF         RST     0X38            
4F89: FF         RST     0X38            
4F8A: 50         LD      D,B             
4F8B: 70         LD      (HL),B          
4F8C: 56         LD      D,(HL)          
4F8D: 76         HALT                    
4F8E: 50         LD      D,B             
4F8F: 70         LD      (HL),B          
4F90: 55         LD      D,L             
4F91: 75         LD      (HL),L          
4F92: 50         LD      D,B             
4F93: 70         LD      (HL),B          
4F94: DF         RST     0X18            
4F95: FF         RST     0X38            
4F96: FF         RST     0X38            
4F97: 80         ADD     A,B             
4F98: FF         RST     0X38            
4F99: FF         RST     0X38            
4F9A: 05         DEC     B               
4F9B: 06 05      LD      B,$05           
4F9D: 06 03      LD      B,$03           
4F9F: 03         INC     BC              
4FA0: 00         NOP                     
4FA1: 00         NOP                     
4FA2: FF         RST     0X38            
4FA3: FF         RST     0X38            
4FA4: FF         RST     0X38            
4FA5: 01 FF 01   LD      BC,$01FF        
4FA8: FF         RST     0X38            
4FA9: FF         RST     0X38            
4FAA: 0A         LD      A,(BC)          
4FAB: 0E AA      LD      C,$AA           
4FAD: AE         XOR     (HL)            
4FAE: 0A         LD      A,(BC)          
4FAF: 0E AA      LD      C,$AA           
4FB1: AE         XOR     (HL)            
4FB2: 0A         LD      A,(BC)          
4FB3: 0E FB      LD      C,$FB           
4FB5: FF         RST     0X38            
4FB6: FF         RST     0X38            
4FB7: 01 FF FF   LD      BC,$FFFF        
4FBA: A0         AND     B               
4FBB: 60         LD      H,B             
4FBC: A0         AND     B               
4FBD: 60         LD      H,B             
4FBE: C0         RET     NZ              
4FBF: C0         RET     NZ              
4FC0: 73         LD      (HL),E          
4FC1: 8F         ADC     A,A             
4FC2: DD         ???                     
4FC3: 3E B7      LD      A,$B7           
4FC5: 6C         LD      L,H             
4FC6: 77         LD      (HL),A          
4FC7: CC 65 DE   CALL    Z,$DE65         
4FCA: 4C         LD      C,H             
4FCB: FF         RST     0X38            
4FCC: 72         LD      (HL),D          
4FCD: FF         RST     0X38            
4FCE: D9         RETI                    
4FCF: E7         RST     0X20            
4FD0: FE F1      CP      $F1             
4FD2: EB         ???                     
4FD3: 1C         INC     E               
4FD4: F5         PUSH    AF              
4FD5: 0E F6      LD      C,$F6           
4FD7: 0F         RRCA                    
4FD8: E6 1F      AND     $1F             
4FDA: 0D         DEC     C               
4FDB: FB         EI                      
4FDC: 1D         DEC     E               
4FDD: F3         DI                      
4FDE: F1         POP     AF              
4FDF: FF         RST     0X38            
4FE0: BC         CP      H               
4FE1: C3 BE C1   JP      $C1BE           
4FE4: 9C         SBC     H               
4FE5: E3         ???                     
4FE6: 81         ADD     A,C             
4FE7: FF         RST     0X38            
4FE8: 41         LD      B,C             
4FE9: FF         RST     0X38            
4FEA: 43         LD      B,E             
4FEB: FF         RST     0X38            
4FEC: 7C         LD      A,H             
4FED: FF         RST     0X38            
4FEE: 83         ADD     A,E             
4FEF: FC         ???                     
4FF0: FF         RST     0X38            
4FF1: FF         RST     0X38            
4FF2: BB         CP      E               
4FF3: C6 FD      ADD     $FD             
4FF5: 83         ADD     A,E             
4FF6: 7D         LD      A,L             
4FF7: 83         ADD     A,E             
4FF8: 01 FF 01   LD      BC,$01FF        
4FFB: FF         RST     0X38            
4FFC: 86         ADD     A,(HL)          
4FFD: FF         RST     0X38            
4FFE: 79         LD      A,C             
4FFF: FF         RST     0X38            
5000: FF         RST     0X38            
5001: E3         ???                     
5002: F3         DI                      
5003: EC         ???                     
5004: F8 E7      LDHL    SP,$E7          
5006: FC         ???                     
5007: EB         ???                     
5008: FE DD      CP      $DD             
500A: FF         RST     0X38            
500B: D8         RET     C               
500C: FE D9      CP      $D9             
500E: EF         RST     0X28            
500F: DE F7      SBC     $F7             
5011: CD DF A1   CALL    $A1DF           
5014: D6 AD      SUB     $AD             
5016: D7         RST     0X10            
5017: AE         XOR     (HL)            
5018: CB B7      SET     1,E             
501A: FC         ???                     
501B: C3 F7 DC   JP      $DCF7           
501E: FF         RST     0X38            
501F: C0         RET     NZ              
5020: FF         RST     0X38            
5021: C7         RST     0X00            
5022: CF         RST     0X08            
5023: 37         SCF                     
5024: 1F         RRA                     
5025: E7         RST     0X20            
5026: 3F         CCF                     
5027: D7         RST     0X10            
5028: 7F         LD      A,A             
5029: BB         CP      E               
502A: FF         RST     0X38            
502B: 1B         DEC     DE              
502C: 7F         LD      A,A             
502D: 9B         SBC     E               
502E: F7         RST     0X30            
502F: 7B         LD      A,E             
5030: EF         RST     0X28            
5031: B3         OR      E               
5032: FB         EI                      
5033: 85         ADD     A,L             
5034: 6B         LD      L,E             
5035: B5         OR      L               
5036: EB         ???                     
5037: 75         LD      (HL),L          
5038: D3         ???                     
5039: ED         ???                     
503A: 3F         CCF                     
503B: C3 EF 3B   JP      $3BEF           
503E: FF         RST     0X38            
503F: 03         INC     BC              
5040: FF         RST     0X38            
5041: F0 FF      LD      A,($FF)         
5043: EF         RST     0X28            
5044: F8 DF      LDHL    SP,$DF          
5046: F7         RST     0X30            
5047: B8         CP      B               
5048: EF         RST     0X28            
5049: 70         LD      (HL),B          
504A: DF         RST     0X18            
504B: 60         LD      H,B             
504C: DF         RST     0X18            
504D: 60         LD      H,B             
504E: DF         RST     0X18            
504F: 60         LD      H,B             
5050: DF         RST     0X18            
5051: 60         LD      H,B             
5052: DF         RST     0X18            
5053: 60         LD      H,B             
5054: DF         RST     0X18            
5055: 60         LD      H,B             
5056: DF         RST     0X18            
5057: 60         LD      H,B             
5058: DF         RST     0X18            
5059: 60         LD      H,B             
505A: D8         RET     C               
505B: 67         LD      H,A             
505C: D0         RET     NC              
505D: 6F         LD      L,A             
505E: FF         RST     0X38            
505F: 1F         RRA                     
5060: FF         RST     0X38            
5061: 0F         RRCA                    
5062: FF         RST     0X38            
5063: F7         RST     0X30            
5064: 1F         RRA                     
5065: FB         EI                      
5066: EF         RST     0X28            
5067: 1D         DEC     E               
5068: F7         RST     0X30            
5069: 0E FB      LD      C,$FB           
506B: 06 FB      LD      B,$FB           
506D: 06 FB      LD      B,$FB           
506F: 06 FB      LD      B,$FB           
5071: 06 FB      LD      B,$FB           
5073: 06 FB      LD      B,$FB           
5075: 06 FB      LD      B,$FB           
5077: 06 FB      LD      B,$FB           
5079: 06 1B      LD      B,$1B           
507B: E6 0B      AND     $0B             
507D: F6 FF      OR      $FF             
507F: F8 FF      LDHL    SP,$FF          
5081: C0         RET     NZ              
5082: CF         RST     0X08            
5083: B0         OR      B               
5084: FF         RST     0X38            
5085: 00         NOP                     
5086: FF         RST     0X38            
5087: 6A         LD      L,D             
5088: FF         RST     0X38            
5089: 4E         LD      C,(HL)          
508A: FF         RST     0X38            
508B: 2A         LD      A,(HLI)         
508C: FF         RST     0X38            
508D: 6A         LD      L,D             
508E: FF         RST     0X38            
508F: 00         NOP                     
5090: E6 7F      AND     $7F             
5092: E6 7F      AND     $7F             
5094: FF         RST     0X38            
5095: 00         NOP                     
5096: FF         RST     0X38            
5097: 80         ADD     A,B             
5098: CF         RST     0X08            
5099: B0         OR      B               
509A: CF         RST     0X08            
509B: B0         OR      B               
509C: C8         RET     Z               
509D: B7         OR      A               
509E: FF         RST     0X38            
509F: 8F         ADC     A,A             
50A0: FF         RST     0X38            
50A1: 03         INC     BC              
50A2: FF         RST     0X38            
50A3: 01 FF 00   LD      BC,$00FF        
50A6: FF         RST     0X38            
50A7: EE FF      XOR     $FF             
50A9: AA         XOR     D               
50AA: FF         RST     0X38            
50AB: AE         XOR     (HL)            
50AC: FF         RST     0X38            
50AD: E8 FF      ADD     SP,$FF          
50AF: 00         NOP                     
50B0: 67         LD      H,A             
50B1: FE 67      CP      $67             
50B3: FE FF      CP      $FF             
50B5: 00         NOP                     
50B6: FF         RST     0X38            
50B7: 01 F3 0D   LD      BC,$0DF3        
50BA: F3         DI                      
50BB: 0D         DEC     C               
50BC: 13         INC     DE              
50BD: ED         ???                     
50BE: FF         RST     0X38            
50BF: F1         POP     AF              
50C0: FF         RST     0X38            
50C1: E7         RST     0X20            
50C2: FF         RST     0X38            
50C3: C3 FF C2   JP      $C2FF           
50C6: FF         RST     0X38            
50C7: C2 FF C2   JP      NZ,$C2FF        
50CA: FF         RST     0X38            
50CB: C6 FF      ADD     $FF             
50CD: C7         RST     0X00            
50CE: FF         RST     0X38            
50CF: CF         RST     0X08            
50D0: FF         RST     0X38            
50D1: CF         RST     0X08            
50D2: FF         RST     0X38            
50D3: DF         RST     0X18            
50D4: FF         RST     0X38            
50D5: DF         RST     0X18            
50D6: FF         RST     0X38            
50D7: FF         RST     0X38            
50D8: FF         RST     0X38            
50D9: 9F         SBC     A               
50DA: FF         RST     0X38            
50DB: 0F         RRCA                    
50DC: FF         RST     0X38            
50DD: 0F         RRCA                    
50DE: FF         RST     0X38            
50DF: 9F         SBC     A               
50E0: FF         RST     0X38            
50E1: 83         ADD     A,E             
50E2: FF         RST     0X38            
50E3: 01 FF 38   LD      BC,$38FF        
50E6: FF         RST     0X38            
50E7: 7C         LD      A,H             
50E8: FF         RST     0X38            
50E9: 1C         INC     E               
50EA: FF         RST     0X38            
50EB: 1C         INC     E               
50EC: FF         RST     0X38            
50ED: 38 FF      JR      C,$50EE         
50EF: F1         POP     AF              
50F0: FF         RST     0X38            
50F1: E7         RST     0X20            
50F2: FF         RST     0X38            
50F3: CF         RST     0X08            
50F4: FF         RST     0X38            
50F5: DF         RST     0X18            
50F6: FF         RST     0X38            
50F7: FF         RST     0X38            
50F8: FF         RST     0X38            
50F9: 9F         SBC     A               
50FA: FF         RST     0X38            
50FB: 0F         RRCA                    
50FC: FF         RST     0X38            
50FD: 0F         RRCA                    
50FE: FF         RST     0X38            
50FF: 9F         SBC     A               
5100: 00         NOP                     
5101: 00         NOP                     
5102: 03         INC     BC              
5103: 03         INC     BC              
5104: 04         INC     B               
5105: 07         RLCA                    
5106: 08 0F 10   LD      ($100F),SP      
5109: 1F         RRA                     
510A: 20 3F      JR      NZ,$514B        
510C: 71         LD      (HL),C          
510D: 4E         LD      C,(HL)          
510E: 5B         LD      E,E             
510F: 64         LD      H,H             
5110: 4E         LD      C,(HL)          
5111: 71         LD      (HL),C          
5112: 44         LD      B,H             
5113: 7B         LD      A,E             
5114: 44         LD      B,H             
5115: 7B         LD      A,E             
5116: 44         LD      B,H             
5117: 7B         LD      A,E             
5118: 44         LD      B,H             
5119: 7B         LD      A,E             
511A: 24         INC     H               
511B: 3B         DEC     SP              
511C: 18 1F      JR      $513D           
511E: 07         RLCA                    
511F: 07         RLCA                    
5120: 00         NOP                     
5121: 00         NOP                     
5122: E0 E0      LDFF00  ($E0),A         
5124: 90         SUB     B               
5125: 70         LD      (HL),B          
5126: 88         ADC     A,B             
5127: 78         LD      A,B             
5128: 84         ADD     A,H             
5129: 7C         LD      A,H             
512A: 82         ADD     A,D             
512B: 7E         LD      A,(HL)          
512C: C5         PUSH    BC              
512D: 3B         DEC     SP              
512E: 6D         LD      L,L             
512F: 93         SUB     E               
5130: 39         ADD     HL,SP           
5131: C7         RST     0X00            
5132: 11 EF 11   LD      DE,$11EF        
5135: EF         RST     0X28            
5136: 11 EF 11   LD      DE,$11EF        
5139: EF         RST     0X28            
513A: 12         LD      (DE),A          
513B: EE 0C      XOR     $0C             
513D: FC         ???                     
513E: F0 F0      LD      A,($F0)         
5140: 00         NOP                     
5141: 00         NOP                     
5142: 01 01 63   LD      BC,$6301        
5145: 62         LD      H,D             
5146: 77         LD      (HL),A          
5147: 54         LD      D,H             
5148: 7F         LD      A,A             
5149: 4D         LD      C,L             
514A: 6F         LD      L,A             
514B: 56         LD      D,(HL)          
514C: 77         LD      (HL),A          
514D: 4A         LD      C,D             
514E: 3B         DEC     SP              
514F: 26 1E      LD      H,$1E           
5151: 1F         RRA                     
5152: 3B         DEC     SP              
5153: 27         DAA                     
5154: 77         LD      (HL),A          
5155: 4A         LD      C,D             
5156: 7F         LD      A,A             
5157: 44         LD      B,H             
5158: 7F         LD      A,A             
5159: 7C         LD      A,H             
515A: 07         RLCA                    
515B: 04         INC     B               
515C: 03         INC     BC              
515D: 03         INC     BC              
515E: 00         NOP                     
515F: 00         NOP                     
5160: 00         NOP                     
5161: 00         NOP                     
5162: 80         ADD     A,B             
5163: 80         ADD     A,B             
5164: C6 46      ADD     $46             
5166: EE 2A      XOR     $2A             
5168: FE B2      CP      $B2             
516A: F6 6A      OR      $6A             
516C: EE 52      XOR     $52             
516E: DC 64 78   CALL    C,$7864         
5171: F8 DC      LDHL    SP,$DC          
5173: E4         ???                     
5174: 4E         LD      C,(HL)          
5175: F2         ???                     
5176: 7E         LD      A,(HL)          
5177: A2         AND     D               
5178: FE 3E      CP      $3E             
517A: E0 20      LDFF00  ($20),A         
517C: C0         RET     NZ              
517D: C0         RET     NZ              
517E: 00         NOP                     
517F: 00         NOP                     
5180: 00         NOP                     
5181: 00         NOP                     
5182: 00         NOP                     
5183: 00         NOP                     
5184: 44         LD      B,H             
5185: 00         NOP                     
5186: 28 00      JR      Z,$5188         
5188: 10 00      STOP    $00             
518A: 28 00      JR      Z,$518C         
518C: 44         LD      B,H             
518D: 00         NOP                     
518E: 00         NOP                     
518F: 00         NOP                     
5190: 00         NOP                     
5191: 00         NOP                     
5192: 00         NOP                     
5193: 00         NOP                     
5194: 44         LD      B,H             
5195: 00         NOP                     
5196: 28 00      JR      Z,$5198         
5198: 10 00      STOP    $00             
519A: 28 00      JR      Z,$519C         
519C: 44         LD      B,H             
519D: 00         NOP                     
519E: 00         NOP                     
519F: 00         NOP                     
51A0: 38 00      JR      C,$51A2         
51A2: 38 00      JR      C,$51A4         
51A4: C6 00      ADD     $00             
51A6: C6 00      ADD     $00             
51A8: C6 00      ADD     $00             
51AA: 38 00      JR      C,$51AC         
51AC: 38 00      JR      C,$51AE         
51AE: 00         NOP                     
51AF: 00         NOP                     
51B0: FF         RST     0X38            
51B1: 00         NOP                     
51B2: F3         DI                      
51B3: 00         NOP                     
51B4: E0 00      LDFF00  ($00),A         
51B6: 0E 00      LD      C,$00           
51B8: FF         RST     0X38            
51B9: 00         NOP                     
51BA: 7C         LD      A,H             
51BB: 00         NOP                     
51BC: 31 00 87   LD      SP,$8700        
51BF: 00         NOP                     
51C0: 03         INC     BC              
51C1: 00         NOP                     
51C2: 1C         INC     E               
51C3: 03         INC     BC              
51C4: E0 1F      LDFF00  ($1F),A         
51C6: 02         LD      (BC),A          
51C7: FC         ???                     
51C8: 08 F0 01   LD      ($01F0),SP      
51CB: 00         NOP                     
51CC: 11 00 CE   LD      DE,$CE00        
51CF: 00         NOP                     
51D0: C0         RET     NZ              
51D1: 00         NOP                     
51D2: 38 C0      JR      C,$5194         
51D4: 07         RLCA                    
51D5: F8 40      LDHL    SP,$40          
51D7: 3F         CCF                     
51D8: 08 07 80   LD      ($8007),SP      
51DB: 00         NOP                     
51DC: A2         AND     D               
51DD: 00         NOP                     
51DE: 78         LD      A,B             
51DF: 00         NOP                     
51E0: FF         RST     0X38            
51E1: 00         NOP                     
51E2: FF         RST     0X38            
51E3: 00         NOP                     
51E4: FF         RST     0X38            
51E5: 00         NOP                     
51E6: FF         RST     0X38            
51E7: 00         NOP                     
51E8: F8 00      LDHL    SP,$00          
51EA: C0         RET     NZ              
51EB: 00         NOP                     
51EC: 09         ADD     HL,BC           
51ED: 00         NOP                     
51EE: 3F         CCF                     
51EF: 00         NOP                     
51F0: FF         RST     0X38            
51F1: 00         NOP                     
51F2: FF         RST     0X38            
51F3: 00         NOP                     
51F4: FF         RST     0X38            
51F5: 00         NOP                     
51F6: FF         RST     0X38            
51F7: 00         NOP                     
51F8: 1F         RRA                     
51F9: 00         NOP                     
51FA: 07         RLCA                    
51FB: 00         NOP                     
51FC: 80         ADD     A,B             
51FD: 00         NOP                     
51FE: D8         RET     C               
51FF: 00         NOP                     
5200: 01 00 07   LD      BC,$0700        
5203: 03         INC     BC              
5204: 0D         DEC     C               
5205: 0E 17      LD      C,$17           
5207: 18 2F      JR      $5238           
5209: 30 6E      JR      NC,$5279        
520B: 31 5C 63   LD      SP,$635C        
520E: DC 63 FF   CALL    C,$FF63         
5211: FF         RST     0X38            
5212: 7F         LD      A,A             
5213: 80         ADD     A,B             
5214: F8 00      LDHL    SP,$00          
5216: B0         OR      B               
5217: 40         LD      B,B             
5218: 30 C0      JR      NC,$51DA        
521A: 38 C0      JR      C,$51DC         
521C: 3F         CCF                     
521D: C0         RET     NZ              
521E: 1F         RRA                     
521F: E0 FF      LDFF00  ($FF),A         
5221: FF         RST     0X38            
5222: E0 1F      LDFF00  ($1F),A         
5224: F3         DI                      
5225: 0C         INC     C               
5226: 79         LD      A,C             
5227: 06 78      LD      B,$78           
5229: 07         RLCA                    
522A: F8 07      LDHL    SP,$07          
522C: F8 07      LDHL    SP,$07          
522E: F0 0F      LD      A,($0F)         
5230: 80         ADD     A,B             
5231: 00         NOP                     
5232: E0 C0      LDFF00  ($C0),A         
5234: 30 F0      JR      NC,$5226        
5236: C8         RET     Z               
5237: 38 E4      JR      C,$521D         
5239: 1C         INC     E               
523A: 66         LD      H,(HL)          
523B: 9C         SBC     H               
523C: 72         LD      (HL),D          
523D: 8E         ADC     A,(HL)          
523E: 73         LD      (HL),E          
523F: 8E         ADC     A,(HL)          
5240: 80         ADD     A,B             
5241: FF         RST     0X38            
5242: C0         RET     NZ              
5243: 7F         LD      A,A             
5244: C0         RET     NZ              
5245: 7F         LD      A,A             
5246: E0 BF      LDFF00  ($BF),A         
5248: F0 9F      LD      A,($9F)         
524A: BC         CP      H               
524B: CF         RST     0X08            
524C: E3         ???                     
524D: 7F         LD      A,A             
524E: FF         RST     0X38            
524F: 1C         INC     E               
5250: 3F         CCF                     
5251: C0         RET     NZ              
5252: 1F         RRA                     
5253: E0 07      LDFF00  ($07),A         
5255: F8 00      LDHL    SP,$00          
5257: FF         RST     0X38            
5258: 00         NOP                     
5259: FF         RST     0X38            
525A: 00         NOP                     
525B: FF         RST     0X38            
525C: E0 FF      LDFF00  ($FF),A         
525E: D0         RET     NC              
525F: 3F         CCF                     
5260: FC         ???                     
5261: 03         INC     BC              
5262: F8 07      LDHL    SP,$07          
5264: F0 0F      LD      A,($0F)         
5266: 00         NOP                     
5267: FF         RST     0X38            
5268: 00         NOP                     
5269: FF         RST     0X38            
526A: 00         NOP                     
526B: FF         RST     0X38            
526C: 07         RLCA                    
526D: FF         RST     0X38            
526E: 0B         DEC     BC              
526F: FC         ???                     
5270: 01 FF 03   LD      BC,$03FF        
5273: FE 03      CP      $03             
5275: FE 07      CP      $07             
5277: FD         ???                     
5278: 0F         RRCA                    
5279: F9         LD      SP,HL           
527A: 3D         DEC     A               
527B: F3         DI                      
527C: C7         RST     0X00            
527D: FE FF      CP      $FF             
527F: 38 FC      JR      C,$527D         
5281: 03         INC     BC              
5282: FF         RST     0X38            
5283: 07         RLCA                    
5284: E9         JP      (HL)            
5285: 1E 17      LD      E,$17           
5287: F8 2F      LDHL    SP,$2F          
5289: F0 2E      LD      A,($2E)         
528B: F1         POP     AF              
528C: 5C         LD      E,H             
528D: E3         ???                     
528E: 5C         LD      E,H             
528F: E3         ???                     
5290: 3F         CCF                     
5291: C0         RET     NZ              
5292: DF         RST     0X18            
5293: E0 37      LDFF00  ($37),A         
5295: F8 C8      LDHL    SP,$C8          
5297: 3F         CCF                     
5298: E4         ???                     
5299: 1F         RRA                     
529A: 64         LD      H,H             
529B: 9F         SBC     A               
529C: 72         LD      (HL),D          
529D: 8F         ADC     A,A             
529E: 72         LD      (HL),D          
529F: 8F         ADC     A,A             
52A0: FD         ???                     
52A1: FE 02      CP      $02             
52A3: FF         RST     0X38            
52A4: FD         ???                     
52A5: 03         INC     BC              
52A6: 03         INC     BC              
52A7: 01 43 01   LD      BC,$0143        
52AA: FD         ???                     
52AB: 03         INC     BC              
52AC: 02         LD      (BC),A          
52AD: FF         RST     0X38            
52AE: FD         ???                     
52AF: FE BF      CP      $BF             
52B1: 7F         LD      A,A             
52B2: 40         LD      B,B             
52B3: FF         RST     0X38            
52B4: BF         CP      A               
52B5: C0         RET     NZ              
52B6: C2 80 C0   JP      NZ,$C080        
52B9: 80         ADD     A,B             
52BA: BF         CP      A               
52BB: C0         RET     NZ              
52BC: 40         LD      B,B             
52BD: FF         RST     0X38            
52BE: BF         CP      A               
52BF: 7F         LD      A,A             
52C0: FF         RST     0X38            
52C1: FF         RST     0X38            
52C2: 80         ADD     A,B             
52C3: FF         RST     0X38            
52C4: 80         ADD     A,B             
52C5: 80         ADD     A,B             
52C6: FF         RST     0X38            
52C7: 80         ADD     A,B             
52C8: FF         RST     0X38            
52C9: FF         RST     0X38            
52CA: 9F         SBC     A               
52CB: F7         RST     0X30            
52CC: FF         RST     0X38            
52CD: 97         SUB     A               
52CE: FF         RST     0X38            
52CF: 97         SUB     A               
52D0: FF         RST     0X38            
52D1: FF         RST     0X38            
52D2: 01 FF 01   LD      BC,$01FF        
52D5: 01 FF 01   LD      BC,$01FF        
52D8: FF         RST     0X38            
52D9: FF         RST     0X38            
52DA: F9         LD      SP,HL           
52DB: EF         RST     0X28            
52DC: FF         RST     0X38            
52DD: E9         JP      (HL)            
52DE: FF         RST     0X38            
52DF: E9         JP      (HL)            
52E0: FF         RST     0X38            
52E1: FF         RST     0X38            
52E2: 00         NOP                     
52E3: 00         NOP                     
52E4: 00         NOP                     
52E5: 00         NOP                     
52E6: FF         RST     0X38            
52E7: 00         NOP                     
52E8: C0         RET     NZ              
52E9: 3F         CCF                     
52EA: DF         RST     0X18            
52EB: 3F         CCF                     
52EC: FF         RST     0X38            
52ED: FF         RST     0X38            
52EE: 1F         RRA                     
52EF: FF         RST     0X38            
52F0: FF         RST     0X38            
52F1: FF         RST     0X38            
52F2: 00         NOP                     
52F3: 00         NOP                     
52F4: 00         NOP                     
52F5: 00         NOP                     
52F6: FF         RST     0X38            
52F7: 00         NOP                     
52F8: 03         INC     BC              
52F9: FC         ???                     
52FA: FB         EI                      
52FB: FC         ???                     
52FC: FF         RST     0X38            
52FD: FF         RST     0X38            
52FE: F8 FF      LDHL    SP,$FF          
5300: 9C         SBC     H               
5301: E3         ???                     
5302: 9E         SBC     (HL)            
5303: E1         POP     HL              
5304: 9F         SBC     A               
5305: E0 9F      LDFF00  ($9F),A         
5307: E0 8F      LDFF00  ($8F),A         
5309: F0 8F      LD      A,($8F)         
530B: F0 83      LD      A,($83)         
530D: FC         ???                     
530E: 80         ADD     A,B             
530F: FF         RST     0X38            
5310: 07         RLCA                    
5311: F8 00      LDHL    SP,$00          
5313: FF         RST     0X38            
5314: 00         NOP                     
5315: FF         RST     0X38            
5316: C0         RET     NZ              
5317: 3F         CCF                     
5318: F0 0F      LD      A,($0F)         
531A: F8 07      LDHL    SP,$07          
531C: FF         RST     0X38            
531D: 00         NOP                     
531E: FF         RST     0X38            
531F: 00         NOP                     
5320: E0 1F      LDFF00  ($1F),A         
5322: 00         NOP                     
5323: FF         RST     0X38            
5324: 01 FE 07   LD      BC,$07FE        
5327: F8 0F      LDHL    SP,$0F          
5329: F0 1F      LD      A,($1F)         
532B: E0 FF      LDFF00  ($FF),A         
532D: 00         NOP                     
532E: FF         RST     0X38            
532F: 00         NOP                     
5330: 71         LD      (HL),C          
5331: 8F         ADC     A,A             
5332: F1         POP     AF              
5333: 0F         RRCA                    
5334: F1         POP     AF              
5335: 0F         RRCA                    
5336: F1         POP     AF              
5337: 0F         RRCA                    
5338: F1         POP     AF              
5339: 0F         RRCA                    
533A: E1         POP     HL              
533B: 1F         RRA                     
533C: C1         POP     BC              
533D: 3F         CCF                     
533E: 01 FF 79   LD      BC,$79FF        
5341: 08 71 10   LD      ($1071),SP      
5344: 33         INC     SP              
5345: 20 37      JR      NZ,$537E        
5347: 20 3D      JR      NZ,$5386        
5349: 23         INC     HL              
534A: 3E 1F      LD      A,$1F           
534C: 07         RLCA                    
534D: 00         NOP                     
534E: 00         NOP                     
534F: 00         NOP                     
5350: F8 0F      LDHL    SP,$0F          
5352: FF         RST     0X38            
5353: 07         RLCA                    
5354: B8         CP      B               
5355: 60         LD      H,B             
5356: 78         LD      A,B             
5357: F0 94      LD      A,($94)         
5359: F8 0F      LDHL    SP,$0F          
535B: F8 87      LDHL    SP,$87          
535D: 7C         LD      A,H             
535E: 3F         CCF                     
535F: 03         INC     BC              
5360: 1F         RRA                     
5361: F0 FF      LD      A,($FF)         
5363: E0 FD      LDFF00  ($FD),A         
5365: 06 FE      LD      B,$FE           
5367: 0F         RRCA                    
5368: E9         JP      (HL)            
5369: 1F         RRA                     
536A: F0 1F      LD      A,($1F)         
536C: E1         POP     HL              
536D: 3E FC      LD      A,$FC           
536F: C0         RET     NZ              
5370: 3E 10      LD      A,$10           
5372: 1E 08      LD      E,$08           
5374: 8C         ADC     A,H             
5375: 04         INC     B               
5376: CC 04 BC   CALL    Z,$BC04         
5379: C4 7C F8   CALL    NZ,$F87C        
537C: C0         RET     NZ              
537D: 00         NOP                     
537E: 00         NOP                     
537F: 00         NOP                     
5380: 30 30      JR      NC,$53B2        
5382: 5F         LD      E,A             
5383: 4F         LD      C,A             
5384: 52         LD      D,D             
5385: 4C         LD      C,H             
5386: 41         LD      B,C             
5387: 7E         LD      A,(HL)          
5388: 40         LD      B,B             
5389: 63         LD      H,E             
538A: 4C         LD      C,H             
538B: 4D         LD      C,L             
538C: CC 4D 40   CALL    Z,$404D         
538F: E2         LDFF00  (C),A           
5390: 0C         INC     C               
5391: 0C         INC     C               
5392: FA F2 4A   LD      A,($4AF2)       
5395: 32         LD      (HLD),A         
5396: 82         ADD     A,D             
5397: 7E         LD      A,(HL)          
5398: 02         LD      (BC),A          
5399: C6 32      ADD     $32             
539B: B2         OR      D               
539C: 33         INC     SP              
539D: B2         OR      D               
539E: 02         LD      (BC),A          
539F: 47         LD      B,A             
53A0: FB         EI                      
53A1: 06 03      LD      B,$03           
53A3: FE 44      CP      $44             
53A5: FE 4A      CP      $4A             
53A7: BC         CP      H               
53A8: 14         INC     D               
53A9: F8 68      LDHL    SP,$68          
53AB: F0 A0      LD      A,($A0)         
53AD: C0         RET     NZ              
53AE: 80         ADD     A,B             
53AF: 00         NOP                     
53B0: DF         RST     0X18            
53B1: 60         LD      H,B             
53B2: C0         RET     NZ              
53B3: 7F         LD      A,A             
53B4: 20 7F      JR      NZ,$5435        
53B6: 50         LD      D,B             
53B7: 3F         CCF                     
53B8: 28 1F      JR      Z,$53D9         
53BA: 16 0F      LD      D,$0F           
53BC: 05         DEC     B               
53BD: 03         INC     BC              
53BE: 01 00 FF   LD      BC,$FF00        
53C1: 97         SUB     A               
53C2: F8 90      LDHL    SP,$90          
53C4: 9F         SBC     A               
53C5: FF         RST     0X38            
53C6: 9F         SBC     A               
53C7: E0 F3      LDFF00  ($F3),A         
53C9: 8C         ADC     A,H             
53CA: F3         DI                      
53CB: 8C         ADC     A,H             
53CC: FF         RST     0X38            
53CD: FF         RST     0X38            
53CE: FF         RST     0X38            
53CF: 00         NOP                     
53D0: FF         RST     0X38            
53D1: E9         JP      (HL)            
53D2: 1F         RRA                     
53D3: 09         ADD     HL,BC           
53D4: FD         ???                     
53D5: FB         EI                      
53D6: 3D         DEC     A               
53D7: 03         INC     BC              
53D8: 27         DAA                     
53D9: 19         ADD     HL,DE           
53DA: E7         RST     0X20            
53DB: 19         ADD     HL,DE           
53DC: FF         RST     0X38            
53DD: FF         RST     0X38            
53DE: FF         RST     0X38            
53DF: 00         NOP                     
53E0: DF         RST     0X18            
53E1: 3F         CCF                     
53E2: DF         RST     0X18            
53E3: 3F         CCF                     
53E4: DF         RST     0X18            
53E5: 3F         CCF                     
53E6: DF         RST     0X18            
53E7: 3F         CCF                     
53E8: DF         RST     0X18            
53E9: 3F         CCF                     
53EA: DF         RST     0X18            
53EB: 3F         CCF                     
53EC: DF         RST     0X18            
53ED: 3F         CCF                     
53EE: FF         RST     0X38            
53EF: FF         RST     0X38            
53F0: FE F9      CP      $F9             
53F2: FE F9      CP      $F9             
53F4: FE F9      CP      $F9             
53F6: FE F9      CP      $F9             
53F8: FE F9      CP      $F9             
53FA: FE F9      CP      $F9             
53FC: FE F9      CP      $F9             
53FE: FF         RST     0X38            
53FF: FF         RST     0X38            
5400: 7F         LD      A,A             
5401: 80         ADD     A,B             
5402: FF         RST     0X38            
5403: 00         NOP                     
5404: F8 1F      LDHL    SP,$1F          
5406: CC 3F C6   CALL    Z,$C63F         
5409: 3F         CCF                     
540A: C7         RST     0X00            
540B: 3F         CCF                     
540C: C3 3F C3   JP      $C33F           
540F: 3F         CCF                     
5410: D0         RET     NC              
5411: E0 34      LDFF00  ($34),A         
5413: F8 EA      LDHL    SP,$EA          
5415: 1C         INC     E               
5416: 1C         INC     E               
5417: 06 0B      LD      B,$0B           
5419: 06 8E      LD      B,$8E           
541B: 03         INC     BC              
541C: 45         LD      B,L             
541D: 83         ADD     A,E             
541E: A5         AND     L               
541F: C3 0B 07   JP      $070B           
5422: 2C         INC     L               
5423: 1F         RRA                     
5424: 57         LD      D,A             
5425: 38 38      JR      C,$545F         
5427: 60         LD      H,B             
5428: D0         RET     NC              
5429: 60         LD      H,B             
542A: 71         LD      (HL),C          
542B: C0         RET     NZ              
542C: A2         AND     D               
542D: C1         POP     BC              
542E: A5         AND     L               
542F: C3 FE 01   JP      $01FE           
5432: FF         RST     0X38            
5433: 00         NOP                     
5434: 1B         DEC     DE              
5435: FC         ???                     
5436: 33         INC     SP              
5437: FC         ???                     
5438: 63         LD      H,E             
5439: FC         ???                     
543A: E3         ???                     
543B: FC         ???                     
543C: C3 FC C3   JP      $C3FC           
543F: FC         ???                     
5440: C1         POP     BC              
5441: FE E0      CP      $E0             
5443: FF         RST     0X38            
5444: E0 FF      LDFF00  ($FF),A         
5446: D0         RET     NC              
5447: FF         RST     0X38            
5448: E8 DF      ADD     SP,$DF          
544A: F6 CF      OR      $CF             
544C: DB         ???                     
544D: E7         RST     0X20            
544E: CE F1      ADC     $F1             
5450: FF         RST     0X38            
5451: FF         RST     0X38            
5452: 00         NOP                     
5453: FF         RST     0X38            
5454: FF         RST     0X38            
5455: 00         NOP                     
5456: 04         INC     B               
5457: 00         NOP                     
5458: 40         LD      B,B             
5459: 00         NOP                     
545A: FF         RST     0X38            
545B: 00         NOP                     
545C: 00         NOP                     
545D: FF         RST     0X38            
545E: FF         RST     0X38            
545F: FF         RST     0X38            
5460: FC         ???                     
5461: 0E FC      LD      C,$FC           
5463: 3D         DEC     A               
5464: 7C         LD      A,H             
5465: FD         ???                     
5466: 7C         LD      A,H             
5467: DE 7F      SBC     $7F             
5469: DF         RST     0X18            
546A: 5F         LD      E,A             
546B: C0         RET     NZ              
546C: FF         RST     0X38            
546D: 7F         LD      A,A             
546E: FF         RST     0X38            
546F: 00         NOP                     
5470: 83         ADD     A,E             
5471: 7F         LD      A,A             
5472: 07         RLCA                    
5473: FF         RST     0X38            
5474: 07         RLCA                    
5475: FF         RST     0X38            
5476: 0B         DEC     BC              
5477: FF         RST     0X38            
5478: 17         RLA                     
5479: FB         EI                      
547A: 6F         LD      L,A             
547B: F3         DI                      
547C: DB         ???                     
547D: E7         RST     0X20            
547E: 73         LD      (HL),E          
547F: 8F         ADC     A,A             
5480: C3 FC C3   JP      $C3FC           
5483: FC         ???                     
5484: C1         POP     BC              
5485: FE C1      CP      $C1             
5487: FE C1      CP      $C1             
5489: FE E3      CP      $E3             
548B: FC         ???                     
548C: E3         ???                     
548D: FC         ???                     
548E: E3         ???                     
548F: FC         ???                     
5490: A5         AND     L               
5491: C3 A5 C3   JP      $C3A5           
5494: B5         OR      L               
5495: C3 A5 C3   JP      $C3A5           
5498: A5         AND     L               
5499: C3 A5 C3   JP      $C3A5           
549C: AD         XOR     L               
549D: C3 A5 C3   JP      $C3A5           
54A0: FF         RST     0X38            
54A1: FF         RST     0X38            
54A2: FF         RST     0X38            
54A3: FF         RST     0X38            
54A4: 0C         INC     C               
54A5: FF         RST     0X38            
54A6: 00         NOP                     
54A7: FF         RST     0X38            
54A8: 40         LD      B,B             
54A9: FF         RST     0X38            
54AA: 00         NOP                     
54AB: FF         RST     0X38            
54AC: C7         RST     0X00            
54AD: 38 FF      JR      C,$54AE         
54AF: 00         NOP                     
54B0: 64         LD      H,H             
54B1: BE         CP      (HL)            
54B2: 36 DF      LD      (HL),$DF        
54B4: 9F         SBC     A               
54B5: EE 75      XOR     $75             
54B7: FE 0E      CP      $0E             
54B9: 1F         RRA                     
54BA: BE         CP      (HL)            
54BB: 43         LD      B,E             
54BC: FC         ???                     
54BD: FE 38      CP      $38             
54BF: 04         INC     B               
54C0: 8F         ADC     A,A             
54C1: 1F         RRA                     
54C2: 3F         CCF                     
54C3: 3F         CCF                     
54C4: 7C         LD      A,H             
54C5: 7F         LD      A,A             
54C6: 70         LD      (HL),B          
54C7: FF         RST     0X38            
54C8: E0 FF      LDFF00  ($FF),A         
54CA: E3         ???                     
54CB: FC         ???                     
54CC: C7         RST     0X00            
54CD: F8 C7      LDHL    SP,$C7          
54CF: F8 F1      LDHL    SP,$F1          
54D1: F8 FC      LDHL    SP,$FC          
54D3: FC         ???                     
54D4: 3E FE      LD      A,$FE           
54D6: 0E FF      LD      C,$FF           
54D8: 07         RLCA                    
54D9: FF         RST     0X38            
54DA: C7         RST     0X00            
54DB: 3F         CCF                     
54DC: E3         ???                     
54DD: 1F         RRA                     
54DE: E3         ???                     
54DF: 1F         RRA                     
54E0: E3         ???                     
54E1: FC         ???                     
54E2: F3         DI                      
54E3: FC         ???                     
54E4: 3B         DEC     SP              
54E5: FC         ???                     
54E6: 0B         DEC     BC              
54E7: FC         ???                     
54E8: 03         INC     BC              
54E9: FC         ???                     
54EA: 07         RLCA                    
54EB: F8 FE      LDHL    SP,$FE          
54ED: 01 FD 03   LD      BC,$03FD        
54F0: C7         RST     0X00            
54F1: 3F         CCF                     
54F2: CF         RST     0X08            
54F3: 3F         CCF                     
54F4: DC 3F D0   CALL    C,$D03F         
54F7: 3F         CCF                     
54F8: C0         RET     NZ              
54F9: 3F         CCF                     
54FA: E0 1F      LDFF00  ($1F),A         
54FC: 7F         LD      A,A             
54FD: 80         ADD     A,B             
54FE: BF         CP      A               
54FF: C0         RET     NZ              
5500: FF         RST     0X38            
5501: FF         RST     0X38            
5502: FF         RST     0X38            
5503: 00         NOP                     
5504: 70         LD      (HL),B          
5505: 70         LD      (HL),B          
5506: DF         RST     0X18            
5507: BF         CP      A               
5508: BC         CP      H               
5509: FF         RST     0X38            
550A: FF         RST     0X38            
550B: FF         RST     0X38            
550C: B6         OR      (HL)            
550D: F6 FF      OR      $FF             
550F: F7         RST     0X30            
5510: A5         AND     L               
5511: C3 A2 C1   JP      $C1A2           
5514: B1         OR      C               
5515: C0         RET     NZ              
5516: 98         SBC     B               
5517: E0 CE      LDFF00  ($CE),A         
5519: F0 63      LD      A,($63)         
551B: FC         ???                     
551C: B0         OR      B               
551D: 7F         LD      A,A             
551E: 6F         LD      L,A             
551F: 1F         RRA                     
5520: A5         AND     L               
5521: C3 45 83   JP      $8345           
5524: 8D         ADC     A,L             
5525: 03         INC     BC              
5526: 19         ADD     HL,DE           
5527: 07         RLCA                    
5528: 73         LD      (HL),E          
5529: 0F         RRCA                    
552A: C6 3F      ADD     $3F             
552C: 0D         DEC     C               
552D: FE F6      CP      $F6             
552F: F8 FF      LDHL    SP,$FF          
5531: FF         RST     0X38            
5532: FF         RST     0X38            
5533: 00         NOP                     
5534: 0E 0E      LD      C,$0E           
5536: FB         EI                      
5537: FD         ???                     
5538: 3D         DEC     A               
5539: FF         RST     0X38            
553A: FF         RST     0X38            
553B: FF         RST     0X38            
553C: 69         LD      L,C             
553D: 6F         LD      L,A             
553E: FF         RST     0X38            
553F: EF         RST     0X28            
5540: C1         POP     BC              
5541: FE C0      CP      $C0             
5543: FF         RST     0X38            
5544: C0         RET     NZ              
5545: FF         RST     0X38            
5546: C0         RET     NZ              
5547: FF         RST     0X38            
5548: C0         RET     NZ              
5549: FF         RST     0X38            
554A: E0 7F      LDFF00  ($7F),A         
554C: 78         LD      A,B             
554D: 3F         CCF                     
554E: BF         CP      A               
554F: 1F         RRA                     
5550: 1F         RRA                     
5551: E0 F8      LDFF00  ($F8),A         
5553: 07         RLCA                    
5554: E0 1F      LDFF00  ($1F),A         
5556: 00         NOP                     
5557: FF         RST     0X38            
5558: 20 FF      JR      NZ,$5559        
555A: 00         NOP                     
555B: FF         RST     0X38            
555C: 07         RLCA                    
555D: FF         RST     0X38            
555E: FF         RST     0X38            
555F: FF         RST     0X38            
5560: F8 07      LDHL    SP,$07          
5562: 1F         RRA                     
5563: E0 47      LDFF00  ($47),A         
5565: F8 40      LDHL    SP,$40          
5567: BF         CP      A               
5568: 00         NOP                     
5569: FF         RST     0X38            
556A: 00         NOP                     
556B: FF         RST     0X38            
556C: E0 FF      LDFF00  ($FF),A         
556E: FF         RST     0X38            
556F: FF         RST     0X38            
5570: 83         ADD     A,E             
5571: 7F         LD      A,A             
5572: 03         INC     BC              
5573: FF         RST     0X38            
5574: 03         INC     BC              
5575: FF         RST     0X38            
5576: 03         INC     BC              
5577: FF         RST     0X38            
5578: 03         INC     BC              
5579: FF         RST     0X38            
557A: 07         RLCA                    
557B: FE 1E      CP      $1E             
557D: FC         ???                     
557E: FD         ???                     
557F: F8 3F      LDHL    SP,$3F          
5581: 70         LD      (HL),B          
5582: 3F         CCF                     
5583: BC         CP      H               
5584: 3E BF      LD      A,$BF           
5586: 3E 7B      LD      A,$7B           
5588: FE FB      CP      $FB             
558A: FA 03 FF   LD      A,($FF03)       
558D: FE FF      CP      $FF             
558F: 00         NOP                     
5590: C3 3F C3   JP      $C33F           
5593: 3F         CCF                     
5594: 83         ADD     A,E             
5595: 7F         LD      A,A             
5596: 83         ADD     A,E             
5597: 7F         LD      A,A             
5598: 83         ADD     A,E             
5599: 7F         LD      A,A             
559A: C7         RST     0X00            
559B: 3F         CCF                     
559C: C7         RST     0X00            
559D: 3F         CCF                     
559E: C7         RST     0X00            
559F: 3F         CCF                     
55A0: 00         NOP                     
55A1: 00         NOP                     
55A2: 10 00      STOP    $00             
55A4: 54         LD      D,H             
55A5: 00         NOP                     
55A6: 28 00      JR      Z,$55A8         
55A8: 00         NOP                     
55A9: 00         NOP                     
55AA: 00         NOP                     
55AB: 00         NOP                     
55AC: 00         NOP                     
55AD: 00         NOP                     
55AE: 00         NOP                     
55AF: 00         NOP                     
55B0: 00         NOP                     
55B1: FF         RST     0X38            
55B2: 00         NOP                     
55B3: 00         NOP                     
55B4: 00         NOP                     
55B5: 00         NOP                     
55B6: 00         NOP                     
55B7: FF         RST     0X38            
55B8: 00         NOP                     
55B9: FF         RST     0X38            
55BA: 00         NOP                     
55BB: 00         NOP                     
55BC: 00         NOP                     
55BD: 00         NOP                     
55BE: 00         NOP                     
55BF: FF         RST     0X38            
55C0: 7F         LD      A,A             
55C1: FF         RST     0X38            
55C2: E0 FF      LDFF00  ($FF),A         
55C4: CF         RST     0X08            
55C5: F0 90      LD      A,($90)         
55C7: E0 A0      LDFF00  ($A0),A         
55C9: C0         RET     NZ              
55CA: A3         AND     E               
55CB: C0         RET     NZ              
55CC: A6         AND     (HL)            
55CD: C1         POP     BC              
55CE: A5         AND     L               
55CF: C3 FE FF   JP      $FFFE           
55D2: 03         INC     BC              
55D3: FF         RST     0X38            
55D4: F9         LD      SP,HL           
55D5: 07         RLCA                    
55D6: 0D         DEC     C               
55D7: 03         INC     BC              
55D8: 05         DEC     B               
55D9: 03         INC     BC              
55DA: C5         PUSH    BC              
55DB: 03         INC     BC              
55DC: 65         LD      H,L             
55DD: 83         ADD     A,E             
55DE: A5         AND     L               
55DF: C3 BD 7E   JP      $7EBD           
55E2: 5A         LD      E,D             
55E3: E7         RST     0X20            
55E4: A5         AND     L               
55E5: C3 A5 C3   JP      $C3A5           
55E8: A5         AND     L               
55E9: C3 A5 C3   JP      $C3A5           
55EC: AD         XOR     L               
55ED: C3 A5 C3   JP      $C3A5           
55F0: A5         AND     L               
55F1: C3 A5 C3   JP      $C3A5           
55F4: A5         AND     L               
55F5: C3 BD C3   JP      $C3BD           
55F8: 99         SBC     C               
55F9: E7         RST     0X20            
55FA: 81         ADD     A,C             
55FB: FF         RST     0X38            
55FC: 42         LD      B,D             
55FD: FF         RST     0X38            
55FE: BD         CP      L               
55FF: 7E         LD      A,(HL)          
5600: FF         RST     0X38            
5601: FF         RST     0X38            
5602: 80         ADD     A,B             
5603: 80         ADD     A,B             
5604: 9E         SBC     (HL)            
5605: 9E         SBC     (HL)            
5606: 9E         SBC     (HL)            
5607: 92         SUB     D               
5608: 9E         SBC     (HL)            
5609: 92         SUB     D               
560A: 9E         SBC     (HL)            
560B: 92         SUB     D               
560C: 9E         SBC     (HL)            
560D: 9E         SBC     (HL)            
560E: 80         ADD     A,B             
560F: 80         ADD     A,B             
5610: FF         RST     0X38            
5611: FF         RST     0X38            
5612: 01 01 79   LD      BC,$7901        
5615: 79         LD      A,C             
5616: 79         LD      A,C             
5617: 49         LD      C,C             
5618: 79         LD      A,C             
5619: 49         LD      C,C             
561A: 79         LD      A,C             
561B: 49         LD      C,C             
561C: 79         LD      A,C             
561D: 79         LD      A,C             
561E: 01 01 FF   LD      BC,$FF01        
5621: FF         RST     0X38            
5622: 80         ADD     A,B             
5623: 80         ADD     A,B             
5624: A0         AND     B               
5625: BF         CP      A               
5626: A0         AND     B               
5627: BF         CP      A               
5628: A0         AND     B               
5629: BF         CP      A               
562A: A0         AND     B               
562B: BF         CP      A               
562C: BF         CP      A               
562D: BF         CP      A               
562E: BF         CP      A               
562F: BF         CP      A               
5630: FF         RST     0X38            
5631: FF         RST     0X38            
5632: 01 01 05   LD      BC,$0501        
5635: FD         ???                     
5636: 05         DEC     B               
5637: FD         ???                     
5638: 05         DEC     B               
5639: FD         ???                     
563A: 05         DEC     B               
563B: FD         ???                     
563C: FD         ???                     
563D: FD         ???                     
563E: FD         ???                     
563F: FD         ???                     
5640: F3         DI                      
5641: 0F         RRCA                    
5642: CF         RST     0X08            
5643: 3F         CCF                     
5644: 9F         SBC     A               
5645: 7F         LD      A,A             
5646: 3F         CCF                     
5647: FF         RST     0X38            
5648: 3F         CCF                     
5649: FF         RST     0X38            
564A: 3F         CCF                     
564B: FF         RST     0X38            
564C: 3F         CCF                     
564D: FF         RST     0X38            
564E: 7F         LD      A,A             
564F: FF         RST     0X38            
5650: CF         RST     0X08            
5651: F0 F3      LD      A,($F3)         
5653: FC         ???                     
5654: F9         LD      SP,HL           
5655: FE FC      CP      $FC             
5657: FF         RST     0X38            
5658: FC         ???                     
5659: FF         RST     0X38            
565A: FC         ???                     
565B: FF         RST     0X38            
565C: FC         ???                     
565D: FF         RST     0X38            
565E: FE FF      CP      $FF             
5660: BF         CP      A               
5661: FF         RST     0X38            
5662: FF         RST     0X38            
5663: 3F         CCF                     
5664: BF         CP      A               
5665: 7F         LD      A,A             
5666: 1F         RRA                     
5667: FF         RST     0X38            
5668: 1F         RRA                     
5669: FF         RST     0X38            
566A: 20 FF      JR      NZ,$566B        
566C: 5F         LD      E,A             
566D: E0 BF      LDFF00  ($BF),A         
566F: C0         RET     NZ              
5670: FD         ???                     
5671: FF         RST     0X38            
5672: FF         RST     0X38            
5673: FC         ???                     
5674: FD         ???                     
5675: FE F8      CP      $F8             
5677: FF         RST     0X38            
5678: F8 FF      LDHL    SP,$FF          
567A: 04         INC     B               
567B: FF         RST     0X38            
567C: FA 07 FD   LD      A,($FD07)       
567F: 03         INC     BC              
5680: 44         LD      B,H             
5681: 09         ADD     HL,BC           
5682: DB         ???                     
5683: 6D         LD      L,L             
5684: 2D         DEC     L               
5685: 7F         LD      A,A             
5686: FF         RST     0X38            
5687: 3F         CCF                     
5688: 3F         CCF                     
5689: FF         RST     0X38            
568A: FF         RST     0X38            
568B: FF         RST     0X38            
568C: FF         RST     0X38            
568D: 7F         LD      A,A             
568E: 3F         CCF                     
568F: 7F         LD      A,A             
5690: 22         LD      (HLI),A         
5691: 90         SUB     B               
5692: DB         ???                     
5693: B6         OR      (HL)            
5694: B4         OR      H               
5695: FE FF      CP      $FF             
5697: FC         ???                     
5698: FE FD      CP      $FD             
569A: FF         RST     0X38            
569B: FF         RST     0X38            
569C: FF         RST     0X38            
569D: FE FC      CP      $FC             
569F: FE 04      CP      $04             
56A1: 09         ADD     HL,BC           
56A2: 7F         LD      A,A             
56A3: 0D         DEC     C               
56A4: 3B         DEC     SP              
56A5: 6F         LD      L,A             
56A6: 70         LD      (HL),B          
56A7: 3F         CCF                     
56A8: E7         RST     0X20            
56A9: 38 E9      JR      C,$5694         
56AB: B0         OR      B               
56AC: 58         LD      E,B             
56AD: E0 19      LDFF00  ($19),A         
56AF: 60         LD      H,B             
56B0: 30 10      JR      NC,$56C2        
56B2: F6 30      OR      $30             
56B4: DC F6 0C   CALL    C,$0CF6         
56B7: FC         ???                     
56B8: E5         PUSH    HL              
56B9: 1C         INC     E               
56BA: 17         RLA                     
56BB: 0D         DEC     C               
56BC: 9A         SBC     D               
56BD: 07         RLCA                    
56BE: 48         LD      C,B             
56BF: 06 00      LD      B,$00           
56C1: 00         NOP                     
56C2: 00         NOP                     
56C3: 00         NOP                     
56C4: 00         NOP                     
56C5: 00         NOP                     
56C6: 00         NOP                     
56C7: 00         NOP                     
56C8: 00         NOP                     
56C9: 00         NOP                     
56CA: 00         NOP                     
56CB: 00         NOP                     
56CC: 00         NOP                     
56CD: 00         NOP                     
56CE: 00         NOP                     
56CF: 00         NOP                     
56D0: 00         NOP                     
56D1: 00         NOP                     
56D2: 00         NOP                     
56D3: 00         NOP                     
56D4: 00         NOP                     
56D5: 00         NOP                     
56D6: 00         NOP                     
56D7: 00         NOP                     
56D8: 00         NOP                     
56D9: 00         NOP                     
56DA: 00         NOP                     
56DB: 00         NOP                     
56DC: 00         NOP                     
56DD: 00         NOP                     
56DE: 00         NOP                     
56DF: 00         NOP                     
56E0: 00         NOP                     
56E1: 00         NOP                     
56E2: 00         NOP                     
56E3: 00         NOP                     
56E4: 00         NOP                     
56E5: 00         NOP                     
56E6: 00         NOP                     
56E7: 00         NOP                     
56E8: 00         NOP                     
56E9: 00         NOP                     
56EA: 00         NOP                     
56EB: 00         NOP                     
56EC: 00         NOP                     
56ED: 00         NOP                     
56EE: 00         NOP                     
56EF: 00         NOP                     
56F0: 00         NOP                     
56F1: 00         NOP                     
56F2: 00         NOP                     
56F3: 00         NOP                     
56F4: 00         NOP                     
56F5: 00         NOP                     
56F6: 00         NOP                     
56F7: 00         NOP                     
56F8: 00         NOP                     
56F9: 00         NOP                     
56FA: 00         NOP                     
56FB: 00         NOP                     
56FC: 00         NOP                     
56FD: 00         NOP                     
56FE: 00         NOP                     
56FF: 00         NOP                     
5700: 80         ADD     A,B             
5701: 80         ADD     A,B             
5702: FF         RST     0X38            
5703: FF         RST     0X38            
5704: F7         RST     0X30            
5705: 9D         SBC     L               
5706: F7         RST     0X30            
5707: 9D         SBC     L               
5708: F7         RST     0X30            
5709: 9C         SBC     H               
570A: FF         RST     0X38            
570B: 9F         SBC     A               
570C: FF         RST     0X38            
570D: 80         ADD     A,B             
570E: FF         RST     0X38            
570F: FF         RST     0X38            
5710: 01 01 FF   LD      BC,$FF01        
5713: FF         RST     0X38            
5714: EF         RST     0X28            
5715: B9         CP      C               
5716: EF         RST     0X28            
5717: B9         CP      C               
5718: EF         RST     0X28            
5719: 39         ADD     HL,SP           
571A: FF         RST     0X38            
571B: F9         LD      SP,HL           
571C: FF         RST     0X38            
571D: 01 FF FF   LD      BC,$FFFF        
5720: 00         NOP                     
5721: 38 08      JR      C,$572B         
5723: 44         LD      B,H             
5724: 0C         INC     C               
5725: 82         ADD     A,D             
5726: 2C         INC     L               
5727: 82         ADD     A,D             
5728: 6C         LD      L,H             
5729: 82         ADD     A,D             
572A: 00         NOP                     
572B: 7C         LD      A,H             
572C: 00         NOP                     
572D: 00         NOP                     
572E: 00         NOP                     
572F: 00         NOP                     
5730: 00         NOP                     
5731: 00         NOP                     
5732: 00         NOP                     
5733: 00         NOP                     
5734: 00         NOP                     
5735: 00         NOP                     
5736: 00         NOP                     
5737: 1C         INC     E               
5738: 04         INC     B               
5739: 22         LD      (HLI),A         
573A: 0C         INC     C               
573B: 22         LD      (HLI),A         
573C: 22         LD      (HLI),A         
573D: 1C         INC     E               
573E: 00         NOP                     
573F: 00         NOP                     
5740: 7E         LD      A,(HL)          
5741: 00         NOP                     
5742: FF         RST     0X38            
5743: 00         NOP                     
5744: F7         RST     0X30            
5745: 08 FF 00   LD      ($00FF),SP      
5748: BF         CP      A               
5749: 40         LD      B,B             
574A: FB         EI                      
574B: 00         NOP                     
574C: FF         RST     0X38            
574D: 00         NOP                     
574E: 7E         LD      A,(HL)          
574F: 00         NOP                     
5750: C6 00      ADD     $00             
5752: 64         LD      H,H             
5753: 00         NOP                     
5754: 70         LD      (HL),B          
5755: 00         NOP                     
5756: 31 00 33   LD      SP,$3300        
5759: 00         NOP                     
575A: 37         SCF                     
575B: 00         NOP                     
575C: 16 00      LD      D,$00           
575E: 16 00      LD      D,$00           
5760: 00         NOP                     
5761: 00         NOP                     
5762: 40         LD      B,B             
5763: 00         NOP                     
5764: 00         NOP                     
5765: 00         NOP                     
5766: 04         INC     B               
5767: 00         NOP                     
5768: 00         NOP                     
5769: 00         NOP                     
576A: 10 00      STOP    $00             
576C: 00         NOP                     
576D: 00         NOP                     
576E: 01 00 7E   LD      BC,$7E00        
5771: FF         RST     0X38            
5772: FC         ???                     
5773: FF         RST     0X38            
5774: C3 67 78   JP      $7867           
5777: C0         RET     NZ              
5778: 5F         LD      E,A             
5779: E0 CA      LDFF00  ($CA),A         
577B: 7D         LD      A,L             
577C: 7F         LD      A,A             
577D: 37         SCF                     
577E: 33         INC     SP              
577F: 00         NOP                     
5780: FF         RST     0X38            
5781: 7F         LD      A,A             
5782: 7F         LD      A,A             
5783: FF         RST     0X38            
5784: 3F         CCF                     
5785: 7F         LD      A,A             
5786: 3F         CCF                     
5787: 3F         CCF                     
5788: 3F         CCF                     
5789: FF         RST     0X38            
578A: 1F         RRA                     
578B: 3F         CCF                     
578C: 0B         DEC     BC              
578D: 1F         RRA                     
578E: 00         NOP                     
578F: 33         INC     SP              
5790: FC         ???                     
5791: FE FE      CP      $FE             
5793: FF         RST     0X38            
5794: FC         ???                     
5795: FE FF      CP      $FF             
5797: FC         ???                     
5798: FC         ???                     
5799: FF         RST     0X38            
579A: FC         ???                     
579B: FE 68      CP      $68             
579D: FC         ???                     
579E: 00         NOP                     
579F: 26 26      LD      H,$26           
57A1: 40         LD      B,B             
57A2: 22         LD      (HLI),A         
57A3: C0         RET     NZ              
57A4: 2F         CPL                     
57A5: 40         LD      B,B             
57A6: 31 40 18   LD      SP,$1840        
57A9: E0 0F      LDFF00  ($0F),A         
57AB: 30 03      JR      NC,$57B0        
57AD: 1C         INC     E               
57AE: 00         NOP                     
57AF: 33         INC     SP              
57B0: 3C         INC     A               
57B1: 02         LD      (BC),A          
57B2: 2C         INC     L               
57B3: 03         INC     BC              
57B4: C4 02 24   CALL    NZ,$2402        
57B7: 02         LD      (BC),A          
57B8: 9C         SBC     H               
57B9: 03         INC     BC              
57BA: F8 06      LDHL    SP,$06          
57BC: 00         NOP                     
57BD: FC         ???                     
57BE: 00         NOP                     
57BF: 26 FF      LD      H,$FF           
57C1: 00         NOP                     
57C2: FF         RST     0X38            
57C3: 00         NOP                     
57C4: FF         RST     0X38            
57C5: 00         NOP                     
57C6: FF         RST     0X38            
57C7: 00         NOP                     
57C8: FF         RST     0X38            
57C9: 00         NOP                     
57CA: FF         RST     0X38            
57CB: 00         NOP                     
57CC: FF         RST     0X38            
57CD: 00         NOP                     
57CE: FF         RST     0X38            
57CF: 00         NOP                     
57D0: 00         NOP                     
57D1: FF         RST     0X38            
57D2: 00         NOP                     
57D3: FF         RST     0X38            
57D4: 00         NOP                     
57D5: FF         RST     0X38            
57D6: 00         NOP                     
57D7: FF         RST     0X38            
57D8: 00         NOP                     
57D9: FF         RST     0X38            
57DA: 00         NOP                     
57DB: FF         RST     0X38            
57DC: 00         NOP                     
57DD: FF         RST     0X38            
57DE: 00         NOP                     
57DF: FF         RST     0X38            
57E0: FF         RST     0X38            
57E1: FF         RST     0X38            
57E2: FF         RST     0X38            
57E3: FF         RST     0X38            
57E4: FF         RST     0X38            
57E5: FF         RST     0X38            
57E6: FF         RST     0X38            
57E7: FF         RST     0X38            
57E8: FF         RST     0X38            
57E9: FF         RST     0X38            
57EA: FF         RST     0X38            
57EB: FF         RST     0X38            
57EC: FF         RST     0X38            
57ED: FF         RST     0X38            
57EE: FF         RST     0X38            
57EF: FF         RST     0X38            
57F0: 00         NOP                     
57F1: 00         NOP                     
57F2: 00         NOP                     
57F3: 00         NOP                     
57F4: 00         NOP                     
57F5: 00         NOP                     
57F6: 00         NOP                     
57F7: 00         NOP                     
57F8: 00         NOP                     
57F9: 00         NOP                     
57FA: 00         NOP                     
57FB: 00         NOP                     
57FC: 00         NOP                     
57FD: 00         NOP                     
57FE: 00         NOP                     
57FF: 00         NOP                     
5800: 07         RLCA                    
5801: 00         NOP                     
5802: 0B         DEC     BC              
5803: 07         RLCA                    
5804: 1B         DEC     DE              
5805: 04         INC     B               
5806: 3F         CCF                     
5807: 13         INC     DE              
5808: 3F         CCF                     
5809: 14         INC     D               
580A: 3F         CCF                     
580B: 10 27      STOP    $27             
580D: 18 1F      JR      $582E           
580F: 0D         DEC     C               
5810: 17         RLA                     
5811: 0D         DEC     C               
5812: 2B         DEC     HL              
5813: 17         RLA                     
5814: 6F         LD      L,A             
5815: 30 78      JR      NC,$588F        
5817: 27         DAA                     
5818: 37         SCF                     
5819: 0F         RRCA                    
581A: 1E 01      LD      E,$01           
581C: 37         SCF                     
581D: 0E 1F      LD      C,$1F           
581F: 00         NOP                     
5820: C0         RET     NZ              
5821: 00         NOP                     
5822: 20 C0      JR      NZ,$57E4        
5824: 18 E0      JR      $5806           
5826: DC E8 FC   CALL    C,$FCE8         
5829: 28 FC      JR      Z,$5827         
582B: 08 E4 18   LD      ($18E4),SP      
582E: F8 B0      LDHL    SP,$B0          
5830: E8 B0      ADD     SP,$B0          
5832: D4 E8 F4   CALL    NC,$F4E8        
5835: 08 74 B8   LD      ($B874),SP      
5838: F8 B0      LDHL    SP,$B0          
583A: 30 C0      JR      NC,$57FC        
583C: F8 00      LDHL    SP,$00          
583E: F0 00      LD      A,($00)         
5840: 03         INC     BC              
5841: 00         NOP                     
5842: 07         RLCA                    
5843: 00         NOP                     
5844: 07         RLCA                    
5845: 03         INC     BC              
5846: 1F         RRA                     
5847: 04         INC     B               
5848: 3D         DEC     A               
5849: 13         INC     DE              
584A: 39         ADD     HL,SP           
584B: 17         RLA                     
584C: 3A         LD      A,(HLD)         
584D: 15         DEC     D               
584E: 2C         INC     L               
584F: 13         INC     DE              
5850: 1C         INC     E               
5851: 03         INC     BC              
5852: 14         INC     D               
5853: 0B         DEC     BC              
5854: 34         INC     (HL)            
5855: 1B         DEC     DE              
5856: 3B         DEC     SP              
5857: 14         INC     D               
5858: 17         RLA                     
5859: 0F         RRCA                    
585A: 18 07      JR      $5863           
585C: 1F         RRA                     
585D: 00         NOP                     
585E: 0F         RRCA                    
585F: 00         NOP                     
5860: 80         ADD     A,B             
5861: 00         NOP                     
5862: C0         RET     NZ              
5863: 00         NOP                     
5864: E0 C0      LDFF00  ($C0),A         
5866: F8 20      LDHL    SP,$20          
5868: BC         CP      H               
5869: C8         RET     Z               
586A: 9C         SBC     H               
586B: E8 9C      ADD     SP,$9C          
586D: E8 94      ADD     SP,$94          
586F: E8 38      ADD     SP,$38          
5871: C0         RET     NZ              
5872: 54         LD      D,H             
5873: A8         XOR     B               
5874: 94         SUB     H               
5875: 68         LD      L,B             
5876: 2C         INC     L               
5877: F0 C8      LD      A,($C8)         
5879: F0 38      LD      A,($38)         
587B: C0         RET     NZ              
587C: FC         ???                     
587D: 30 F8      JR      NC,$5877        
587F: 00         NOP                     
5880: 03         INC     BC              
5881: 00         NOP                     
5882: 0D         DEC     C               
5883: 03         INC     BC              
5884: 1E 0D      LD      E,$0D           
5886: 77         LD      (HL),A          
5887: 0E 3B      LD      C,$3B           
5889: 07         RLCA                    
588A: 0E 01      LD      C,$01           
588C: 3F         CCF                     
588D: 0A         LD      A,(BC)          
588E: 3F         CCF                     
588F: 1B         DEC     DE              
5890: 17         RLA                     
5891: 0F         RRCA                    
5892: 08 07 0F   LD      ($0F07),SP      
5895: 00         NOP                     
5896: 0B         DEC     BC              
5897: 05         DEC     B               
5898: 0F         RRCA                    
5899: 05         DEC     B               
589A: 0B         DEC     BC              
589B: 04         INC     B               
589C: 0F         RRCA                    
589D: 01 1F 00   LD      BC,$001F        
58A0: E0 00      LDFF00  ($00),A         
58A2: 10 E0      STOP    $E0             
58A4: C8         RET     Z               
58A5: F0 24      LD      A,($24)         
58A7: D8         RET     C               
58A8: F2         ???                     
58A9: 2C         INC     L               
58AA: B2         OR      D               
58AB: 6C         LD      L,H             
58AC: F4         ???                     
58AD: 68         LD      L,B             
58AE: F8 60      LDHL    SP,$60          
58B0: D0         RET     NC              
58B1: 60         LD      H,B             
58B2: B0         OR      B               
58B3: 40         LD      B,B             
58B4: D0         RET     NC              
58B5: 20 C8      JR      NZ,$587F        
58B7: B0         OR      B               
58B8: C8         RET     Z               
58B9: B0         OR      B               
58BA: F8 00      LDHL    SP,$00          
58BC: F0 E0      LD      A,($E0)         
58BE: F8 00      LDHL    SP,$00          
58C0: 00         NOP                     
58C1: 00         NOP                     
58C2: 03         INC     BC              
58C3: 00         NOP                     
58C4: 2D         DEC     L               
58C5: 03         INC     BC              
58C6: 3E 0D      LD      A,$0D           
58C8: 37         SCF                     
58C9: 0E 1B      LD      C,$1B           
58CB: 07         RLCA                    
58CC: 0E 01      LD      C,$01           
58CE: 3F         CCF                     
58CF: 0A         LD      A,(BC)          
58D0: 3F         CCF                     
58D1: 1B         DEC     DE              
58D2: 17         RLA                     
58D3: 0F         RRCA                    
58D4: 0F         RRCA                    
58D5: 00         NOP                     
58D6: 07         RLCA                    
58D7: 03         INC     BC              
58D8: 07         RLCA                    
58D9: 03         INC     BC              
58DA: 0F         RRCA                    
58DB: 00         NOP                     
58DC: 1F         RRA                     
58DD: 0F         RRCA                    
58DE: 1F         RRA                     
58DF: 00         NOP                     
58E0: 00         NOP                     
58E1: 00         NOP                     
58E2: F0 00      LD      A,($00)         
58E4: 8C         ADC     A,H             
58E5: F0 62      LD      A,($62)         
58E7: FC         ???                     
58E8: 22         LD      (HLI),A         
58E9: DC F2 2C   CALL    C,$2CF2         
58EC: B4         OR      H               
58ED: 68         LD      L,B             
58EE: F4         ???                     
58EF: 68         LD      L,B             
58F0: F8 60      LDHL    SP,$60          
58F2: D0         RET     NC              
58F3: 60         LD      H,B             
58F4: F0 00      LD      A,($00)         
58F6: 98         SBC     B               
58F7: 60         LD      H,B             
58F8: 9C         SBC     H               
58F9: 68         LD      L,B             
58FA: 3C         INC     A               
58FB: C8         RET     Z               
58FC: FC         ???                     
58FD: 18 FE      JR      $58FD           
58FF: 00         NOP                     
5900: 00         NOP                     
5901: 00         NOP                     
5902: 8F         ADC     A,A             
5903: 00         NOP                     
5904: F4         ???                     
5905: 0F         RRCA                    
5906: FB         EI                      
5907: 37         SCF                     
5908: FC         ???                     
5909: 1B         DEC     DE              
590A: 6F         LD      L,A             
590B: 1C         INC     E               
590C: 3A         LD      A,(HLD)         
590D: 05         DEC     B               
590E: 7F         LD      A,A             
590F: 29         ADD     HL,HL           
5910: FF         RST     0X38            
5911: 6D         LD      L,L             
5912: 7F         LD      A,A             
5913: 00         NOP                     
5914: 78         LD      A,B             
5915: 37         SCF                     
5916: 78         LD      A,B             
5917: 37         SCF                     
5918: 3C         INC     A               
5919: 03         INC     BC              
591A: 03         INC     BC              
591B: 00         NOP                     
591C: 00         NOP                     
591D: 00         NOP                     
591E: 00         NOP                     
591F: 00         NOP                     
5920: 00         NOP                     
5921: 00         NOP                     
5922: 80         ADD     A,B             
5923: 00         NOP                     
5924: 60         LD      H,B             
5925: 80         ADD     A,B             
5926: 10 E0      STOP    $E0             
5928: 88         ADC     A,B             
5929: 70         LD      (HL),B          
592A: C4 B8 C4   CALL    NZ,$C4B8        
592D: B8         CP      B               
592E: CC B0 7E   CALL    Z,$7EB0         
5931: 84         ADD     A,H             
5932: AF         XOR     A               
5933: 76         HALT                    
5934: 2F         CPL                     
5935: F6 2B      OR      $2B             
5937: F6 2D      OR      $2D             
5939: F2         ???                     
593A: 2B         DEC     HL              
593B: F0 F8      LD      A,($F8)         
593D: 00         NOP                     
593E: 00         NOP                     
593F: 00         NOP                     
5940: 00         NOP                     
5941: 00         NOP                     
5942: 4F         LD      C,A             
5943: 00         NOP                     
5944: F4         ???                     
5945: 0F         RRCA                    
5946: FB         EI                      
5947: 17         RLA                     
5948: FC         ???                     
5949: 1B         DEC     DE              
594A: 6F         LD      L,A             
594B: 1C         INC     E               
594C: 3A         LD      A,(HLD)         
594D: 05         DEC     B               
594E: 7F         LD      A,A             
594F: 29         ADD     HL,HL           
5950: FF         RST     0X38            
5951: 6D         LD      L,L             
5952: 7F         LD      A,A             
5953: 00         NOP                     
5954: 78         LD      A,B             
5955: 37         SCF                     
5956: 78         LD      A,B             
5957: 37         SCF                     
5958: 3C         INC     A               
5959: 03         INC     BC              
595A: 03         INC     BC              
595B: 00         NOP                     
595C: 00         NOP                     
595D: 00         NOP                     
595E: 00         NOP                     
595F: 00         NOP                     
5960: 00         NOP                     
5961: 00         NOP                     
5962: 80         ADD     A,B             
5963: 00         NOP                     
5964: 60         LD      H,B             
5965: 80         ADD     A,B             
5966: 10 E0      STOP    $E0             
5968: 88         ADC     A,B             
5969: 70         LD      (HL),B          
596A: C4 B8 C6   CALL    NZ,$C6B8        
596D: B8         CP      B               
596E: DF         RST     0X18            
596F: A6         AND     (HL)            
5970: 6B         LD      L,E             
5971: 96         SUB     (HL)            
5972: AD         XOR     L               
5973: 72         LD      (HL),D          
5974: 2F         CPL                     
5975: F4         ???                     
5976: 2F         CPL                     
5977: F6 2F      OR      $2F             
5979: F6 2F      OR      $2F             
597B: F6 FF      OR      $FF             
597D: 02         LD      (BC),A          
597E: 07         RLCA                    
597F: 00         NOP                     
5980: 00         NOP                     
5981: 00         NOP                     
5982: 07         RLCA                    
5983: 00         NOP                     
5984: 08 07 33   LD      ($3307),SP      
5987: 0F         RRCA                    
5988: 72         LD      (HL),D          
5989: 2F         CPL                     
598A: 7C         LD      A,H             
598B: 23         INC     HL              
598C: 77         LD      (HL),A          
598D: 2F         CPL                     
598E: 5F         LD      E,A             
598F: 20 2F      JR      NZ,$59C0        
5991: 10 2F      STOP    $2F             
5993: 1B         DEC     DE              
5994: 37         SCF                     
5995: 0F         RRCA                    
5996: 2F         CPL                     
5997: 10 11      STOP    $11             
5999: 0E 1F      LD      C,$1F           
599B: 00         NOP                     
599C: 3F         CCF                     
599D: 0E 1F      LD      C,$1F           
599F: 00         NOP                     
59A0: 00         NOP                     
59A1: 00         NOP                     
59A2: 80         ADD     A,B             
59A3: 00         NOP                     
59A4: 40         LD      B,B             
59A5: 80         ADD     A,B             
59A6: 30 C0      JR      NC,$5968        
59A8: 38 D0      JR      C,$597A         
59AA: F8 10      LDHL    SP,$10          
59AC: BC         CP      H               
59AD: D0         RET     NC              
59AE: EC         ???                     
59AF: 10 DE      STOP    $DE             
59B1: 2C         INC     L               
59B2: DE 6C      SBC     $6C             
59B4: BC         CP      H               
59B5: D0         RET     NC              
59B6: F8 30      LDHL    SP,$30          
59B8: 74         LD      (HL),H          
59B9: 88         ADC     A,B             
59BA: AC         XOR     H               
59BB: D8         RET     C               
59BC: D8         RET     C               
59BD: 70         LD      (HL),B          
59BE: F8 00      LDHL    SP,$00          
59C0: 11 00 3A   LD      DE,$3A00        
59C3: 11 6F 38   LD      DE,$386F        
59C6: D7         RST     0X10            
59C7: 6C         LD      L,H             
59C8: BB         CP      E               
59C9: 54         LD      D,H             
59CA: FF         RST     0X38            
59CB: 00         NOP                     
59CC: 3F         CCF                     
59CD: 1A         LD      A,(DE)          
59CE: 3F         CCF                     
59CF: 12         LD      (DE),A          
59D0: 1F         RRA                     
59D1: 0B         DEC     BC              
59D2: 1F         RRA                     
59D3: 0D         DEC     C               
59D4: 0D         DEC     C               
59D5: 02         LD      (BC),A          
59D6: 04         INC     B               
59D7: 03         INC     BC              
59D8: 07         RLCA                    
59D9: 00         NOP                     
59DA: 0F         RRCA                    
59DB: 03         INC     BC              
59DC: 07         RLCA                    
59DD: 00         NOP                     
59DE: 00         NOP                     
59DF: 00         NOP                     
59E0: F0 00      LD      A,($00)         
59E2: 6C         LD      L,H             
59E3: F0 FA      LD      A,($FA)         
59E5: 1C         INC     E               
59E6: DB         ???                     
59E7: E4         ???                     
59E8: E7         RST     0X20            
59E9: 3A         LD      A,(HLD)         
59EA: F7         RST     0X30            
59EB: 0A         LD      A,(BC)          
59EC: FD         ???                     
59ED: D6 FB      SUB     $FB             
59EF: D4 F6 78   CALL    NC,$78F6        
59F2: EC         ???                     
59F3: 30 F4      JR      NC,$59E9        
59F5: 08 3C D8   LD      ($D83C),SP      
59F8: C4 38 F8   CALL    NZ,$F838        
59FB: 80         ADD     A,B             
59FC: FC         ???                     
59FD: 38 F8      JR      C,$59F7         
59FF: 00         NOP                     
5A00: 03         INC     BC              
5A01: 00         NOP                     
5A02: 06 01      LD      B,$01           
5A04: 1D         DEC     E               
5A05: 03         INC     BC              
5A06: 39         ADD     HL,SP           
5A07: 17         RLA                     
5A08: 3E 11      LD      A,$11           
5A0A: 3F         CCF                     
5A0B: 17         RLA                     
5A0C: 67         LD      H,A             
5A0D: 18 FB      JR      $5A0A           
5A0F: 6C         LD      L,H             
5A10: 77         LD      (HL),A          
5A11: 2D         DEC     L               
5A12: 3B         DEC     SP              
5A13: 07         RLCA                    
5A14: 17         RLA                     
5A15: 08 3A 07   LD      ($073A),SP      
5A18: 25         DEC     H               
5A19: 1B         DEC     DE              
5A1A: 1E 01      LD      E,$01           
5A1C: 03         INC     BC              
5A1D: 00         NOP                     
5A1E: 01 00 E0   LD      BC,$E000        
5A21: 00         NOP                     
5A22: 90         SUB     B               
5A23: E0 B8      LDFF00  ($B8),A         
5A25: C0         RET     NZ              
5A26: 9C         SBC     H               
5A27: E8 FC      ADD     SP,$FC          
5A29: 08 FC E8   LD      ($E8FC),SP      
5A2C: E4         ???                     
5A2D: 18 D8      JR      $5A07           
5A2F: 30 E8      JR      NC,$5A19        
5A31: B0         OR      B               
5A32: D0         RET     NC              
5A33: E0 E8      LDFF00  ($E8),A         
5A35: 10 48      STOP    $48             
5A37: B0         OR      B               
5A38: F8 80      LDHL    SP,$80          
5A3A: 78         LD      A,B             
5A3B: B0         OR      B               
5A3C: FC         ???                     
5A3D: 30 F8      JR      NC,$5A37        
5A3F: 00         NOP                     
5A40: 1F         RRA                     
5A41: 00         NOP                     
5A42: 3F         CCF                     
5A43: 1B         DEC     DE              
5A44: 3F         CCF                     
5A45: 04         INC     B               
5A46: 3D         DEC     A               
5A47: 13         INC     DE              
5A48: 39         ADD     HL,SP           
5A49: 17         RLA                     
5A4A: 29         ADD     HL,HL           
5A4B: 17         RLA                     
5A4C: 19         ADD     HL,DE           
5A4D: 07         RLCA                    
5A4E: 0C         INC     C               
5A4F: 03         INC     BC              
5A50: 12         LD      (DE),A          
5A51: 0D         DEC     C               
5A52: 15         DEC     D               
5A53: 0E 12      LD      C,$12           
5A55: 0F         RRCA                    
5A56: 19         ADD     HL,DE           
5A57: 07         RLCA                    
5A58: 0C         INC     C               
5A59: 03         INC     BC              
5A5A: 07         RLCA                    
5A5B: 00         NOP                     
5A5C: 03         INC     BC              
5A5D: 00         NOP                     
5A5E: 00         NOP                     
5A5F: 00         NOP                     
5A60: C0         RET     NZ              
5A61: 00         NOP                     
5A62: E0 C0      LDFF00  ($C0),A         
5A64: F8 20      LDHL    SP,$20          
5A66: BC         CP      H               
5A67: C8         RET     Z               
5A68: 9C         SBC     H               
5A69: E8 14      ADD     SP,$14          
5A6B: E8 58      ADD     SP,$58          
5A6D: A0         AND     B               
5A6E: B0         OR      B               
5A6F: C0         RET     NZ              
5A70: 28 D0      JR      Z,$5A42         
5A72: 24         INC     H               
5A73: D8         RET     C               
5A74: EE 1C      XOR     $1C             
5A76: 9E         SBC     (HL)            
5A77: EC         ???                     
5A78: 7C         LD      A,H             
5A79: 80         ADD     A,B             
5A7A: F0 60      LD      A,($60)         
5A7C: F8 60      LDHL    SP,$60          
5A7E: F8 00      LDHL    SP,$00          
5A80: 00         NOP                     
5A81: 00         NOP                     
5A82: 07         RLCA                    
5A83: 00         NOP                     
5A84: 5B         LD      E,E             
5A85: 07         RLCA                    
5A86: 7C         LD      A,H             
5A87: 1B         DEC     DE              
5A88: 6E         LD      L,(HL)          
5A89: 1D         DEC     E               
5A8A: 37         SCF                     
5A8B: 0E 3D      LD      C,$3D           
5A8D: 02         LD      (BC),A          
5A8E: 7F         LD      A,A             
5A8F: 14         INC     D               
5A90: 7F         LD      A,A             
5A91: 36 2F      LD      (HL),$2F        
5A93: 1E 7F      LD      E,$7F           
5A95: 00         NOP                     
5A96: F1         POP     AF              
5A97: 6E         LD      L,(HL)          
5A98: F3         DI                      
5A99: 6D         LD      L,L             
5A9A: 7E         LD      A,(HL)          
5A9B: 01 1F 0E   LD      BC,$0E1F        
5A9E: 3F         CCF                     
5A9F: 00         NOP                     
5AA0: 00         NOP                     
5AA1: 00         NOP                     
5AA2: E0 00      LDFF00  ($00),A         
5AA4: 9C         SBC     H               
5AA5: E0 E2      LDFF00  ($E2),A         
5AA7: FC         ???                     
5AA8: 42         LD      B,D             
5AA9: BC         CP      H               
5AAA: E4         ???                     
5AAB: 58         LD      E,B             
5AAC: 68         LD      L,B             
5AAD: D0         RET     NC              
5AAE: E8 D0      ADD     SP,$D0          
5AB0: F0 C0      LD      A,($C0)         
5AB2: A0         AND     B               
5AB3: C0         RET     NZ              
5AB4: E0 00      LDFF00  ($00),A         
5AB6: 58         LD      E,B             
5AB7: E0 9C      LDFF00  ($9C),A         
5AB9: E8 3C      ADD     SP,$3C          
5ABB: C8         RET     Z               
5ABC: FC         ???                     
5ABD: 18 FE      JR      $5ABD           
5ABF: 00         NOP                     
5AC0: 03         INC     BC              
5AC1: 00         NOP                     
5AC2: 0C         INC     C               
5AC3: 03         INC     BC              
5AC4: 13         INC     DE              
5AC5: 0F         RRCA                    
5AC6: 10 0F      STOP    $0F             
5AC8: 3F         CCF                     
5AC9: 10 6F      STOP    $6F             
5ACB: 1E F7      LD      E,$F7           
5ACD: 0E 7F      LD      C,$7F           
5ACF: 00         NOP                     
5AD0: 1F         RRA                     
5AD1: 0A         LD      A,(BC)          
5AD2: 3E 1F      LD      A,$1F           
5AD4: F1         POP     AF              
5AD5: 0E FE      LD      C,$FE           
5AD7: 41         LD      B,C             
5AD8: BF         CP      A               
5AD9: 56         LD      D,(HL)          
5ADA: 9F         SBC     A               
5ADB: 66         LD      H,(HL)          
5ADC: 87         ADD     A,A             
5ADD: 79         LD      A,C             
5ADE: FD         ???                     
5ADF: 00         NOP                     
5AE0: C0         RET     NZ              
5AE1: 00         NOP                     
5AE2: 30 C0      JR      NC,$5AA4        
5AE4: 88         ADC     A,B             
5AE5: F0 84      LD      A,($84)         
5AE7: 78         LD      A,B             
5AE8: C4 B8 E8   CALL    NZ,$E8B8        
5AEB: D0         RET     NC              
5AEC: F8 C0      LDHL    SP,$C0          
5AEE: F0 C0      LD      A,($C0)         
5AF0: F0 40      LD      A,($40)         
5AF2: C8         RET     Z               
5AF3: 30 48      JR      NC,$5B3D        
5AF5: B0         OR      B               
5AF6: 48         LD      C,B             
5AF7: B0         OR      B               
5AF8: E8 10      ADD     SP,$10          
5AFA: F0 60      LD      A,($60)         
5AFC: F0 C0      LD      A,($C0)         
5AFE: F8 00      LDHL    SP,$00          
5B00: 01 00 02   LD      BC,$0200        
5B03: 01 07 00   LD      BC,$0007        
5B06: 0F         RRCA                    
5B07: 07         RLCA                    
5B08: 3F         CCF                     
5B09: 01 1F 00   LD      BC,$001F        
5B0C: 0F         RRCA                    
5B0D: 00         NOP                     
5B0E: 0F         RRCA                    
5B0F: 05         DEC     B               
5B10: 0B         DEC     BC              
5B11: 07         RLCA                    
5B12: 0F         RRCA                    
5B13: 01 1D 0E   LD      BC,$0E1D        
5B16: 1C         INC     E               
5B17: 0F         RRCA                    
5B18: 0C         INC     C               
5B19: 03         INC     BC              
5B1A: 07         RLCA                    
5B1B: 00         NOP                     
5B1C: 01 00 00   LD      BC,$0000        
5B1F: 00         NOP                     
5B20: E0 00      LDFF00  ($00),A         
5B22: D0         RET     NC              
5B23: E0 08      LDFF00  ($08),A         
5B25: F0 D4      LD      A,($D4)         
5B27: 28 FE      JR      Z,$5B27         
5B29: C4 FA 6C   CALL    NZ,$6CFA        
5B2C: F2         ???                     
5B2D: 1C         INC     E               
5B2E: E6 58      AND     $58             
5B30: EC         ???                     
5B31: 50         LD      D,B             
5B32: B8         CP      B               
5B33: C0         RET     NZ              
5B34: E8 10      ADD     SP,$10          
5B36: 38 D0      JR      C,$5B08         
5B38: 48         LD      C,B             
5B39: B0         OR      B               
5B3A: FC         ???                     
5B3B: 00         NOP                     
5B3C: FC         ???                     
5B3D: 70         LD      (HL),B          
5B3E: F8 00      LDHL    SP,$00          
5B40: 00         NOP                     
5B41: 00         NOP                     
5B42: 17         RLA                     
5B43: 00         NOP                     
5B44: 38 17      JR      C,$5B5D         
5B46: 33         INC     SP              
5B47: 0F         RRCA                    
5B48: 13         INC     DE              
5B49: 0C         INC     C               
5B4A: 17         RLA                     
5B4B: 09         ADD     HL,BC           
5B4C: 16 0D      LD      D,$0D           
5B4E: 15         DEC     D               
5B4F: 0E 10      LD      C,$10           
5B51: 0F         RRCA                    
5B52: 09         ADD     HL,BC           
5B53: 06 17      LD      B,$17           
5B55: 08 13 0E   LD      ($0E13),SP      
5B58: 19         ADD     HL,DE           
5B59: 07         RLCA                    
5B5A: 0C         INC     C               
5B5B: 03         INC     BC              
5B5C: 07         RLCA                    
5B5D: 00         NOP                     
5B5E: 03         INC     BC              
5B5F: 00         NOP                     
5B60: 00         NOP                     
5B61: 00         NOP                     
5B62: F8 00      LDHL    SP,$00          
5B64: FC         ???                     
5B65: 40         LD      B,B             
5B66: 7C         LD      A,H             
5B67: A0         AND     B               
5B68: B8         CP      B               
5B69: 50         LD      D,B             
5B6A: FE 90      CP      $90             
5B6C: FF         RST     0X38            
5B6D: C6 7F      ADD     $7F             
5B6F: D6 BE      SUB     $BE             
5B71: 50         LD      D,B             
5B72: F8 00      LDHL    SP,$00          
5B74: 30 C0      JR      NC,$5B36        
5B76: 70         LD      (HL),B          
5B77: E0 F0      LDFF00  ($F0),A         
5B79: 60         LD      H,B             
5B7A: 70         LD      (HL),B          
5B7B: 80         ADD     A,B             
5B7C: F8 70      LDHL    SP,$70          
5B7E: F8 00      LDHL    SP,$00          
5B80: 0F         RRCA                    
5B81: 00         NOP                     
5B82: 1F         RRA                     
5B83: 0B         DEC     BC              
5B84: 1F         RRA                     
5B85: 06 3E      LD      B,$3E           
5B87: 0D         DEC     C               
5B88: 3B         DEC     SP              
5B89: 0C         INC     C               
5B8A: 77         LD      (HL),A          
5B8B: 09         ADD     HL,BC           
5B8C: 7F         LD      A,A             
5B8D: 03         INC     BC              
5B8E: 1F         RRA                     
5B8F: 0B         DEC     BC              
5B90: 1E 0B      LD      E,$0B           
5B92: 1D         DEC     E               
5B93: 02         LD      (BC),A          
5B94: 17         RLA                     
5B95: 08 1A 07   LD      ($071A),SP      
5B98: 39         ADD     HL,SP           
5B99: 07         RLCA                    
5B9A: 3C         INC     A               
5B9B: 1B         DEC     DE              
5B9C: 3F         CCF                     
5B9D: 0C         INC     C               
5B9E: 1F         RRA                     
5B9F: 00         NOP                     
5BA0: 80         ADD     A,B             
5BA1: 00         NOP                     
5BA2: E0 00      LDFF00  ($00),A         
5BA4: D0         RET     NC              
5BA5: E0 68      LDFF00  ($68),A         
5BA7: F0 BE      LD      A,($BE)         
5BA9: 70         LD      (HL),B          
5BAA: 89         ADC     A,C             
5BAB: 76         HALT                    
5BAC: 91         SUB     C               
5BAD: 6E         LD      L,(HL)          
5BAE: 82         ADD     A,D             
5BAF: 7C         LD      A,H             
5BB0: 84         ADD     A,H             
5BB1: 78         LD      A,B             
5BB2: 38 C0      JR      C,$5B74         
5BB4: E6 18      AND     $18             
5BB6: 27         DAA                     
5BB7: DE D7      SBC     $D7             
5BB9: EE 3E      XOR     $3E             
5BBB: C0         RET     NZ              
5BBC: FC         ???                     
5BBD: 38 FC      JR      C,$5BBB         
5BBF: 00         NOP                     
5BC0: 1B         DEC     DE              
5BC1: 00         NOP                     
5BC2: 3C         INC     A               
5BC3: 1B         DEC     DE              
5BC4: 3F         CCF                     
5BC5: 18 3F      JR      $5C06           
5BC7: 00         NOP                     
5BC8: 2C         INC     L               
5BC9: 13         INC     DE              
5BCA: 2F         CPL                     
5BCB: 13         INC     DE              
5BCC: 2F         CPL                     
5BCD: 17         RLA                     
5BCE: 2F         CPL                     
5BCF: 14         INC     D               
5BD0: 2F         CPL                     
5BD1: 14         INC     D               
5BD2: 2B         DEC     HL              
5BD3: 17         RLA                     
5BD4: 37         SCF                     
5BD5: 08 30 1F   LD      ($1F30),SP      
5BD8: 6F         LD      L,A             
5BD9: 1F         RRA                     
5BDA: D0         RET     NC              
5BDB: 6F         LD      L,A             
5BDC: EF         RST     0X28            
5BDD: 70         LD      (HL),B          
5BDE: FF         RST     0X38            
5BDF: 00         NOP                     
5BE0: 80         ADD     A,B             
5BE1: 00         NOP                     
5BE2: 40         LD      B,B             
5BE3: 80         ADD     A,B             
5BE4: A0         AND     B               
5BE5: C0         RET     NZ              
5BE6: F0 40      LD      A,($40)         
5BE8: F8 10      LDHL    SP,$10          
5BEA: F8 50      LDHL    SP,$50          
5BEC: F8 D0      LDHL    SP,$D0          
5BEE: C8         RET     Z               
5BEF: F0 AE      LD      A,($AE)         
5BF1: D0         RET     NC              
5BF2: 57         LD      D,A             
5BF3: AA         XOR     D               
5BF4: A7         AND     A               
5BF5: 5A         LD      E,D             
5BF6: 3E E0      LD      A,$E0           
5BF8: D8         RET     C               
5BF9: E0 3E      LDFF00  ($3E),A         
5BFB: C8         RET     Z               
5BFC: FF         RST     0X38            
5BFD: 1E FF      LD      E,$FF           
5BFF: 00         NOP                     
5C00: 00         NOP                     
5C01: 00         NOP                     
5C02: 03         INC     BC              
5C03: 00         NOP                     
5C04: 04         INC     B               
5C05: 03         INC     BC              
5C06: 08 07 19   LD      ($1907),SP      
5C09: 07         RLCA                    
5C0A: 3F         CCF                     
5C0B: 10 3F      STOP    $3F             
5C0D: 17         RLA                     
5C0E: 3F         CCF                     
5C0F: 10 2F      STOP    $2F             
5C11: 10 3F      STOP    $3F             
5C13: 04         INC     B               
5C14: 2F         CPL                     
5C15: 15         DEC     D               
5C16: 4F         LD      C,A             
5C17: 33         INC     SP              
5C18: 4F         LD      C,A             
5C19: 30 5E      JR      NC,$5C79        
5C1B: 2D         DEC     L               
5C1C: 3F         CCF                     
5C1D: 0C         INC     C               
5C1E: 1F         RRA                     
5C1F: 00         NOP                     
5C20: 03         INC     BC              
5C21: 00         NOP                     
5C22: 04         INC     B               
5C23: 03         INC     BC              
5C24: 09         ADD     HL,BC           
5C25: 07         RLCA                    
5C26: 1B         DEC     DE              
5C27: 04         INC     B               
5C28: 3F         CCF                     
5C29: 13         INC     DE              
5C2A: 3F         CCF                     
5C2B: 14         INC     D               
5C2C: 3F         CCF                     
5C2D: 10 27      STOP    $27             
5C2F: 18 32      JR      $5C63           
5C31: 0D         DEC     C               
5C32: 36 0D      LD      (HL),$0D        
5C34: 2B         DEC     HL              
5C35: 17         RLA                     
5C36: 27         DAA                     
5C37: 18 2E      JR      $5C67           
5C39: 11 1F 0C   LD      DE,$0C1F        
5C3C: 1F         RRA                     
5C3D: 0C         INC     C               
5C3E: 1E 00      LD      E,$00           
5C40: 33         INC     SP              
5C41: 00         NOP                     
5C42: 7F         LD      A,A             
5C43: 30 7F      JR      NC,$5CC4        
5C45: 33         INC     SP              
5C46: BB         CP      E               
5C47: 44         LD      B,H             
5C48: BC         CP      H               
5C49: 53         LD      D,E             
5C4A: B9         CP      C               
5C4B: 57         LD      D,A             
5C4C: 7A         LD      A,D             
5C4D: 15         DEC     D               
5C4E: 2C         INC     L               
5C4F: 13         INC     DE              
5C50: 1C         INC     E               
5C51: 03         INC     BC              
5C52: 1C         INC     E               
5C53: 0B         DEC     BC              
5C54: 17         RLA                     
5C55: 0C         INC     C               
5C56: 13         INC     DE              
5C57: 0F         RRCA                    
5C58: 1C         INC     E               
5C59: 03         INC     BC              
5C5A: 3F         CCF                     
5C5B: 0C         INC     C               
5C5C: 3F         CCF                     
5C5D: 00         NOP                     
5C5E: 1F         RRA                     
5C5F: 00         NOP                     
5C60: CC 00 FE   CALL    Z,$FE00         
5C63: 0C         INC     C               
5C64: FE CC      CP      $CC             
5C66: DD         ???                     
5C67: 22         LD      (HLI),A         
5C68: 3D         DEC     A               
5C69: CA 9D EA   JP      Z,$EA9D         
5C6C: 5E         LD      E,(HL)          
5C6D: E8 34      ADD     SP,$34          
5C6F: C8         RET     Z               
5C70: 5C         LD      E,H             
5C71: A0         AND     B               
5C72: A8         XOR     B               
5C73: 70         LD      (HL),B          
5C74: 48         LD      C,B             
5C75: F0 B8      LD      A,($B8)         
5C77: C0         RET     NZ              
5C78: 78         LD      A,B             
5C79: B0         OR      B               
5C7A: FC         ???                     
5C7B: 30 CC      JR      NC,$5C49        
5C7D: 30 F8      JR      NC,$5C77        
5C7F: 00         NOP                     
5C80: 33         INC     SP              
5C81: 00         NOP                     
5C82: 7F         LD      A,A             
5C83: 33         INC     SP              
5C84: 7B         LD      A,E             
5C85: 24         INC     H               
5C86: 3C         INC     A               
5C87: 13         INC     DE              
5C88: 39         ADD     HL,SP           
5C89: 17         RLA                     
5C8A: 3A         LD      A,(HLD)         
5C8B: 17         RLA                     
5C8C: 2C         INC     L               
5C8D: 13         INC     DE              
5C8E: 1E 01      LD      E,$01           
5C90: 19         ADD     HL,DE           
5C91: 06 14      LD      B,$14           
5C93: 0F         RRCA                    
5C94: 12         LD      (DE),A          
5C95: 0F         RRCA                    
5C96: 1D         DEC     E               
5C97: 03         INC     BC              
5C98: 1E 0D      LD      E,$0D           
5C9A: 3F         CCF                     
5C9B: 0C         INC     C               
5C9C: 33         INC     SP              
5C9D: 0C         INC     C               
5C9E: 1F         RRA                     
5C9F: 00         NOP                     
5CA0: EC         ???                     
5CA1: 00         NOP                     
5CA2: FE CC      CP      $CC             
5CA4: DE 24      SBC     $24             
5CA6: 3C         INC     A               
5CA7: C8         RET     Z               
5CA8: 9C         SBC     H               
5CA9: E8 5C      ADD     SP,$5C          
5CAB: A8         XOR     B               
5CAC: 34         INC     (HL)            
5CAD: C8         RET     Z               
5CAE: 38 C0      JR      C,$5C70         
5CB0: 28 D0      JR      Z,$5C82         
5CB2: D8         RET     C               
5CB3: 30 28      JR      NC,$5CDD        
5CB5: F0 C8      LD      A,($C8)         
5CB7: F0 38      LD      A,($38)         
5CB9: C0         RET     NZ              
5CBA: FC         ???                     
5CBB: 30 FC      JR      NC,$5CB9        
5CBD: 00         NOP                     
5CBE: F8 00      LDHL    SP,$00          
5CC0: 00         NOP                     
5CC1: 00         NOP                     
5CC2: 07         RLCA                    
5CC3: 00         NOP                     
5CC4: 1B         DEC     DE              
5CC5: 07         RLCA                    
5CC6: FC         ???                     
5CC7: 1B         DEC     DE              
5CC8: 6E         LD      L,(HL)          
5CC9: 1D         DEC     E               
5CCA: 37         SCF                     
5CCB: 0E 3F      LD      C,$3F           
5CCD: 00         NOP                     
5CCE: 7F         LD      A,A             
5CCF: 18 7F      JR      $5D50           
5CD1: 36 EF      LD      (HL),$EF        
5CD3: 1E FF      LD      E,$FF           
5CD5: 40         LD      B,B             
5CD6: F0 6F      LD      A,($6F)         
5CD8: 71         LD      (HL),C          
5CD9: 2E 3F      LD      L,$3F           
5CDB: 00         NOP                     
5CDC: 07         RLCA                    
5CDD: 03         INC     BC              
5CDE: 0F         RRCA                    
5CDF: 00         NOP                     
5CE0: 00         NOP                     
5CE1: 00         NOP                     
5CE2: C0         RET     NZ              
5CE3: 00         NOP                     
5CE4: 30 C0      JR      NC,$5CA6        
5CE6: CC F0 42   CALL    Z,$42F0         
5CE9: BC         CP      H               
5CEA: E2         LDFF00  (C),A           
5CEB: 5C         LD      E,H             
5CEC: 64         LD      H,H             
5CED: D8         RET     C               
5CEE: E8 D0      ADD     SP,$D0          
5CF0: F0 C0      LD      A,($C0)         
5CF2: A0         AND     B               
5CF3: C0         RET     NZ              
5CF4: E0 00      LDFF00  ($00),A         
5CF6: 9C         SBC     H               
5CF7: 60         LD      H,B             
5CF8: EE F4      XOR     $F4             
5CFA: 9E         SBC     (HL)            
5CFB: 64         LD      H,H             
5CFC: FE 8C      CP      $8C             
5CFE: FE 00      CP      $00             
5D00: 07         RLCA                    
5D01: 00         NOP                     
5D02: 1B         DEC     DE              
5D03: 07         RLCA                    
5D04: 7C         LD      A,H             
5D05: 1B         DEC     DE              
5D06: EE 1D      XOR     $1D             
5D08: 77         LD      (HL),A          
5D09: 0E 3F      LD      C,$3F           
5D0B: 00         NOP                     
5D0C: 7F         LD      A,A             
5D0D: 14         INC     D               
5D0E: 7F         LD      A,A             
5D0F: 36 EF      LD      (HL),$EF        
5D11: 1E FF      LD      E,$FF           
5D13: 40         LD      B,B             
5D14: F0 6F      LD      A,($6F)         
5D16: 71         LD      (HL),C          
5D17: 2E 3E      LD      L,$3E           
5D19: 01 03 00   LD      BC,$0003        
5D1C: 01 00 07   LD      BC,$0700        
5D1F: 00         NOP                     
5D20: C0         RET     NZ              
5D21: 00         NOP                     
5D22: 20 C0      JR      NZ,$5CE4        
5D24: D0         RET     NC              
5D25: E0 48      LDFF00  ($48),A         
5D27: B0         OR      B               
5D28: E8 50      ADD     SP,$50          
5D2A: 64         LD      H,H             
5D2B: D8         RET     C               
5D2C: E4         ???                     
5D2D: D8         RET     C               
5D2E: F8 C0      LDHL    SP,$C0          
5D30: A0         AND     B               
5D31: C0         RET     NZ              
5D32: E0 00      LDFF00  ($00),A         
5D34: 90         SUB     B               
5D35: 60         LD      H,B             
5D36: E8 F0      ADD     SP,$F0          
5D38: 04         INC     B               
5D39: F8 FC      LDHL    SP,$FC          
5D3B: 00         NOP                     
5D3C: FC         ???                     
5D3D: 78         LD      A,B             
5D3E: FE 00      CP      $00             
5D40: 00         NOP                     
5D41: 00         NOP                     
5D42: 00         NOP                     
5D43: 00         NOP                     
5D44: 03         INC     BC              
5D45: 00         NOP                     
5D46: 04         INC     B               
5D47: 03         INC     BC              
5D48: 19         ADD     HL,DE           
5D49: 07         RLCA                    
5D4A: 39         ADD     HL,SP           
5D4B: 17         RLA                     
5D4C: 3C         INC     A               
5D4D: 13         INC     DE              
5D4E: 3F         CCF                     
5D4F: 14         INC     D               
5D50: 2F         CPL                     
5D51: 13         INC     DE              
5D52: 17         RLA                     
5D53: 08 1B 04   LD      ($041B),SP      
5D56: 3D         DEC     A               
5D57: 1B         DEC     DE              
5D58: 3F         CCF                     
5D59: 1C         INC     E               
5D5A: 7B         LD      A,E             
5D5B: 2E 7F      LD      L,$7F           
5D5D: 26 3F      LD      H,$3F           
5D5F: 00         NOP                     
5D60: 67         LD      H,A             
5D61: 20 BF      JR      NZ,$5D22        
5D63: 94         SUB     H               
5D64: 9F         SBC     A               
5D65: 00         NOP                     
5D66: 3E 11      LD      A,$11           
5D68: 3A         LD      A,(HLD)         
5D69: 15         DEC     D               
5D6A: 3B         DEC     SP              
5D6B: 17         RLA                     
5D6C: 27         DAA                     
5D6D: 1E 3F      LD      E,$3F           
5D6F: 0D         DEC     C               
5D70: 1F         RRA                     
5D71: 07         RLCA                    
5D72: 17         RLA                     
5D73: 08 12 0D   LD      ($0D12),SP      
5D76: 13         INC     DE              
5D77: 0D         DEC     C               
5D78: 1E 01      LD      E,$01           
5D7A: 3F         CCF                     
5D7B: 0C         INC     C               
5D7C: 3E 0D      LD      A,$0D           
5D7E: 1F         RRA                     
5D7F: 00         NOP                     
5D80: 0F         RRCA                    
5D81: 00         NOP                     
5D82: B6         OR      (HL)            
5D83: 0F         RRCA                    
5D84: F9         LD      SP,HL           
5D85: 37         SCF                     
5D86: DC 3B EF   CALL    C,$EF3B         
5D89: 1C         INC     E               
5D8A: 7E         LD      A,(HL)          
5D8B: 01 FF 29   LD      BC,$29FF        
5D8E: FF         RST     0X38            
5D8F: 6D         LD      L,L             
5D90: FE 1D      CP      $1D             
5D92: FB         EI                      
5D93: 64         LD      H,H             
5D94: F5         PUSH    AF              
5D95: 6A         LD      L,D             
5D96: 61         LD      H,C             
5D97: 1E 13      LD      E,$13           
5D99: 0C         INC     C               
5D9A: 0F         RRCA                    
5D9B: 00         NOP                     
5D9C: 1F         RRA                     
5D9D: 03         INC     BC              
5D9E: 1F         RRA                     
5D9F: 00         NOP                     
5DA0: 80         ADD     A,B             
5DA1: 00         NOP                     
5DA2: 40         LD      B,B             
5DA3: 80         ADD     A,B             
5DA4: A0         AND     B               
5DA5: C0         RET     NZ              
5DA6: 90         SUB     B               
5DA7: 60         LD      H,B             
5DA8: C8         RET     Z               
5DA9: B0         OR      B               
5DAA: C8         RET     Z               
5DAB: B0         OR      B               
5DAC: D0         RET     NC              
5DAD: A0         AND     B               
5DAE: 60         LD      H,B             
5DAF: 80         ADD     A,B             
5DB0: C0         RET     NZ              
5DB1: 00         NOP                     
5DB2: 40         LD      B,B             
5DB3: 80         ADD     A,B             
5DB4: 20 C0      JR      NZ,$5D76        
5DB6: F0 E0      LD      A,($E0)         
5DB8: 10 E0      STOP    $E0             
5DBA: E0 00      LDFF00  ($00),A         
5DBC: E0 C0      LDFF00  ($C0),A         
5DBE: F0 00      LD      A,($00)         
5DC0: 00         NOP                     
5DC1: 00         NOP                     
5DC2: 00         NOP                     
5DC3: 00         NOP                     
5DC4: 03         INC     BC              
5DC5: 00         NOP                     
5DC6: 02         LD      (BC),A          
5DC7: 01 06 03   LD      BC,$0306        
5DCA: 0F         RRCA                    
5DCB: 06 0F      LD      B,$0F           
5DCD: 03         INC     BC              
5DCE: 0F         RRCA                    
5DCF: 05         DEC     B               
5DD0: 7F         LD      A,A             
5DD1: 00         NOP                     
5DD2: F1         POP     AF              
5DD3: 6E         LD      L,(HL)          
5DD4: F0 6F      LD      A,($6F)         
5DD6: 7F         LD      A,A             
5DD7: 00         NOP                     
5DD8: E4         ???                     
5DD9: 5F         LD      E,A             
5DDA: F3         DI                      
5DDB: 6E         LD      L,(HL)          
5DDC: 7B         LD      A,E             
5DDD: 34         INC     (HL)            
5DDE: 7F         LD      A,A             
5DDF: 00         NOP                     
5DE0: 23         INC     HL              
5DE1: 02         LD      (BC),A          
5DE2: 66         LD      H,(HL)          
5DE3: 04         INC     B               
5DE4: 79         LD      A,C             
5DE5: 01 FD 18   LD      BC,$18FD        
5DE8: 56         LD      D,(HL)          
5DE9: B8         CP      B               
5DEA: FD         ???                     
5DEB: 36 7B      LD      (HL),$7B        
5DED: B6         OR      (HL)            
5DEE: F3         DI                      
5DEF: 0E 69      LD      C,$69           
5DF1: F6 BD      OR      $BD             
5DF3: 7A         LD      A,D             
5DF4: F9         LD      SP,HL           
5DF5: 06 42      LD      B,$42           
5DF7: BC         CP      H               
5DF8: 42         LD      B,D             
5DF9: BC         CP      H               
5DFA: A4         AND     H               
5DFB: 18 18      JR      $5E15           
5DFD: 00         NOP                     
5DFE: 80         ADD     A,B             
5DFF: 00         NOP                     
5E00: 06 00      LD      B,$00           
5E02: 0F         RRCA                    
5E03: 06 0E      LD      B,$0E           
5E05: 01 09 06   LD      BC,$0609        
5E08: 16 0D      LD      D,$0D           
5E0A: 1E 09      LD      E,$09           
5E0C: 1C         INC     E               
5E0D: 0B         DEC     BC              
5E0E: 39         ADD     HL,SP           
5E0F: 17         RLA                     
5E10: 39         ADD     HL,SP           
5E11: 17         RLA                     
5E12: 39         ADD     HL,SP           
5E13: 17         RLA                     
5E14: 38 07      JR      C,$5E1D         
5E16: 1C         INC     E               
5E17: 0B         DEC     BC              
5E18: 0F         RRCA                    
5E19: 04         INC     B               
5E1A: 0F         RRCA                    
5E1B: 03         INC     BC              
5E1C: 07         RLCA                    
5E1D: 00         NOP                     
5E1E: 03         INC     BC              
5E1F: 00         NOP                     
5E20: 06 00      LD      B,$00           
5E22: 0F         RRCA                    
5E23: 06 1F      LD      B,$1F           
5E25: 06 2F      LD      B,$2F           
5E27: 16 2F      LD      D,$2F           
5E29: 10 29      STOP    $29             
5E2B: 16 27      LD      D,$27           
5E2D: 18 18      JR      $5E47           
5E2F: 0F         RRCA                    
5E30: 17         RLA                     
5E31: 0F         RRCA                    
5E32: 19         ADD     HL,DE           
5E33: 06 2A      LD      B,$2A           
5E35: 15         DEC     D               
5E36: 3E 11      LD      A,$11           
5E38: 39         ADD     HL,SP           
5E39: 17         RLA                     
5E3A: 14         INC     D               
5E3B: 03         INC     BC              
5E3C: 03         INC     BC              
5E3D: 00         NOP                     
5E3E: 00         NOP                     
5E3F: 00         NOP                     
5E40: 00         NOP                     
5E41: 00         NOP                     
5E42: 07         RLCA                    
5E43: 00         NOP                     
5E44: 0B         DEC     BC              
5E45: 06 1F      LD      B,$1F           
5E47: 04         INC     B               
5E48: 3E 11      LD      A,$11           
5E4A: 3F         CCF                     
5E4B: 15         DEC     D               
5E4C: 3F         CCF                     
5E4D: 17         RLA                     
5E4E: 27         DAA                     
5E4F: 1E 17      LD      E,$17           
5E51: 0F         RRCA                    
5E52: 2B         DEC     HL              
5E53: 17         RLA                     
5E54: 27         DAA                     
5E55: 18 2F      JR      $5E86           
5E57: 16 3F      LD      D,$3F           
5E59: 06 3F      LD      B,$3F           
5E5B: 06 1F      LD      B,$1F           
5E5D: 06 0F      LD      B,$0F           
5E5F: 00         NOP                     
5E60: 0C         INC     C               
5E61: 00         NOP                     
5E62: 34         INC     (HL)            
5E63: 08 46 38   LD      ($3846),SP      
5E66: 41         LD      B,C             
5E67: 3E 8F      LD      A,$8F           
5E69: 70         LD      (HL),B          
5E6A: BF         CP      A               
5E6B: 6F         LD      L,A             
5E6C: AB         XOR     E               
5E6D: 77         LD      (HL),A          
5E6E: CF         RST     0X08            
5E6F: 70         LD      (HL),B          
5E70: DB         ???                     
5E71: 6D         LD      L,L             
5E72: BF         CP      A               
5E73: 5B         LD      E,E             
5E74: 77         LD      (HL),A          
5E75: 38 6F      JR      C,$5EE6         
5E77: 33         INC     SP              
5E78: 3B         DEC     SP              
5E79: 01 73 00   LD      BC,$0073        
5E7C: 00         NOP                     
5E7D: 00         NOP                     
5E7E: 00         NOP                     
5E7F: 00         NOP                     
5E80: 00         NOP                     
5E81: 00         NOP                     
5E82: 78         LD      A,B             
5E83: 00         NOP                     
5E84: A8         XOR     B               
5E85: 70         LD      (HL),B          
5E86: 24         INC     H               
5E87: F8 34      LDHL    SP,$34          
5E89: C8         RET     Z               
5E8A: CC 30 C4   CALL    Z,$C430         
5E8D: B8         CP      B               
5E8E: C6 B8      ADD     $B8             
5E90: B7         OR      A               
5E91: CA FF B2   JP      Z,$B2FF         
5E94: FF         RST     0X38            
5E95: B2         OR      D               
5E96: FF         RST     0X38            
5E97: 86         ADD     A,(HL)          
5E98: 87         ADD     A,A             
5E99: 02         LD      (BC),A          
5E9A: 02         LD      (BC),A          
5E9B: 00         NOP                     
5E9C: 00         NOP                     
5E9D: 00         NOP                     
5E9E: 00         NOP                     
5E9F: 00         NOP                     
5EA0: 00         NOP                     
5EA1: 00         NOP                     
5EA2: 00         NOP                     
5EA3: 00         NOP                     
5EA4: 07         RLCA                    
5EA5: 00         NOP                     
5EA6: 19         ADD     HL,DE           
5EA7: 06 12      LD      B,$12           
5EA9: 0D         DEC     C               
5EAA: 1E 0D      LD      E,$0D           
5EAC: 11 0E 09   LD      DE,$090E        
5EAF: 06 07      LD      B,$07           
5EB1: 01 0B 05   LD      BC,$050B        
5EB4: 3B         DEC     SP              
5EB5: 05         DEC     B               
5EB6: 23         INC     HL              
5EB7: 1D         DEC     E               
5EB8: 11 0E 11   LD      DE,$110E        
5EBB: 0F         RRCA                    
5EBC: 0C         INC     C               
5EBD: 03         INC     BC              
5EBE: 03         INC     BC              
5EBF: 00         NOP                     
5EC0: 3E 00      LD      A,$00           
5EC2: 7F         LD      A,A             
5EC3: 3E FE      LD      A,$FE           
5EC5: 04         INC     B               
5EC6: 1C         INC     E               
5EC7: E0 3C      LDFF00  ($3C),A         
5EC9: D8         RET     C               
5ECA: 3C         INC     A               
5ECB: D8         RET     C               
5ECC: DC 20 FE   CALL    C,$FE20         
5ECF: FC         ???                     
5ED0: FF         RST     0X38            
5ED1: B6         OR      (HL)            
5ED2: FF         RST     0X38            
5ED3: 94         SUB     H               
5ED4: 5C         LD      E,H             
5ED5: A0         AND     B               
5ED6: F6 38      OR      $38             
5ED8: 3B         DEC     SP              
5ED9: DC 9F EC   CALL    C,$EC9F         
5EDC: 6D         LD      L,L             
5EDD: F0 F0      LD      A,($F0)         
5EDF: 00         NOP                     
5EE0: 18 00      JR      $5EE2           
5EE2: 3C         INC     A               
5EE3: 18 3C      JR      $5F21           
5EE5: 18 3C      JR      $5F23           
5EE7: 00         NOP                     
5EE8: 27         DAA                     
5EE9: 18 26      JR      $5F11           
5EEB: 19         ADD     HL,DE           
5EEC: 29         ADD     HL,HL           
5EED: 16 3B      LD      D,$3B           
5EEF: 07         RLCA                    
5EF0: 2A         LD      A,(HLI)         
5EF1: 15         DEC     D               
5EF2: 3C         INC     A               
5EF3: 13         INC     DE              
5EF4: 3F         CCF                     
5EF5: 10 3B      STOP    $3B             
5EF7: 14         INC     D               
5EF8: 9F         SBC     A               
5EF9: 83         ADD     A,E             
5EFA: 8B         ADC     A,E             
5EFB: 04         INC     B               
5EFC: 34         INC     (HL)            
5EFD: 23         INC     HL              
5EFE: 63         LD      H,E             
5EFF: 40         LD      B,B             
5F00: 03         INC     BC              
5F01: 00         NOP                     
5F02: 1C         INC     E               
5F03: 03         INC     BC              
5F04: 3E 19      LD      A,$19           
5F06: 3F         CCF                     
5F07: 1B         DEC     DE              
5F08: 3B         DEC     SP              
5F09: 04         INC     B               
5F0A: 2F         CPL                     
5F0B: 10 2F      STOP    $2F             
5F0D: 10 2F      STOP    $2F             
5F0F: 15         DEC     D               
5F10: 2F         CPL                     
5F11: 15         DEC     D               
5F12: 1B         DEC     DE              
5F13: 07         RLCA                    
5F14: 17         RLA                     
5F15: 08 14 0F   LD      ($0F14),SP      
5F18: 13         INC     DE              
5F19: 0F         RRCA                    
5F1A: 08 07 1F   LD      ($1F07),SP      
5F1D: 00         NOP                     
5F1E: 0F         RRCA                    
5F1F: 00         NOP                     
5F20: C0         RET     NZ              
5F21: 00         NOP                     
5F22: 38 C0      JR      C,$5EE4         
5F24: 7C         LD      A,H             
5F25: 98         SBC     B               
5F26: FC         ???                     
5F27: D8         RET     C               
5F28: DC 20 F4   CALL    C,$F420         
5F2B: 08 F4 08   LD      ($08F4),SP      
5F2E: F4         ???                     
5F2F: A8         XOR     B               
5F30: F4         ???                     
5F31: A8         XOR     B               
5F32: D4 E8 E8   CALL    NC,$E8E8        
5F35: 10 08      STOP    $08             
5F37: F0 E8      LD      A,($E8)         
5F39: F0 78      LD      A,($78)         
5F3B: 80         ADD     A,B             
5F3C: EC         ???                     
5F3D: 70         LD      (HL),B          
5F3E: F8 00      LDHL    SP,$00          
5F40: 03         INC     BC              
5F41: 00         NOP                     
5F42: 1F         RRA                     
5F43: 00         NOP                     
5F44: 3F         CCF                     
5F45: 1B         DEC     DE              
5F46: 3F         CCF                     
5F47: 18 3D      JR      $5F86           
5F49: 03         INC     BC              
5F4A: 29         ADD     HL,HL           
5F4B: 17         RLA                     
5F4C: 2A         LD      A,(HLI)         
5F4D: 15         DEC     D               
5F4E: 2C         INC     L               
5F4F: 13         INC     DE              
5F50: 2C         INC     L               
5F51: 13         INC     DE              
5F52: 2C         INC     L               
5F53: 13         INC     DE              
5F54: 14         INC     D               
5F55: 0B         DEC     BC              
5F56: 13         INC     DE              
5F57: 0C         INC     C               
5F58: 17         RLA                     
5F59: 0F         RRCA                    
5F5A: 18 07      JR      $5F63           
5F5C: 1F         RRA                     
5F5D: 00         NOP                     
5F5E: 0F         RRCA                    
5F5F: 00         NOP                     
5F60: 80         ADD     A,B             
5F61: 00         NOP                     
5F62: D8         RET     C               
5F63: 00         NOP                     
5F64: FC         ???                     
5F65: D8         RET     C               
5F66: FC         ???                     
5F67: 18 BC      JR      $5F25           
5F69: C0         RET     NZ              
5F6A: 94         SUB     H               
5F6B: E8 94      ADD     SP,$94          
5F6D: E8 94      ADD     SP,$94          
5F6F: E8 34      ADD     SP,$34          
5F71: C8         RET     Z               
5F72: 48         LD      C,B             
5F73: B0         OR      B               
5F74: 88         ADC     A,B             
5F75: 70         LD      (HL),B          
5F76: 28 F0      JR      Z,$5F68         
5F78: C8         RET     Z               
5F79: F0 78      LD      A,($78)         
5F7B: 80         ADD     A,B             
5F7C: FC         ???                     
5F7D: 30 F8      JR      NC,$5F77        
5F7F: 00         NOP                     
5F80: 03         INC     BC              
5F81: 00         NOP                     
5F82: 0C         INC     C               
5F83: 03         INC     BC              
5F84: 1F         RRA                     
5F85: 0C         INC     C               
5F86: 77         LD      (HL),A          
5F87: 0E 3B      LD      C,$3B           
5F89: 06 0F      LD      B,$0F           
5F8B: 00         NOP                     
5F8C: 3F         CCF                     
5F8D: 0A         LD      A,(BC)          
5F8E: 3F         CCF                     
5F8F: 1A         LD      A,(DE)          
5F90: 17         RLA                     
5F91: 0E 0B      LD      C,$0B           
5F93: 04         INC     B               
5F94: 0C         INC     C               
5F95: 03         INC     BC              
5F96: 08 07 0F   LD      ($0F07),SP      
5F99: 07         RLCA                    
5F9A: 09         ADD     HL,BC           
5F9B: 06 0F      LD      B,$0F           
5F9D: 01 1F 00   LD      BC,$001F        
5FA0: E0 00      LDFF00  ($00),A         
5FA2: D0         RET     NC              
5FA3: 20 E8      JR      NZ,$5F8D        
5FA5: D0         RET     NC              
5FA6: E4         ???                     
5FA7: D8         RET     C               
5FA8: E2         LDFF00  (C),A           
5FA9: 1C         INC     E               
5FAA: 22         LD      (HLI),A         
5FAB: DC 24 D8   CALL    C,$D824         
5FAE: 28 D0      JR      Z,$5F80         
5FB0: 30 C0      JR      NC,$5F72        
5FB2: 30 C0      JR      NC,$5F74        
5FB4: D0         RET     NC              
5FB5: 20 28      JR      NZ,$5FDF        
5FB7: F0 C8      LD      A,($C8)         
5FB9: F0 F8      LD      A,($F8)         
5FBB: 00         NOP                     
5FBC: F0 E0      LD      A,($E0)         
5FBE: F8 00      LDHL    SP,$00          
5FC0: 00         NOP                     
5FC1: 00         NOP                     
5FC2: 03         INC     BC              
5FC3: 00         NOP                     
5FC4: 2C         INC     L               
5FC5: 03         INC     BC              
5FC6: 3F         CCF                     
5FC7: 0C         INC     C               
5FC8: 37         SCF                     
5FC9: 0E 1B      LD      C,$1B           
5FCB: 06 0F      LD      B,$0F           
5FCD: 00         NOP                     
5FCE: 3F         CCF                     
5FCF: 0A         LD      A,(BC)          
5FD0: 3F         CCF                     
5FD1: 1A         LD      A,(DE)          
5FD2: 17         RLA                     
5FD3: 0E 09      LD      C,$09           
5FD5: 06 06      LD      B,$06           
5FD7: 01 06 03   LD      BC,$0306        
5FDA: 0F         RRCA                    
5FDB: 01 1F 0E   LD      BC,$0E1F        
5FDE: 1F         RRA                     
5FDF: 00         NOP                     
5FE0: 00         NOP                     
5FE1: 00         NOP                     
5FE2: F0 00      LD      A,($00)         
5FE4: CC 30 E2   CALL    Z,$E230         
5FE7: DC E2 DC   CALL    C,$DCE2         
5FEA: E2         LDFF00  (C),A           
5FEB: 1C         INC     E               
5FEC: 24         INC     H               
5FED: D8         RET     C               
5FEE: 24         INC     H               
5FEF: D8         RET     C               
5FF0: 28 D0      JR      Z,$5FC2         
5FF2: 30 C0      JR      NC,$5FB4        
5FF4: 30 C0      JR      NC,$5FB6        
5FF6: D8         RET     C               
5FF7: 20 3C      JR      NZ,$6035        
5FF9: E8 FC      ADD     SP,$FC          
5FFB: C8         RET     Z               
5FFC: FC         ???                     
5FFD: 18 FE      JR      $5FFD           
5FFF: 00         NOP                     
6000: 07         RLCA                    
6001: 00         NOP                     
6002: 0B         DEC     BC              
6003: 07         RLCA                    
6004: 1B         DEC     DE              
6005: 04         INC     B               
6006: 3F         CCF                     
6007: 13         INC     DE              
6008: 3F         CCF                     
6009: 14         INC     D               
600A: 3F         CCF                     
600B: 10 67      STOP    $67             
600D: 18 FF      JR      $600E           
600F: 4D         LD      C,L             
6010: F7         RST     0X30            
6011: 4D         LD      C,L             
6012: EB         ???                     
6013: 57         LD      D,A             
6014: FF         RST     0X38            
6015: 50         LD      D,B             
6016: F8 57      LDHL    SP,$57          
6018: F7         RST     0X30            
6019: 4F         LD      C,A             
601A: 7E         LD      A,(HL)          
601B: 01 37 0E   LD      BC,$0E37        
601E: 1F         RRA                     
601F: 00         NOP                     
6020: 03         INC     BC              
6021: 00         NOP                     
6022: 04         INC     B               
6023: 03         INC     BC              
6024: 18 07      JR      $602D           
6026: 3B         DEC     SP              
6027: 17         RLA                     
6028: 3F         CCF                     
6029: 14         INC     D               
602A: 3F         CCF                     
602B: 10 27      STOP    $27             
602D: 18 FF      JR      $602E           
602F: 0D         DEC     C               
6030: F7         RST     0X30            
6031: 6D         LD      L,L             
6032: BB         CP      E               
6033: 77         LD      (HL),A          
6034: 9F         SBC     A               
6035: 70         LD      (HL),B          
6036: 9E         SBC     (HL)            
6037: 75         LD      (HL),L          
6038: 9F         SBC     A               
6039: 75         LD      (HL),L          
603A: 5C         LD      E,H             
603B: 33         INC     SP              
603C: 3F         CCF                     
603D: 00         NOP                     
603E: 0F         RRCA                    
603F: 00         NOP                     
6040: 00         NOP                     
6041: 00         NOP                     
6042: 07         RLCA                    
6043: 00         NOP                     
6044: 0B         DEC     BC              
6045: 07         RLCA                    
6046: 1B         DEC     DE              
6047: 04         INC     B               
6048: 3F         CCF                     
6049: 13         INC     DE              
604A: 3F         CCF                     
604B: 14         INC     D               
604C: 3F         CCF                     
604D: 10 27      STOP    $27             
604F: 18 7F      JR      $60D0           
6051: 00         NOP                     
6052: 7F         LD      A,A             
6053: 36 6B      LD      (HL),$6B        
6055: 3E 7F      LD      A,$7F           
6057: 22         LD      (HLI),A         
6058: 63         LD      H,E             
6059: 3E 63      LD      A,$63           
605B: 3E 3F      LD      A,$3F           
605D: 1C         INC     E               
605E: 1F         RRA                     
605F: 00         NOP                     
6060: 00         NOP                     
6061: 00         NOP                     
6062: C0         RET     NZ              
6063: 00         NOP                     
6064: 20 C0      JR      NZ,$6026        
6066: 18 E0      JR      $6048           
6068: DC E8 FC   CALL    C,$FCE8         
606B: 28 FC      JR      Z,$6069         
606D: 08 E4 18   LD      ($18E4),SP      
6070: F8 B0      LDHL    SP,$B0          
6072: F4         ???                     
6073: A8         XOR     B               
6074: F4         ???                     
6075: C8         RET     Z               
6076: F4         ???                     
6077: 38 F8      JR      C,$6071         
6079: B0         OR      B               
607A: 30 C0      JR      NC,$603C        
607C: F8 00      LDHL    SP,$00          
607E: F0 00      LD      A,($00)         
6080: 00         NOP                     
6081: 00         NOP                     
6082: 03         INC     BC              
6083: 00         NOP                     
6084: 04         INC     B               
6085: 03         INC     BC              
6086: 18 07      JR      $608F           
6088: 3B         DEC     SP              
6089: 17         RLA                     
608A: 3F         CCF                     
608B: 14         INC     D               
608C: 3F         CCF                     
608D: 10 7F      STOP    $7F             
608F: 00         NOP                     
6090: 7F         LD      A,A             
6091: 36 6B      LD      (HL),$6B        
6093: 3E 7F      LD      A,$7F           
6095: 22         LD      (HLI),A         
6096: 63         LD      H,E             
6097: 3E 63      LD      A,$63           
6099: 3E 7F      LD      A,$7F           
609B: 1C         INC     E               
609C: 3F         CCF                     
609D: 00         NOP                     
609E: 1F         RRA                     
609F: 00         NOP                     
60A0: 00         NOP                     
60A1: 00         NOP                     
60A2: E0 00      LDFF00  ($00),A         
60A4: D0         RET     NC              
60A5: E0 D8      LDFF00  ($D8),A         
60A7: 20 FC      JR      NZ,$60A5        
60A9: C8         RET     Z               
60AA: FC         ???                     
60AB: 28 FC      JR      Z,$60A9         
60AD: 08 E4 18   LD      ($18E4),SP      
60B0: F8 B0      LDHL    SP,$B0          
60B2: EC         ???                     
60B3: B0         OR      B               
60B4: D6 E8      SUB     $E8             
60B6: F2         ???                     
60B7: 0C         INC     C               
60B8: EE F4      XOR     $F4             
60BA: 7C         LD      A,H             
60BB: 80         ADD     A,B             
60BC: EC         ???                     
60BD: 70         LD      (HL),B          
60BE: F8 00      LDHL    SP,$00          
60C0: 00         NOP                     
60C1: 00         NOP                     
60C2: 07         RLCA                    
60C3: 00         NOP                     
60C4: 0B         DEC     BC              
60C5: 07         RLCA                    
60C6: 1B         DEC     DE              
60C7: 04         INC     B               
60C8: 3F         CCF                     
60C9: 13         INC     DE              
60CA: 3F         CCF                     
60CB: 14         INC     D               
60CC: FF         RST     0X38            
60CD: 10 FF      STOP    $FF             
60CF: 40         LD      B,B             
60D0: FF         RST     0X38            
60D1: 7F         LD      A,A             
60D2: DE 73      SBC     $73             
60D4: DE 7F      SBC     $7F             
60D6: DE 7F      SBC     $7F             
60D8: DE 7F      SBC     $7F             
60DA: E1         POP     HL              
60DB: 7F         LD      A,A             
60DC: 7F         LD      A,A             
60DD: 3F         CCF                     
60DE: 3F         CCF                     
60DF: 00         NOP                     
60E0: 00         NOP                     
60E1: 00         NOP                     
60E2: C0         RET     NZ              
60E3: 00         NOP                     
60E4: 20 C0      JR      NZ,$60A6        
60E6: 18 E0      JR      $60C8           
60E8: DC E8 FC   CALL    C,$FCE8         
60EB: 28 FC      JR      Z,$60E9         
60ED: 08 E4 98   LD      ($98E4),SP      
60F0: F8 B0      LDHL    SP,$B0          
60F2: F4         ???                     
60F3: A8         XOR     B               
60F4: F4         ???                     
60F5: 88         ADC     A,B             
60F6: FC         ???                     
60F7: B0         OR      B               
60F8: F8 B0      LDHL    SP,$B0          
60FA: F0 80      LD      A,($80)         
60FC: F8 00      LDHL    SP,$00          
60FE: F0 00      LD      A,($00)         
6100: 00         NOP                     
6101: 00         NOP                     
6102: 03         INC     BC              
6103: 00         NOP                     
6104: 04         INC     B               
6105: 03         INC     BC              
6106: 18 07      JR      $610F           
6108: 3B         DEC     SP              
6109: 17         RLA                     
610A: FF         RST     0X38            
610B: 14         INC     D               
610C: FF         RST     0X38            
610D: 40         LD      B,B             
610E: FF         RST     0X38            
610F: 7F         LD      A,A             
6110: DE 73      SBC     $73             
6112: DE 7F      SBC     $7F             
6114: DE 7F      SBC     $7F             
6116: DE 7F      SBC     $7F             
6118: E1         POP     HL              
6119: 7F         LD      A,A             
611A: 7F         LD      A,A             
611B: 3F         CCF                     
611C: 7F         LD      A,A             
611D: 00         NOP                     
611E: 3F         CCF                     
611F: 00         NOP                     
6120: 00         NOP                     
6121: 00         NOP                     
6122: E0 00      LDFF00  ($00),A         
6124: D0         RET     NC              
6125: E0 D8      LDFF00  ($D8),A         
6127: 20 FC      JR      NZ,$6125        
6129: C8         RET     Z               
612A: FC         ???                     
612B: 28 FC      JR      Z,$6129         
612D: 88         ADC     A,B             
612E: E4         ???                     
612F: 98         SBC     B               
6130: F8 B0      LDHL    SP,$B0          
6132: EC         ???                     
6133: B0         OR      B               
6134: D6 A8      SUB     $A8             
6136: F2         ???                     
6137: 8C         ADC     A,H             
6138: CE B4      ADC     $B4             
613A: FC         ???                     
613B: 00         NOP                     
613C: EC         ???                     
613D: 70         LD      (HL),B          
613E: F8 00      LDHL    SP,$00          
6140: 00         NOP                     
6141: 00         NOP                     
6142: 07         RLCA                    
6143: 00         NOP                     
6144: 1A         LD      A,(DE)          
6145: 07         RLCA                    
6146: 3D         DEC     A               
6147: 1B         DEC     DE              
6148: EE 1D      XOR     $1D             
614A: F7         RST     0X30            
614B: 0E FD      LD      C,$FD           
614D: 42         LD      B,D             
614E: FF         RST     0X38            
614F: 54         LD      D,H             
6150: FF         RST     0X38            
6151: 36 AF      LD      (HL),$AF        
6153: 5E         LD      E,(HL)          
6154: B3         OR      E               
6155: 4C         LD      C,H             
6156: AF         XOR     A               
6157: 53         LD      D,E             
6158: BF         CP      A               
6159: 43         LD      B,E             
615A: AB         XOR     E               
615B: 44         LD      B,H             
615C: EF         RST     0X28            
615D: 01 1F 00   LD      BC,$001F        
6160: 00         NOP                     
6161: 00         NOP                     
6162: C0         RET     NZ              
6163: 00         NOP                     
6164: 20 C0      JR      NZ,$6126        
6166: 90         SUB     B               
6167: E0 48      LDFF00  ($48),A         
6169: B0         OR      B               
616A: E4         ???                     
616B: 58         LD      E,B             
616C: 64         LD      H,H             
616D: D8         RET     C               
616E: E8 D0      ADD     SP,$D0          
6170: F0 C0      LD      A,($C0)         
6172: A0         AND     B               
6173: C0         RET     NZ              
6174: E0 00      LDFF00  ($00),A         
6176: 90         SUB     B               
6177: 60         LD      H,B             
6178: 88         ADC     A,B             
6179: 70         LD      (HL),B          
617A: F8 00      LDHL    SP,$00          
617C: F0 E0      LD      A,($E0)         
617E: F8 00      LDHL    SP,$00          
6180: 00         NOP                     
6181: 00         NOP                     
6182: 00         NOP                     
6183: 00         NOP                     
6184: 07         RLCA                    
6185: 00         NOP                     
6186: 5B         LD      E,E             
6187: 07         RLCA                    
6188: 7C         LD      A,H             
6189: 1B         DEC     DE              
618A: 6E         LD      L,(HL)          
618B: 1D         DEC     E               
618C: F7         RST     0X30            
618D: 0E FD      LD      C,$FD           
618F: 42         LD      B,D             
6190: FF         RST     0X38            
6191: 54         LD      D,H             
6192: FF         RST     0X38            
6193: 36 AF      LD      (HL),$AF        
6195: 58         LD      E,B             
6196: BF         CP      A               
6197: 46         LD      B,(HL)          
6198: BF         CP      A               
6199: 46         LD      B,(HL)          
619A: A7         AND     A               
619B: 40         LD      B,B             
619C: AF         XOR     A               
619D: 47         LD      B,A             
619E: DF         RST     0X18            
619F: 00         NOP                     
61A0: 00         NOP                     
61A1: 00         NOP                     
61A2: 00         NOP                     
61A3: 00         NOP                     
61A4: E0 00      LDFF00  ($00),A         
61A6: 18 E0      JR      $6188           
61A8: C4 F8 44   CALL    NZ,$44F8        
61AB: B8         CP      B               
61AC: E4         ???                     
61AD: 58         LD      E,B             
61AE: 68         LD      L,B             
61AF: D0         RET     NC              
61B0: E8 D0      ADD     SP,$D0          
61B2: F0 C0      LD      A,($C0)         
61B4: E0 80      LDFF00  ($80),A         
61B6: 98         SBC     B               
61B7: 60         LD      H,B             
61B8: 1C         INC     E               
61B9: E8 3C      ADD     SP,$3C          
61BB: C8         RET     Z               
61BC: FC         ???                     
61BD: 18 FE      JR      $61BD           
61BF: 00         NOP                     
61C0: 00         NOP                     
61C1: 00         NOP                     
61C2: 03         INC     BC              
61C3: 00         NOP                     
61C4: 04         INC     B               
61C5: 03         INC     BC              
61C6: 09         ADD     HL,BC           
61C7: 07         RLCA                    
61C8: 12         LD      (DE),A          
61C9: 0D         DEC     C               
61CA: 27         DAA                     
61CB: 1A         LD      A,(DE)          
61CC: 26 1B      LD      H,$1B           
61CE: 17         RLA                     
61CF: 0B         DEC     BC              
61D0: 0F         RRCA                    
61D1: 03         INC     BC              
61D2: 05         DEC     B               
61D3: 03         INC     BC              
61D4: 07         RLCA                    
61D5: 00         NOP                     
61D6: 09         ADD     HL,BC           
61D7: 06 10      LD      B,$10           
61D9: 0F         RRCA                    
61DA: 1F         RRA                     
61DB: 00         NOP                     
61DC: 0F         RRCA                    
61DD: 07         RLCA                    
61DE: 1F         RRA                     
61DF: 00         NOP                     
61E0: 00         NOP                     
61E1: 00         NOP                     
61E2: E0 00      LDFF00  ($00),A         
61E4: 58         LD      E,B             
61E5: E0 BC      LDFF00  ($BC),A         
61E7: D8         RET     C               
61E8: 77         LD      (HL),A          
61E9: B8         CP      B               
61EA: EF         RST     0X28            
61EB: 70         LD      (HL),B          
61EC: BF         CP      A               
61ED: 42         LD      B,D             
61EE: FF         RST     0X38            
61EF: 2A         LD      A,(HLI)         
61F0: FB         EI                      
61F1: 6C         LD      L,H             
61F2: FD         ???                     
61F3: 02         LD      (BC),A          
61F4: 1D         DEC     E               
61F5: EA 9D 6A   LD      ($6A9D),A       
61F8: FD         ???                     
61F9: 02         LD      (BC),A          
61FA: F5         PUSH    AF              
61FB: 02         LD      (BC),A          
61FC: E3         ???                     
61FD: 80         ADD     A,B             
61FE: F8 00      LDHL    SP,$00          
6200: 03         INC     BC              
6201: 00         NOP                     
6202: 0F         RRCA                    
6203: 03         INC     BC              
6204: 11 0E 23   LD      DE,$230E        
6207: 1D         DEC     E               
6208: F7         RST     0X30            
6209: 0A         LD      A,(BC)          
620A: BF         CP      A               
620B: 50         LD      D,B             
620C: BF         CP      A               
620D: 5A         LD      E,D             
620E: 7F         LD      A,A             
620F: 02         LD      (BC),A          
6210: 3F         CCF                     
6211: 18 3D      JR      $6250           
6213: 1B         DEC     DE              
6214: 38 17      JR      C,$622D         
6216: 1F         RRA                     
6217: 00         NOP                     
6218: 11 0E 3C   LD      DE,$3C0E        
621B: 03         INC     BC              
621C: 7B         LD      A,E             
621D: 3C         INC     A               
621E: 7F         LD      A,A             
621F: 00         NOP                     
6220: 00         NOP                     
6221: 00         NOP                     
6222: 00         NOP                     
6223: 00         NOP                     
6224: E0 00      LDFF00  ($00),A         
6226: DA E0 3E   JP      C,$3EE0         
6229: D8         RET     C               
622A: 76         HALT                    
622B: B8         CP      B               
622C: EF         RST     0X28            
622D: 70         LD      (HL),B          
622E: BF         CP      A               
622F: 42         LD      B,D             
6230: FF         RST     0X38            
6231: 2A         LD      A,(HLI)         
6232: FB         EI                      
6233: 6C         LD      L,H             
6234: FD         ???                     
6235: 02         LD      (BC),A          
6236: 1D         DEC     E               
6237: EA 9D 6A   LD      ($6A9D),A       
623A: FD         ???                     
623B: 02         LD      (BC),A          
623C: F5         PUSH    AF              
623D: E2         LDFF00  (C),A           
623E: FB         EI                      
623F: 00         NOP                     
6240: 07         RLCA                    
6241: 00         NOP                     
6242: 08 07 13   LD      ($1307),SP      
6245: 0F         RRCA                    
6246: 24         INC     H               
6247: 1B         DEC     DE              
6248: 4F         LD      C,A             
6249: 34         INC     (HL)            
624A: 4D         LD      C,L             
624B: 36 2F      LD      (HL),$2F        
624D: 16 1F      LD      D,$1F           
624F: 06 FF      LD      B,$FF           
6251: 01 FE 6D   LD      BC,$6DFE        
6254: D7         RST     0X10            
6255: 7C         LD      A,H             
6256: FF         RST     0X38            
6257: 45         LD      B,L             
6258: C7         RST     0X00            
6259: 7D         LD      A,L             
625A: C7         RST     0X00            
625B: 7C         LD      A,H             
625C: 7F         LD      A,A             
625D: 3B         DEC     SP              
625E: 3F         CCF                     
625F: 00         NOP                     
6260: 00         NOP                     
6261: 00         NOP                     
6262: 0F         RRCA                    
6263: 00         NOP                     
6264: 31 0F 46   LD      SP,$460F        
6267: 3F         CCF                     
6268: 44         LD      B,H             
6269: 3B         DEC     SP              
626A: 4F         LD      C,A             
626B: 34         INC     (HL)            
626C: 2D         DEC     L               
626D: 16 2F      LD      D,$2F           
626F: 16 7F      LD      D,$7F           
6271: 00         NOP                     
6272: 7F         LD      A,A             
6273: 36 6B      LD      (HL),$6B        
6275: 3E 7F      LD      A,$7F           
6277: 22         LD      (HLI),A         
6278: 63         LD      H,E             
6279: 3E 63      LD      A,$63           
627B: 3E 3F      LD      A,$3F           
627D: 1C         INC     E               
627E: 3F         CCF                     
627F: 00         NOP                     
6280: 07         RLCA                    
6281: 00         NOP                     
6282: 08 07 13   LD      ($1307),SP      
6285: 0F         RRCA                    
6286: 24         INC     H               
6287: 1B         DEC     DE              
6288: 4F         LD      C,A             
6289: 34         INC     (HL)            
628A: 7D         LD      A,L             
628B: 06 3F      LD      B,$3F           
628D: 10 3F      STOP    $3F             
628F: 1F         RRA                     
6290: 37         SCF                     
6291: 1C         INC     E               
6292: 37         SCF                     
6293: 1F         RRA                     
6294: 37         SCF                     
6295: 1F         RRA                     
6296: 37         SCF                     
6297: 1F         RRA                     
6298: 38 1F      JR      C,$62B9         
629A: 1F         RRA                     
629B: 0F         RRCA                    
629C: 0F         RRCA                    
629D: 00         NOP                     
629E: 1F         RRA                     
629F: 00         NOP                     
62A0: C0         RET     NZ              
62A1: 00         NOP                     
62A2: B0         OR      B               
62A3: C0         RET     NZ              
62A4: 78         LD      A,B             
62A5: B0         OR      B               
62A6: EE 70      XOR     $70             
62A8: DC E0 70   CALL    C,$70E0         
62AB: 80         ADD     A,B             
62AC: FC         ???                     
62AD: 20 FC      JR      NZ,$62AB        
62AF: E8 B8      ADD     SP,$B8          
62B1: E0 B0      LDFF00  ($B0),A         
62B3: E0 B0      LDFF00  ($B0),A         
62B5: E0 B0      LDFF00  ($B0),A         
62B7: E0 70      LDFF00  ($70),A         
62B9: E0 E0      LDFF00  ($E0),A         
62BB: C0         RET     NZ              
62BC: E0 00      LDFF00  ($00),A         
62BE: F0 00      LD      A,($00)         
62C0: 00         NOP                     
62C1: 00         NOP                     
62C2: 0F         RRCA                    
62C3: 00         NOP                     
62C4: 31 0F 46   LD      SP,$460F        
62C7: 3F         CCF                     
62C8: 44         LD      B,H             
62C9: 3B         DEC     SP              
62CA: 7F         LD      A,A             
62CB: 04         INC     B               
62CC: 7F         LD      A,A             
62CD: 20 7F      JR      NZ,$634E        
62CF: 3F         CCF                     
62D0: 6F         LD      L,A             
62D1: 39         ADD     HL,SP           
62D2: 6F         LD      L,A             
62D3: 3F         CCF                     
62D4: 6F         LD      L,A             
62D5: 3F         CCF                     
62D6: 6F         LD      L,A             
62D7: 3F         CCF                     
62D8: 70         LD      (HL),B          
62D9: 3F         CCF                     
62DA: 3F         CCF                     
62DB: 1F         RRA                     
62DC: 1F         RRA                     
62DD: 00         NOP                     
62DE: 7F         LD      A,A             
62DF: 00         NOP                     
62E0: 00         NOP                     
62E1: 00         NOP                     
62E2: C0         RET     NZ              
62E3: 00         NOP                     
62E4: B4         OR      H               
62E5: C0         RET     NZ              
62E6: 7C         LD      A,H             
62E7: B0         OR      B               
62E8: EC         ???                     
62E9: 70         LD      (HL),B          
62EA: F8 00      LDHL    SP,$00          
62EC: F0 40      LD      A,($40)         
62EE: FC         ???                     
62EF: D0         RET     NC              
62F0: 7C         LD      A,H             
62F1: D8         RET     C               
62F2: 68         LD      L,B             
62F3: D0         RET     NC              
62F4: 70         LD      (HL),B          
62F5: C0         RET     NZ              
62F6: 60         LD      H,B             
62F7: C0         RET     NZ              
62F8: E0 C0      LDFF00  ($C0),A         
62FA: F0 80      LD      A,($80)         
62FC: F8 70      LDHL    SP,$70          
62FE: F8 00      LDHL    SP,$00          
6300: 00         NOP                     
6301: 00         NOP                     
6302: 03         INC     BC              
6303: 00         NOP                     
6304: 07         RLCA                    
6305: 00         NOP                     
6306: 0F         RRCA                    
6307: 03         INC     BC              
6308: 1F         RRA                     
6309: 04         INC     B               
630A: 3D         DEC     A               
630B: 13         INC     DE              
630C: 38 17      JR      C,$6325         
630E: 3A         LD      A,(HLD)         
630F: 15         DEC     D               
6310: 2C         INC     L               
6311: 13         INC     DE              
6312: 34         INC     (HL)            
6313: 0B         DEC     BC              
6314: 2C         INC     L               
6315: 13         INC     DE              
6316: 3C         INC     A               
6317: 0B         DEC     BC              
6318: 17         RLA                     
6319: 0C         INC     C               
631A: 18 07      JR      $6323           
631C: 1F         RRA                     
631D: 00         NOP                     
631E: 0F         RRCA                    
631F: 00         NOP                     
6320: E7         RST     0X20            
6321: 00         NOP                     
6322: FF         RST     0X38            
6323: 42         LD      B,D             
6324: FF         RST     0X38            
6325: 1E F3      LD      E,$F3           
6327: CE FB      ADC     $FB             
6329: 26 BF      LD      H,$BF           
632B: CA 9F EA   JP      Z,$EA9F         
632E: 9F         SBC     A               
632F: EA 15 EA   LD      ($EA15),A       
6332: 3A         LD      A,(HLD)         
6333: C4 5C A0   CALL    NZ,$A05C        
6336: AC         XOR     H               
6337: 70         LD      (HL),B          
6338: C8         RET     Z               
6339: F0 38      LD      A,($38)         
633B: C0         RET     NZ              
633C: FC         ???                     
633D: 30 F8      JR      NC,$6337        
633F: 00         NOP                     
6340: 00         NOP                     
6341: 00         NOP                     
6342: 00         NOP                     
6343: 00         NOP                     
6344: 03         INC     BC              
6345: 00         NOP                     
6346: 0F         RRCA                    
6347: 03         INC     BC              
6348: 1F         RRA                     
6349: 04         INC     B               
634A: 3D         DEC     A               
634B: 13         INC     DE              
634C: 39         ADD     HL,SP           
634D: 17         RLA                     
634E: 39         ADD     HL,SP           
634F: 17         RLA                     
6350: 28 17      JR      Z,$6369         
6352: 3C         INC     A               
6353: 03         INC     BC              
6354: 2A         LD      A,(HLI)         
6355: 15         DEC     D               
6356: 35         DEC     (HL)            
6357: 0E 13      LD      C,$13           
6359: 0F         RRCA                    
635A: 1C         INC     E               
635B: 03         INC     BC              
635C: 3F         CCF                     
635D: 0C         INC     C               
635E: 1F         RRA                     
635F: 00         NOP                     
6360: 00         NOP                     
6361: 00         NOP                     
6362: E7         RST     0X20            
6363: 00         NOP                     
6364: FF         RST     0X38            
6365: 02         LD      (BC),A          
6366: FF         RST     0X38            
6367: CE FB      ADC     $FB             
6369: 26 BF      LD      H,$BF           
636B: CA 1F EA   JP      Z,$EA1F         
636E: 5F         LD      E,A             
636F: AA         XOR     D               
6370: 37         SCF                     
6371: CA 3D C2   JP      Z,$C23D         
6374: 3A         LD      A,(HLD)         
6375: C4 2C D0   CALL    NZ,$D02C        
6378: E8 30      ADD     SP,$30          
637A: 18 E0      JR      $635C           
637C: F8 00      LDHL    SP,$00          
637E: F0 00      LD      A,($00)         
6380: 37         SCF                     
6381: 00         NOP                     
6382: 3E 07      LD      A,$07           
6384: 7F         LD      A,A             
6385: 01 7F 00   LD      BC,$007F        
6388: 7F         LD      A,A             
6389: 3E 7F      LD      A,$7F           
638B: 2D         DEC     L               
638C: 7F         LD      A,A             
638D: 2D         DEC     L               
638E: 7F         LD      A,A             
638F: 37         SCF                     
6390: 3F         CCF                     
6391: 12         LD      (DE),A          
6392: 1F         RRA                     
6393: 01 13 0D   LD      BC,$0D13        
6396: 11 0E 0F   LD      DE,$0F0E        
6399: 00         NOP                     
639A: 07         RLCA                    
639B: 00         NOP                     
639C: 0F         RRCA                    
639D: 07         RLCA                    
639E: 1F         RRA                     
639F: 00         NOP                     
63A0: 80         ADD     A,B             
63A1: 00         NOP                     
63A2: 40         LD      B,B             
63A3: 80         ADD     A,B             
63A4: 3F         CCF                     
63A5: C0         RET     NZ              
63A6: BD         CP      L               
63A7: DE E9      SBC     $E9             
63A9: 56         LD      D,(HL)          
63AA: FD         ???                     
63AB: 8A         ADC     A,D             
63AC: F9         LD      SP,HL           
63AD: 96         SUB     (HL)            
63AE: 7F         LD      A,A             
63AF: 80         ADD     A,B             
63B0: F8 30      LDHL    SP,$30          
63B2: F8 B0      LDHL    SP,$B0          
63B4: F8 80      LDHL    SP,$80          
63B6: C8         RET     Z               
63B7: 30 98      JR      NC,$6351        
63B9: 60         LD      H,B             
63BA: FC         ???                     
63BB: 08 FC 98   LD      ($98FC),SP      
63BE: FC         ???                     
63BF: 00         NOP                     
63C0: 1F         RRA                     
63C1: 00         NOP                     
63C2: 27         DAA                     
63C3: 1B         DEC     DE              
63C4: 5B         LD      E,E             
63C5: 24         INC     H               
63C6: BD         CP      L               
63C7: 53         LD      D,E             
63C8: F9         LD      SP,HL           
63C9: 17         RLA                     
63CA: 3A         LD      A,(HLD)         
63CB: 15         DEC     D               
63CC: 6C         LD      L,H             
63CD: 13         INC     DE              
63CE: 5C         LD      E,H             
63CF: 23         INC     HL              
63D0: 4C         LD      C,H             
63D1: 33         INC     SP              
63D2: 3B         DEC     SP              
63D3: 04         INC     B               
63D4: 17         RLA                     
63D5: 0F         RRCA                    
63D6: 18 07      JR      $63DF           
63D8: 1F         RRA                     
63D9: 00         NOP                     
63DA: 0F         RRCA                    
63DB: 00         NOP                     
63DC: 01 00 00   LD      BC,$0000        
63DF: 00         NOP                     
63E0: C0         RET     NZ              
63E1: 00         NOP                     
63E2: E0 C0      LDFF00  ($C0),A         
63E4: D8         RET     C               
63E5: 20 BC      JR      NZ,$63A3        
63E7: C8         RET     Z               
63E8: 9C         SBC     H               
63E9: E8 9C      ADD     SP,$9C          
63EB: E8 94      ADD     SP,$94          
63ED: E8 38      ADD     SP,$38          
63EF: C0         RET     NZ              
63F0: D8         RET     C               
63F1: 30 28      JR      NC,$641B        
63F3: F0 C8      LD      A,($C8)         
63F5: F0 38      LD      A,($38)         
63F7: C0         RET     NZ              
63F8: C8         RET     Z               
63F9: 30 FC      JR      NC,$63F7        
63FB: 70         LD      (HL),B          
63FC: F8 00      LDHL    SP,$00          
63FE: 00         NOP                     
63FF: 00         NOP                     
6400: 80         ADD     A,B             
6401: 00         NOP                     
6402: C0         RET     NZ              
6403: 00         NOP                     
6404: E0 C0      LDFF00  ($C0),A         
6406: F8 20      LDHL    SP,$20          
6408: BC         CP      H               
6409: C8         RET     Z               
640A: 9F         SBC     A               
640B: E8 9F      ADD     SP,$9F          
640D: EA 97 EA   LD      ($EA97),A       
6410: 3F         CCF                     
6411: C2 57 AA   JP      NZ,$AA57        
6414: 97         SUB     A               
6415: 6A         LD      L,D             
6416: 2F         CPL                     
6417: F2         ???                     
6418: CF         RST     0X08            
6419: F2         ???                     
641A: 3E C0      LD      A,$C0           
641C: FC         ???                     
641D: 30 F8      JR      NC,$6417        
641F: 00         NOP                     
6420: C0         RET     NZ              
6421: 00         NOP                     
6422: E0 00      LDFF00  ($00),A         
6424: E0 C0      LDFF00  ($C0),A         
6426: F8 20      LDHL    SP,$20          
6428: BC         CP      H               
6429: C8         RET     Z               
642A: 9C         SBC     H               
642B: E8 5E      ADD     SP,$5E          
642D: A8         XOR     B               
642E: 37         SCF                     
642F: CA 3D C6   JP      Z,$C63D         
6432: 2D         DEC     L               
6433: D6 2D      SUB     $2D             
6435: D6 DD      SUB     $DD             
6437: 26 FD      LD      H,$FD           
6439: E6 1E      AND     $1E             
643B: E4         ???                     
643C: FC         ???                     
643D: 00         NOP                     
643E: F0 00      LD      A,($00)         
6440: 00         NOP                     
6441: 00         NOP                     
6442: 00         NOP                     
6443: 00         NOP                     
6444: 00         NOP                     
6445: 00         NOP                     
6446: 03         INC     BC              
6447: 00         NOP                     
6448: 04         INC     B               
6449: 03         INC     BC              
644A: 1A         LD      A,(DE)          
644B: 05         DEC     B               
644C: 3F         CCF                     
644D: 13         INC     DE              
644E: 3F         CCF                     
644F: 14         INC     D               
6450: 7F         LD      A,A             
6451: 50         LD      D,B             
6452: 67         LD      H,A             
6453: 58         LD      E,B             
6454: 7F         LD      A,A             
6455: 6D         LD      L,L             
6456: 3F         CCF                     
6457: 35         DEC     (HL)            
6458: 1F         RRA                     
6459: 18 0F      JR      $646A           
645B: 0F         RRCA                    
645C: 00         NOP                     
645D: 00         NOP                     
645E: 00         NOP                     
645F: 00         NOP                     
6460: 00         NOP                     
6461: 00         NOP                     
6462: 00         NOP                     
6463: 00         NOP                     
6464: 03         INC     BC              
6465: 00         NOP                     
6466: 04         INC     B               
6467: 03         INC     BC              
6468: 1A         LD      A,(DE)          
6469: 05         DEC     B               
646A: 3F         CCF                     
646B: 13         INC     DE              
646C: 3F         CCF                     
646D: 14         INC     D               
646E: 3F         CCF                     
646F: 10 67      STOP    $67             
6471: 58         LD      E,B             
6472: 7F         LD      A,A             
6473: 6D         LD      L,L             
6474: 77         LD      (HL),A          
6475: 6D         LD      L,L             
6476: 3B         DEC     SP              
6477: 37         SCF                     
6478: 1F         RRA                     
6479: 18 0F      JR      $648A           
647B: 0F         RRCA                    
647C: 00         NOP                     
647D: 00         NOP                     
647E: 00         NOP                     
647F: 00         NOP                     
6480: 00         NOP                     
6481: 00         NOP                     
6482: 00         NOP                     
6483: 00         NOP                     
6484: 00         NOP                     
6485: 00         NOP                     
6486: 03         INC     BC              
6487: 00         NOP                     
6488: 0D         DEC     C               
6489: 03         INC     BC              
648A: 1E 0D      LD      E,$0D           
648C: 77         LD      (HL),A          
648D: 0E 3B      LD      C,$3B           
648F: 07         RLCA                    
6490: 0E 01      LD      C,$01           
6492: 3F         CCF                     
6493: 0A         LD      A,(BC)          
6494: 7F         LD      A,A             
6495: 5B         LD      E,E             
6496: 77         LD      (HL),A          
6497: 6F         LD      L,A             
6498: 3F         CCF                     
6499: 30 1F      JR      NC,$64BA        
649B: 1F         RRA                     
649C: 00         NOP                     
649D: 00         NOP                     
649E: 00         NOP                     
649F: 00         NOP                     
64A0: 00         NOP                     
64A1: 00         NOP                     
64A2: 00         NOP                     
64A3: 00         NOP                     
64A4: 00         NOP                     
64A5: 00         NOP                     
64A6: E0 00      LDFF00  ($00),A         
64A8: 90         SUB     B               
64A9: E0 68      LDFF00  ($68),A         
64AB: F0 24      LD      A,($24)         
64AD: D8         RET     C               
64AE: F2         ???                     
64AF: 2C         INC     L               
64B0: B2         OR      D               
64B1: 6C         LD      L,H             
64B2: F2         ???                     
64B3: 6C         LD      L,H             
64B4: F6 6A      OR      $6A             
64B6: DE 66      SBC     $66             
64B8: FC         ???                     
64B9: 0C         INC     C               
64BA: F8 F8      LDHL    SP,$F8          
64BC: 00         NOP                     
64BD: 00         NOP                     
64BE: 00         NOP                     
64BF: 00         NOP                     
64C0: 00         NOP                     
64C1: 00         NOP                     
64C2: 00         NOP                     
64C3: 00         NOP                     
64C4: 03         INC     BC              
64C5: 00         NOP                     
64C6: 07         RLCA                    
64C7: 00         NOP                     
64C8: 0F         RRCA                    
64C9: 03         INC     BC              
64CA: 1F         RRA                     
64CB: 04         INC     B               
64CC: 3D         DEC     A               
64CD: 13         INC     DE              
64CE: 39         ADD     HL,SP           
64CF: 17         RLA                     
64D0: 7A         LD      A,D             
64D1: 55         LD      D,L             
64D2: 6C         LD      L,H             
64D3: 53         LD      D,E             
64D4: 7C         LD      A,H             
64D5: 63         LD      H,E             
64D6: 7C         LD      A,H             
64D7: 73         LD      (HL),E          
64D8: 3C         INC     A               
64D9: 3B         DEC     SP              
64DA: 0F         RRCA                    
64DB: 0C         INC     C               
64DC: 00         NOP                     
64DD: 00         NOP                     
64DE: 00         NOP                     
64DF: 00         NOP                     
64E0: 00         NOP                     
64E1: 00         NOP                     
64E2: 00         NOP                     
64E3: 00         NOP                     
64E4: 80         ADD     A,B             
64E5: 00         NOP                     
64E6: C0         RET     NZ              
64E7: 00         NOP                     
64E8: E0 C0      LDFF00  ($C0),A         
64EA: F8 20      LDHL    SP,$20          
64EC: BC         CP      H               
64ED: C8         RET     Z               
64EE: 9C         SBC     H               
64EF: E8 9E      ADD     SP,$9E          
64F1: EA 96 EA   LD      ($EA96),A       
64F4: 1E E6      LD      E,$E6           
64F6: 3E DE      LD      A,$DE           
64F8: 7C         LD      A,H             
64F9: BC         CP      H               
64FA: F0 70      LD      A,($70)         
64FC: 00         NOP                     
64FD: 00         NOP                     
64FE: 00         NOP                     
64FF: 00         NOP                     
6500: 00         NOP                     
6501: 00         NOP                     
6502: 07         RLCA                    
6503: 00         NOP                     
6504: 09         ADD     HL,BC           
6505: 06 16      LD      B,$16           
6507: 0F         RRCA                    
6508: 27         DAA                     
6509: 18 27      JR      $6532           
650B: 1B         DEC     DE              
650C: 4D         LD      C,L             
650D: 3B         DEC     SP              
650E: 4A         LD      C,D             
650F: 3D         DEC     A               
6510: 41         LD      B,C             
6511: 3E 43      LD      A,$43           
6513: 3C         INC     A               
6514: 3F         CCF                     
6515: 00         NOP                     
6516: 14         INC     D               
6517: 0F         RRCA                    
6518: 13         INC     DE              
6519: 0F         RRCA                    
651A: 0C         INC     C               
651B: 03         INC     BC              
651C: 07         RLCA                    
651D: 00         NOP                     
651E: 01 00 00   LD      BC,$0000        
6521: 00         NOP                     
6522: F0 00      LD      A,($00)         
6524: F8 80      LDHL    SP,$80          
6526: F8 40      LDHL    SP,$40          
6528: 70         LD      (HL),B          
6529: A0         AND     B               
652A: FC         ???                     
652B: 20 FC      JR      NZ,$6529        
652D: 88         ADC     A,B             
652E: FE A0      CP      $A0             
6530: 5E         LD      E,(HL)          
6531: AC         XOR     H               
6532: BE         CP      (HL)            
6533: 44         LD      B,H             
6534: FF         RST     0X38            
6535: 08 DD 2A   LD      ($2ADD),SP      
6538: EB         ???                     
6539: B6         OR      (HL)            
653A: F6 1C      OR      $1C             
653C: FC         ???                     
653D: 68         LD      L,B             
653E: F8 00      LDHL    SP,$00          
6540: 00         NOP                     
6541: 00         NOP                     
6542: 00         NOP                     
6543: 00         NOP                     
6544: 03         INC     BC              
6545: 00         NOP                     
6546: 0D         DEC     C               
6547: 03         INC     BC              
6548: 1E 0D      LD      E,$0D           
654A: 77         LD      (HL),A          
654B: 0E 3B      LD      C,$3B           
654D: 07         RLCA                    
654E: 0E 01      LD      C,$01           
6550: 3F         CCF                     
6551: 0A         LD      A,(BC)          
6552: 3F         CCF                     
6553: 1B         DEC     DE              
6554: 37         SCF                     
6555: 2F         CPL                     
6556: 38 37      JR      C,$658F         
6558: 1F         RRA                     
6559: 18 0F      JR      $656A           
655B: 0F         RRCA                    
655C: 00         NOP                     
655D: 00         NOP                     
655E: 00         NOP                     
655F: 00         NOP                     
6560: 00         NOP                     
6561: 00         NOP                     
6562: 00         NOP                     
6563: 00         NOP                     
6564: E0 00      LDFF00  ($00),A         
6566: 10 E0      STOP    $E0             
6568: C8         RET     Z               
6569: F0 24      LD      A,($24)         
656B: D8         RET     C               
656C: F2         ???                     
656D: 2C         INC     L               
656E: B2         OR      D               
656F: 6C         LD      L,H             
6570: F2         ???                     
6571: 6C         LD      L,H             
6572: F4         ???                     
6573: 68         LD      L,B             
6574: DC 64 FC   CALL    C,$FC64         
6577: 4C         LD      C,H             
6578: F8 18      LDHL    SP,$18          
657A: F0 F0      LD      A,($F0)         
657C: 00         NOP                     
657D: 00         NOP                     
657E: 00         NOP                     
657F: 00         NOP                     
6580: 00         NOP                     
6581: 00         NOP                     
6582: 03         INC     BC              
6583: 00         NOP                     
6584: 07         RLCA                    
6585: 00         NOP                     
6586: 0F         RRCA                    
6587: 03         INC     BC              
6588: 1F         RRA                     
6589: 04         INC     B               
658A: 3D         DEC     A               
658B: 13         INC     DE              
658C: 39         ADD     HL,SP           
658D: 17         RLA                     
658E: 3A         LD      A,(HLD)         
658F: 15         DEC     D               
6590: 2C         INC     L               
6591: 13         INC     DE              
6592: 3C         INC     A               
6593: 23         INC     HL              
6594: 3C         INC     A               
6595: 23         INC     HL              
6596: 3C         INC     A               
6597: 33         INC     SP              
6598: 1F         RRA                     
6599: 1C         INC     E               
659A: 07         RLCA                    
659B: 07         RLCA                    
659C: 00         NOP                     
659D: 00         NOP                     
659E: 00         NOP                     
659F: 00         NOP                     
65A0: 00         NOP                     
65A1: 00         NOP                     
65A2: 80         ADD     A,B             
65A3: 00         NOP                     
65A4: C0         RET     NZ              
65A5: 00         NOP                     
65A6: E0 C0      LDFF00  ($C0),A         
65A8: F8 20      LDHL    SP,$20          
65AA: BC         CP      H               
65AB: C8         RET     Z               
65AC: 9C         SBC     H               
65AD: E8 9C      ADD     SP,$9C          
65AF: E8 94      ADD     SP,$94          
65B1: E8 1C      ADD     SP,$1C          
65B3: E4         ???                     
65B4: 3C         INC     A               
65B5: CC 7C 9C   CALL    Z,$9C7C         
65B8: F8 38      LDHL    SP,$38          
65BA: E0 E0      LDFF00  ($E0),A         
65BC: 00         NOP                     
65BD: 00         NOP                     
65BE: 00         NOP                     
65BF: 00         NOP                     
65C0: 00         NOP                     
65C1: 00         NOP                     
65C2: 00         NOP                     
65C3: 07         RLCA                    
65C4: 07         RLCA                    
65C5: 18 1F      JR      $65E6           
65C7: 20 3F      JR      NZ,$6608        
65C9: 40         LD      B,B             
65CA: 3F         CCF                     
65CB: 40         LD      B,B             
65CC: 0F         RRCA                    
65CD: F0 7F      LD      A,($7F)         
65CF: 80         ADD     A,B             
65D0: 7F         LD      A,A             
65D1: 80         ADD     A,B             
65D2: 3F         CCF                     
65D3: 40         LD      B,B             
65D4: 01 3E 1F   LD      BC,$1F3E        
65D7: 20 3F      JR      NZ,$6618        
65D9: 40         LD      B,B             
65DA: 1F         RRA                     
65DB: 20 07      JR      NZ,$65E4        
65DD: 18 00      JR      $65DF           
65DF: 07         RLCA                    
65E0: 00         NOP                     
65E1: 00         NOP                     
65E2: 00         NOP                     
65E3: 03         INC     BC              
65E4: 03         INC     BC              
65E5: 1C         INC     E               
65E6: 1F         RRA                     
65E7: 20 1F      JR      NZ,$6608        
65E9: 20 03      JR      NZ,$65EE        
65EB: 3C         INC     A               
65EC: 3F         CCF                     
65ED: C0         RET     NZ              
65EE: 7F         LD      A,A             
65EF: 00         NOP                     
65F0: 7F         LD      A,A             
65F1: 80         ADD     A,B             
65F2: 3F         CCF                     
65F3: 40         LD      B,B             
65F4: 07         RLCA                    
65F5: 18 1F      JR      $6616           
65F7: 20 3F      JR      NZ,$6638        
65F9: 40         LD      B,B             
65FA: 1F         RRA                     
65FB: 20 03      JR      NZ,$6600        
65FD: 1C         INC     E               
65FE: 00         NOP                     
65FF: 03         INC     BC              
6600: 1F         RRA                     
6601: 00         NOP                     
6602: 2B         DEC     HL              
6603: 1D         DEC     E               
6604: 5F         LD      E,A             
6605: 30 BE      JR      NC,$65C5        
6607: 63         LD      H,E             
6608: FF         RST     0X38            
6609: 4F         LD      C,A             
660A: BF         CP      A               
660B: 4C         LD      C,H             
660C: FE 19      CP      $19             
660E: ED         ???                     
660F: 5B         LD      E,E             
6610: 77         LD      (HL),A          
6611: 2E 7E      LD      L,$7E           
6613: 01 E4 5B   LD      BC,$5BE4        
6616: F3         DI                      
6617: 6C         LD      L,H             
6618: 7F         LD      A,A             
6619: 03         INC     BC              
661A: 07         RLCA                    
661B: 03         INC     BC              
661C: 03         INC     BC              
661D: 00         NOP                     
661E: 00         NOP                     
661F: 00         NOP                     
6620: 30 00      JR      NC,$6622        
6622: F8 30      LDHL    SP,$30          
6624: F8 90      LDHL    SP,$90          
6626: D8         RET     C               
6627: 20 48      JR      NZ,$6671        
6629: B0         OR      B               
662A: EC         ???                     
662B: 90         SUB     B               
662C: DE AC      SBC     $AC             
662E: 9E         SBC     (HL)            
662F: 6C         LD      L,H             
6630: 36 EC      LD      (HL),$EC        
6632: 7A         LD      A,D             
6633: CC FC 80   CALL    Z,$80FC         
6636: F4         ???                     
6637: 08 68 D0   LD      ($D068),SP      
663A: B0         OR      B               
663B: C0         RET     NZ              
663C: C0         RET     NZ              
663D: 00         NOP                     
663E: 00         NOP                     
663F: 00         NOP                     
6640: 00         NOP                     
6641: 00         NOP                     
6642: 00         NOP                     
6643: 00         NOP                     
6644: 00         NOP                     
6645: 00         NOP                     
6646: 00         NOP                     
6647: 00         NOP                     
6648: 07         RLCA                    
6649: 00         NOP                     
664A: 09         ADD     HL,BC           
664B: 07         RLCA                    
664C: 0B         DEC     BC              
664D: 07         RLCA                    
664E: 0F         RRCA                    
664F: 06 06      LD      B,$06           
6651: 01 0D 06   LD      BC,$060D        
6654: 07         RLCA                    
6655: 01 01 00   LD      BC,$0001        
6658: 00         NOP                     
6659: 00         NOP                     
665A: 00         NOP                     
665B: 00         NOP                     
665C: 00         NOP                     
665D: 00         NOP                     
665E: 00         NOP                     
665F: 00         NOP                     
6660: 00         NOP                     
6661: 00         NOP                     
6662: 00         NOP                     
6663: 00         NOP                     
6664: 00         NOP                     
6665: 00         NOP                     
6666: 00         NOP                     
6667: 00         NOP                     
6668: 40         LD      B,B             
6669: 00         NOP                     
666A: E0 40      LDFF00  ($40),A         
666C: A0         AND     B               
666D: 40         LD      B,B             
666E: 70         LD      (HL),B          
666F: A0         AND     B               
6670: 70         LD      (HL),B          
6671: A0         AND     B               
6672: E0 00      LDFF00  ($00),A         
6674: C0         RET     NZ              
6675: 80         ADD     A,B             
6676: 80         ADD     A,B             
6677: 00         NOP                     
6678: 00         NOP                     
6679: 00         NOP                     
667A: 00         NOP                     
667B: 00         NOP                     
667C: 00         NOP                     
667D: 00         NOP                     
667E: 00         NOP                     
667F: 00         NOP                     
6680: 00         NOP                     
6681: 00         NOP                     
6682: 00         NOP                     
6683: 00         NOP                     
6684: 00         NOP                     
6685: 00         NOP                     
6686: 00         NOP                     
6687: 00         NOP                     
6688: 00         NOP                     
6689: 00         NOP                     
668A: 00         NOP                     
668B: 00         NOP                     
668C: 01 00 03   LD      BC,$0300        
668F: 01 03 01   LD      BC,$0103        
6692: 01 00 00   LD      BC,$0000        
6695: 00         NOP                     
6696: 00         NOP                     
6697: 00         NOP                     
6698: 00         NOP                     
6699: 00         NOP                     
669A: 00         NOP                     
669B: 00         NOP                     
669C: 00         NOP                     
669D: 00         NOP                     
669E: 00         NOP                     
669F: 00         NOP                     
66A0: FF         RST     0X38            
66A1: 78         LD      A,B             
66A2: FB         EI                      
66A3: 77         LD      (HL),A          
66A4: FB         EI                      
66A5: 64         LD      H,H             
66A6: BF         CP      A               
66A7: 53         LD      D,E             
66A8: BF         CP      A               
66A9: 54         LD      D,H             
66AA: BF         CP      A               
66AB: 50         LD      D,B             
66AC: A7         AND     A               
66AD: 58         LD      E,B             
66AE: 9F         SBC     A               
66AF: 6D         LD      L,L             
66B0: B7         OR      A               
66B1: 4D         LD      C,L             
66B2: CB 37      SET     1,E             
66B4: CF         RST     0X08            
66B5: 70         LD      (HL),B          
66B6: F8 67      LDHL    SP,$67          
66B8: F7         RST     0X30            
66B9: 0F         RRCA                    
66BA: 9C         SBC     H               
66BB: 63         LD      H,E             
66BC: AF         XOR     A               
66BD: 5C         LD      E,H             
66BE: FF         RST     0X38            
66BF: 00         NOP                     
66C0: FF         RST     0X38            
66C1: 3E 3F      LD      A,$3F           
66C3: DE 1F      SBC     $1F             
66C5: E6 DD      AND     $DD             
66C7: EA FD 2A   LD      ($2AFD),A       
66CA: FD         ???                     
66CB: 0A         LD      A,(BC)          
66CC: E5         PUSH    HL              
66CD: 1A         LD      A,(DE)          
66CE: F9         LD      SP,HL           
66CF: B6         OR      (HL)            
66D0: ED         ???                     
66D1: B2         OR      D               
66D2: D7         RST     0X10            
66D3: E8 F3      ADD     SP,$F3          
66D5: 0E 1F      LD      C,$1F           
66D7: E6 FF      AND     $FF             
66D9: F0 39      LD      A,($39)         
66DB: C6 F5      ADD     $F5             
66DD: 3A         LD      A,(HLD)         
66DE: FF         RST     0X38            
66DF: 00         NOP                     
66E0: FF         RST     0X38            
66E1: 07         RLCA                    
66E2: FF         RST     0X38            
66E3: 0E FE      LD      C,$FE           
66E5: 1D         DEC     E               
66E6: E6 1D      AND     $1D             
66E8: E3         ???                     
66E9: 1C         INC     E               
66EA: E3         ???                     
66EB: 1C         INC     E               
66EC: E3         ???                     
66ED: 1C         INC     E               
66EE: E3         ???                     
66EF: 1C         INC     E               
66F0: E3         ???                     
66F1: 1C         INC     E               
66F2: E3         ???                     
66F3: 1C         INC     E               
66F4: E2         LDFF00  (C),A           
66F5: 1D         DEC     E               
66F6: E3         ???                     
66F7: 1D         DEC     E               
66F8: E3         ???                     
66F9: 1D         DEC     E               
66FA: A3         AND     E               
66FB: 5C         LD      E,H             
66FC: E3         ???                     
66FD: 5C         LD      E,H             
66FE: FF         RST     0X38            
66FF: 40         LD      B,B             
6700: FF         RST     0X38            
6701: 00         NOP                     
6702: 2F         CPL                     
6703: F0 5F      LD      A,($5F)         
6705: EC         ???                     
6706: BB         CP      E               
6707: 5C         LD      E,H             
6708: F7         RST     0X30            
6709: B8         CP      B               
670A: FF         RST     0X38            
670B: C4 FF D6   CALL    NZ,$D6FF        
670E: 7B         LD      A,E             
670F: DC A7 58   CALL    C,$58A7         
6712: 5F         LD      E,A             
6713: A0         AND     B               
6714: 23         INC     HL              
6715: DC FF 9C   CALL    C,$9CFF         
6718: C3 BC FF   JP      $FFBC           
671B: 00         NOP                     
671C: DF         RST     0X18            
671D: 3A         LD      A,(HLD)         
671E: FF         RST     0X38            
671F: 02         LD      (BC),A          
6720: F9         LD      SP,HL           
6721: 07         RLCA                    
6722: F8 07      LDHL    SP,$07          
6724: F8 07      LDHL    SP,$07          
6726: F8 07      LDHL    SP,$07          
6728: F8 07      LDHL    SP,$07          
672A: F8 07      LDHL    SP,$07          
672C: D8         RET     C               
672D: 27         DAA                     
672E: D8         RET     C               
672F: 27         DAA                     
6730: F8 17      LDHL    SP,$17          
6732: FC         ???                     
6733: 0F         RRCA                    
6734: FB         EI                      
6735: 07         RLCA                    
6736: FC         ???                     
6737: 03         INC     BC              
6738: FE 01      CP      $01             
673A: 83         ADD     A,E             
673B: 7C         LD      A,H             
673C: FF         RST     0X38            
673D: 7E         LD      A,(HL)          
673E: FF         RST     0X38            
673F: 7F         LD      A,A             
6740: FF         RST     0X38            
6741: E0 FF      LDFF00  ($FF),A         
6743: F0 7F      LD      A,($7F)         
6745: F8 27      LDHL    SP,$27          
6747: F8 07      LDHL    SP,$07          
6749: F8 07      LDHL    SP,$07          
674B: F8 07      LDHL    SP,$07          
674D: F8 07      LDHL    SP,$07          
674F: F8 07      LDHL    SP,$07          
6751: F8 07      LDHL    SP,$07          
6753: F8 87      LDHL    SP,$87          
6755: F8 07      LDHL    SP,$07          
6757: F8 07      LDHL    SP,$07          
6759: F8 05      LDHL    SP,$05          
675B: FA 87 7A   LD      A,($7A87)       
675E: FF         RST     0X38            
675F: 02         LD      (BC),A          
6760: FF         RST     0X38            
6761: 7F         LD      A,A             
6762: FF         RST     0X38            
6763: 7F         LD      A,A             
6764: FF         RST     0X38            
6765: 7F         LD      A,A             
6766: 80         ADD     A,B             
6767: 7F         LD      A,A             
6768: 80         ADD     A,B             
6769: 7F         LD      A,A             
676A: 80         ADD     A,B             
676B: 7F         LD      A,A             
676C: 80         ADD     A,B             
676D: 7F         LD      A,A             
676E: 80         ADD     A,B             
676F: 7F         LD      A,A             
6770: 84         ADD     A,H             
6771: 7F         LD      A,A             
6772: 86         ADD     A,(HL)          
6773: 7F         LD      A,A             
6774: 87         ADD     A,A             
6775: 7F         LD      A,A             
6776: 83         ADD     A,E             
6777: 7F         LD      A,A             
6778: 81         ADD     A,C             
6779: 7F         LD      A,A             
677A: 80         ADD     A,B             
677B: 7F         LD      A,A             
677C: 80         ADD     A,B             
677D: 7F         LD      A,A             
677E: FF         RST     0X38            
677F: 00         NOP                     
6780: FF         RST     0X38            
6781: 07         RLCA                    
6782: FF         RST     0X38            
6783: 0F         RRCA                    
6784: FE 1F      CP      $1F             
6786: E4         ???                     
6787: 1F         RRA                     
6788: E0 1F      LDFF00  ($1F),A         
678A: E0 1F      LDFF00  ($1F),A         
678C: E0 1F      LDFF00  ($1F),A         
678E: E0 1F      LDFF00  ($1F),A         
6790: E0 1F      LDFF00  ($1F),A         
6792: E0 1F      LDFF00  ($1F),A         
6794: E0 1F      LDFF00  ($1F),A         
6796: E0 1F      LDFF00  ($1F),A         
6798: E0 1F      LDFF00  ($1F),A         
679A: A0         AND     B               
679B: 5F         LD      E,A             
679C: E1         POP     HL              
679D: 5E         LD      E,(HL)          
679E: FF         RST     0X38            
679F: 40         LD      B,B             
67A0: 9F         SBC     A               
67A1: E0 1F      LDFF00  ($1F),A         
67A3: E0 1F      LDFF00  ($1F),A         
67A5: E0 1F      LDFF00  ($1F),A         
67A7: E0 1F      LDFF00  ($1F),A         
67A9: E0 1F      LDFF00  ($1F),A         
67AB: E0 1F      LDFF00  ($1F),A         
67AD: E0 1F      LDFF00  ($1F),A         
67AF: E0 1F      LDFF00  ($1F),A         
67B1: E0 1F      LDFF00  ($1F),A         
67B3: E0 1F      LDFF00  ($1F),A         
67B5: E0 3F      LDFF00  ($3F),A         
67B7: C0         RET     NZ              
67B8: 7F         LD      A,A             
67B9: 80         ADD     A,B             
67BA: C1         POP     BC              
67BB: 3E FF      LD      A,$FF           
67BD: 7E         LD      A,(HL)          
67BE: FF         RST     0X38            
67BF: FE C0      CP      $C0             
67C1: 00         NOP                     
67C2: A0         AND     B               
67C3: C0         RET     NZ              
67C4: 30 C0      JR      NC,$6786        
67C6: E8 F0      ADD     SP,$F0          
67C8: FC         ???                     
67C9: 00         NOP                     
67CA: FF         RST     0X38            
67CB: 00         NOP                     
67CC: FE 00      CP      $00             
67CE: F8 D0      LDHL    SP,$D0          
67D0: E8 70      ADD     SP,$70          
67D2: 70         LD      (HL),B          
67D3: 80         ADD     A,B             
67D4: F0 60      LD      A,($60)         
67D6: F0 E0      LD      A,($E0)         
67D8: F0 00      LD      A,($00)         
67DA: 78         LD      A,B             
67DB: 80         ADD     A,B             
67DC: BC         CP      H               
67DD: 78         LD      A,B             
67DE: FC         ???                     
67DF: 00         NOP                     
67E0: 1B         DEC     DE              
67E1: 00         NOP                     
67E2: 3D         DEC     A               
67E3: 1B         DEC     DE              
67E4: 3F         CCF                     
67E5: 18 3F      JR      $6826           
67E7: 00         NOP                     
67E8: 2F         CPL                     
67E9: 11 2F 15   LD      DE,$152F        
67EC: 2F         CPL                     
67ED: 17         RLA                     
67EE: 2B         DEC     HL              
67EF: 16 2B      LD      D,$2B           
67F1: 16 15      LD      D,$15           
67F3: 0B         DEC     BC              
67F4: 1B         DEC     DE              
67F5: 04         INC     B               
67F6: 18 0F      JR      $6807           
67F8: 27         DAA                     
67F9: 1F         RRA                     
67FA: 78         LD      A,B             
67FB: 27         DAA                     
67FC: F7         RST     0X30            
67FD: 78         LD      A,B             
67FE: 7F         LD      A,A             
67FF: 00         NOP                     
6800: 00         NOP                     
6801: 00         NOP                     
6802: 00         NOP                     
6803: 00         NOP                     
6804: 00         NOP                     
6805: 00         NOP                     
6806: 00         NOP                     
6807: 00         NOP                     
6808: 00         NOP                     
6809: 1F         RRA                     
680A: 0F         RRCA                    
680B: 10 0F      STOP    $0F             
680D: 10 0F      STOP    $0F             
680F: 10 00      STOP    $00             
6811: 00         NOP                     
6812: 00         NOP                     
6813: 00         NOP                     
6814: 00         NOP                     
6815: 00         NOP                     
6816: 00         NOP                     
6817: 00         NOP                     
6818: 00         NOP                     
6819: FC         ???                     
681A: F8 04      LDHL    SP,$04          
681C: F8 04      LDHL    SP,$04          
681E: F8 04      LDHL    SP,$04          
6820: 0F         RRCA                    
6821: 10 0F      STOP    $0F             
6823: 10 0F      STOP    $0F             
6825: 10 0F      STOP    $0F             
6827: 10 0F      STOP    $0F             
6829: 10 00      STOP    $00             
682B: 1F         RRA                     
682C: 00         NOP                     
682D: 00         NOP                     
682E: 00         NOP                     
682F: 00         NOP                     
6830: F8 04      LDHL    SP,$04          
6832: F8 04      LDHL    SP,$04          
6834: F8 04      LDHL    SP,$04          
6836: F8 04      LDHL    SP,$04          
6838: F8 04      LDHL    SP,$04          
683A: 00         NOP                     
683B: FC         ???                     
683C: 00         NOP                     
683D: 00         NOP                     
683E: 00         NOP                     
683F: 00         NOP                     
6840: 00         NOP                     
6841: 00         NOP                     
6842: 00         NOP                     
6843: 00         NOP                     
6844: 1F         RRA                     
6845: 0F         RRCA                    
6846: 1F         RRA                     
6847: 10 1F      STOP    $1F             
6849: 10 1F      STOP    $1F             
684B: 10 1F      STOP    $1F             
684D: 10 1F      STOP    $1F             
684F: 10 00      STOP    $00             
6851: 00         NOP                     
6852: 00         NOP                     
6853: 00         NOP                     
6854: FC         ???                     
6855: F8 FC      LDHL    SP,$FC          
6857: 04         INC     B               
6858: FC         ???                     
6859: 04         INC     B               
685A: FC         ???                     
685B: 04         INC     B               
685C: FC         ???                     
685D: 04         INC     B               
685E: FC         ???                     
685F: 04         INC     B               
6860: 1F         RRA                     
6861: 10 1F      STOP    $1F             
6863: 10 10      STOP    $10             
6865: 10 10      STOP    $10             
6867: 1F         RRA                     
6868: 10 1F      STOP    $1F             
686A: 1F         RRA                     
686B: 1F         RRA                     
686C: 00         NOP                     
686D: 00         NOP                     
686E: 00         NOP                     
686F: 00         NOP                     
6870: FC         ???                     
6871: 04         INC     B               
6872: FC         ???                     
6873: 04         INC     B               
6874: 04         INC     B               
6875: 04         INC     B               
6876: 04         INC     B               
6877: FC         ???                     
6878: 04         INC     B               
6879: FC         ???                     
687A: FC         ???                     
687B: FC         ???                     
687C: 00         NOP                     
687D: 00         NOP                     
687E: 00         NOP                     
687F: 00         NOP                     
6880: 1F         RRA                     
6881: 0F         RRCA                    
6882: 1F         RRA                     
6883: 10 1F      STOP    $1F             
6885: 10 1F      STOP    $1F             
6887: 10 1F      STOP    $1F             
6889: 10 1F      STOP    $1F             
688B: 10 1F      STOP    $1F             
688D: 10 1F      STOP    $1F             
688F: 10 FC      STOP    $FC             
6891: F8 FC      LDHL    SP,$FC          
6893: 04         INC     B               
6894: FC         ???                     
6895: 04         INC     B               
6896: FC         ???                     
6897: 04         INC     B               
6898: FC         ???                     
6899: 04         INC     B               
689A: FC         ???                     
689B: 04         INC     B               
689C: FC         ???                     
689D: 04         INC     B               
689E: FC         ???                     
689F: 04         INC     B               
68A0: 10 10      STOP    $10             
68A2: 10 1F      STOP    $1F             
68A4: 10 1F      STOP    $1F             
68A6: 10 1F      STOP    $1F             
68A8: 10 1F      STOP    $1F             
68AA: 1F         RRA                     
68AB: 1F         RRA                     
68AC: 00         NOP                     
68AD: 00         NOP                     
68AE: 00         NOP                     
68AF: 00         NOP                     
68B0: 04         INC     B               
68B1: 04         INC     B               
68B2: 04         INC     B               
68B3: FC         ???                     
68B4: 04         INC     B               
68B5: FC         ???                     
68B6: 04         INC     B               
68B7: FC         ???                     
68B8: 04         INC     B               
68B9: FC         ???                     
68BA: FC         ???                     
68BB: FC         ???                     
68BC: 00         NOP                     
68BD: 00         NOP                     
68BE: 00         NOP                     
68BF: 00         NOP                     
68C0: 00         NOP                     
68C1: 00         NOP                     
68C2: 00         NOP                     
68C3: 00         NOP                     
68C4: 00         NOP                     
68C5: 00         NOP                     
68C6: 3C         INC     A               
68C7: 3C         INC     A               
68C8: 5A         LD      E,D             
68C9: 66         LD      H,(HL)          
68CA: 99         SBC     C               
68CB: E7         RST     0X20            
68CC: 81         ADD     A,C             
68CD: FF         RST     0X38            
68CE: 81         ADD     A,C             
68CF: FF         RST     0X38            
68D0: 7E         LD      A,(HL)          
68D1: 7E         LD      A,(HL)          
68D2: 3C         INC     A               
68D3: 24         INC     H               
68D4: 3C         INC     A               
68D5: 24         INC     H               
68D6: 3C         INC     A               
68D7: 24         INC     H               
68D8: 3C         INC     A               
68D9: 24         INC     H               
68DA: 18 18      JR      $68F4           
68DC: 00         NOP                     
68DD: 00         NOP                     
68DE: 00         NOP                     
68DF: 00         NOP                     
68E0: 00         NOP                     
68E1: 00         NOP                     
68E2: 18 18      JR      $68FC           
68E4: 3C         INC     A               
68E5: 24         INC     H               
68E6: 3C         INC     A               
68E7: 24         INC     H               
68E8: 7E         LD      A,(HL)          
68E9: 42         LD      B,D             
68EA: FF         RST     0X38            
68EB: 99         SBC     C               
68EC: FF         RST     0X38            
68ED: A5         AND     L               
68EE: FF         RST     0X38            
68EF: A5         AND     L               
68F0: FF         RST     0X38            
68F1: 99         SBC     C               
68F2: 7E         LD      A,(HL)          
68F3: 42         LD      B,D             
68F4: 3C         INC     A               
68F5: 3C         INC     A               
68F6: 1C         INC     E               
68F7: 14         INC     D               
68F8: 7C         LD      A,H             
68F9: 74         LD      (HL),H          
68FA: 7C         LD      A,H             
68FB: 54         LD      D,H             
68FC: 7C         LD      A,H             
68FD: 44         LD      B,H             
68FE: 7C         LD      A,H             
68FF: 7C         LD      A,H             
6900: FF         RST     0X38            
6901: FF         RST     0X38            
6902: FF         RST     0X38            
6903: FF         RST     0X38            
6904: E3         ???                     
6905: FF         RST     0X38            
6906: DD         ???                     
6907: FF         RST     0X38            
6908: BE         CP      (HL)            
6909: FF         RST     0X38            
690A: BF         CP      A               
690B: FF         RST     0X38            
690C: BF         CP      A               
690D: FF         RST     0X38            
690E: BF         CP      A               
690F: FF         RST     0X38            
6910: DF         RST     0X18            
6911: FF         RST     0X38            
6912: EF         RST     0X28            
6913: FF         RST     0X38            
6914: F7         RST     0X30            
6915: FF         RST     0X38            
6916: FB         EI                      
6917: FF         RST     0X38            
6918: FD         ???                     
6919: FF         RST     0X38            
691A: FE FF      CP      $FF             
691C: FF         RST     0X38            
691D: FF         RST     0X38            
691E: FF         RST     0X38            
691F: FF         RST     0X38            
6920: FF         RST     0X38            
6921: FF         RST     0X38            
6922: FF         RST     0X38            
6923: FF         RST     0X38            
6924: FF         RST     0X38            
6925: E3         ???                     
6926: E7         RST     0X20            
6927: D9         RETI                    
6928: DF         RST     0X18            
6929: A0         AND     B               
692A: FF         RST     0X38            
692B: 80         ADD     A,B             
692C: FF         RST     0X38            
692D: 80         ADD     A,B             
692E: FF         RST     0X38            
692F: 80         ADD     A,B             
6930: DF         RST     0X18            
6931: FF         RST     0X38            
6932: EF         RST     0X28            
6933: FF         RST     0X38            
6934: F7         RST     0X30            
6935: FF         RST     0X38            
6936: FB         EI                      
6937: FF         RST     0X38            
6938: FD         ???                     
6939: FF         RST     0X38            
693A: FE FF      CP      $FF             
693C: FF         RST     0X38            
693D: FF         RST     0X38            
693E: FF         RST     0X38            
693F: FF         RST     0X38            
6940: FF         RST     0X38            
6941: FF         RST     0X38            
6942: FF         RST     0X38            
6943: FF         RST     0X38            
6944: FF         RST     0X38            
6945: E3         ???                     
6946: E7         RST     0X20            
6947: D9         RETI                    
6948: DF         RST     0X18            
6949: A0         AND     B               
694A: FF         RST     0X38            
694B: 80         ADD     A,B             
694C: FF         RST     0X38            
694D: 80         ADD     A,B             
694E: FF         RST     0X38            
694F: 80         ADD     A,B             
6950: FF         RST     0X38            
6951: C0         RET     NZ              
6952: FF         RST     0X38            
6953: E0 FF      LDFF00  ($FF),A         
6955: F0 FF      LD      A,($FF)         
6957: F8 FF      LDHL    SP,$FF          
6959: FC         ???                     
695A: FF         RST     0X38            
695B: FE FF      CP      $FF             
695D: FF         RST     0X38            
695E: FF         RST     0X38            
695F: FF         RST     0X38            
6960: FF         RST     0X38            
6961: 00         NOP                     
6962: FF         RST     0X38            
6963: 00         NOP                     
6964: FF         RST     0X38            
6965: 00         NOP                     
6966: FF         RST     0X38            
6967: 00         NOP                     
6968: FF         RST     0X38            
6969: 00         NOP                     
696A: FF         RST     0X38            
696B: 00         NOP                     
696C: FF         RST     0X38            
696D: 00         NOP                     
696E: FF         RST     0X38            
696F: 00         NOP                     
6970: FF         RST     0X38            
6971: 00         NOP                     
6972: FF         RST     0X38            
6973: 00         NOP                     
6974: FF         RST     0X38            
6975: 00         NOP                     
6976: FF         RST     0X38            
6977: 00         NOP                     
6978: FF         RST     0X38            
6979: 00         NOP                     
697A: FF         RST     0X38            
697B: 00         NOP                     
697C: FF         RST     0X38            
697D: 00         NOP                     
697E: FF         RST     0X38            
697F: 00         NOP                     
6980: FF         RST     0X38            
6981: 00         NOP                     
6982: FF         RST     0X38            
6983: 01 FF 01   LD      BC,$01FF        
6986: FF         RST     0X38            
6987: 01 FF 00   LD      BC,$00FF        
698A: F8 07      LDHL    SP,$07          
698C: D0         RET     NC              
698D: 2F         CPL                     
698E: 91         SUB     C               
698F: 6E         LD      L,(HL)          
6990: 83         ADD     A,E             
6991: 7D         LD      A,L             
6992: B3         OR      E               
6993: 4D         LD      C,L             
6994: FF         RST     0X38            
6995: 31 FF 35   LD      SP,$35FF        
6998: EF         RST     0X28            
6999: 1D         DEC     E               
699A: 97         SUB     A               
699B: 6F         LD      L,A             
699C: 8B         ADC     A,E             
699D: 77         LD      (HL),A          
699E: C7         RST     0X00            
699F: 38 FF      JR      C,$69A0         
69A1: 00         NOP                     
69A2: FF         RST     0X38            
69A3: 06 FF      LD      B,$FF           
69A5: 06 FF      LD      B,$FF           
69A7: 06 FF      LD      B,$FF           
69A9: 00         NOP                     
69AA: FC         ???                     
69AB: 03         INC     BC              
69AC: F9         LD      SP,HL           
69AD: 07         RLCA                    
69AE: F8 07      LDHL    SP,$07          
69B0: FC         ???                     
69B1: 1B         DEC     DE              
69B2: FC         ???                     
69B3: 13         INC     DE              
69B4: FF         RST     0X38            
69B5: 1B         DEC     DE              
69B6: FB         EI                      
69B7: 06 F7      LD      B,$F7           
69B9: 0E CF      LD      C,$CF           
69BB: 37         SCF                     
69BC: 9B         SBC     E               
69BD: 67         LD      H,A             
69BE: FD         ???                     
69BF: 03         INC     BC              
69C0: FF         RST     0X38            
69C1: 00         NOP                     
69C2: FF         RST     0X38            
69C3: 0D         DEC     C               
69C4: FF         RST     0X38            
69C5: 0D         DEC     C               
69C6: FF         RST     0X38            
69C7: 0D         DEC     C               
69C8: FF         RST     0X38            
69C9: 00         NOP                     
69CA: F1         POP     AF              
69CB: 0E EE      LD      C,$EE           
69CD: 17         RLA                     
69CE: EE 1B      XOR     $1B             
69D0: EE 1D      XOR     $1D             
69D2: C0         RET     NZ              
69D3: 3F         CCF                     
69D4: 80         ADD     A,B             
69D5: 7F         LD      A,A             
69D6: B2         OR      D               
69D7: 4D         LD      C,L             
69D8: B8         CP      B               
69D9: 57         LD      D,A             
69DA: 9C         SBC     H               
69DB: 63         LD      H,E             
69DC: DF         RST     0X18            
69DD: 3C         INC     A               
69DE: EF         RST     0X28            
69DF: 1F         RRA                     
69E0: FF         RST     0X38            
69E1: 00         NOP                     
69E2: FF         RST     0X38            
69E3: 00         NOP                     
69E4: FF         RST     0X38            
69E5: 01 FF 03   LD      BC,$03FF        
69E8: FE 07      CP      $07             
69EA: FC         ???                     
69EB: 0F         RRCA                    
69EC: F8 1F      LDHL    SP,$1F          
69EE: FE 1F      CP      $1F             
69F0: FE 03      CP      $03             
69F2: FE 03      CP      $03             
69F4: FE 03      CP      $03             
69F6: FE 03      CP      $03             
69F8: FE 03      CP      $03             
69FA: FF         RST     0X38            
69FB: 03         INC     BC              
69FC: FF         RST     0X38            
69FD: 00         NOP                     
69FE: FF         RST     0X38            
69FF: 00         NOP                     
6A00: FF         RST     0X38            
6A01: 00         NOP                     
6A02: 3F         CCF                     
6A03: 00         NOP                     
6A04: FF         RST     0X38            
6A05: 00         NOP                     
6A06: FF         RST     0X38            
6A07: 00         NOP                     
6A08: FF         RST     0X38            
6A09: 00         NOP                     
6A0A: FC         ???                     
6A0B: 00         NOP                     
6A0C: FF         RST     0X38            
6A0D: 00         NOP                     
6A0E: FF         RST     0X38            
6A0F: 00         NOP                     
6A10: FF         RST     0X38            
6A11: 00         NOP                     
6A12: F3         DI                      
6A13: 00         NOP                     
6A14: E0 00      LDFF00  ($00),A         
6A16: 0E 00      LD      C,$00           
6A18: FF         RST     0X38            
6A19: 00         NOP                     
6A1A: 7C         LD      A,H             
6A1B: 00         NOP                     
6A1C: 31 00 87   LD      SP,$8700        
6A1F: 00         NOP                     
6A20: 7F         LD      A,A             
6A21: 00         NOP                     
6A22: 7E         LD      A,(HL)          
6A23: 00         NOP                     
6A24: 54         LD      D,H             
6A25: 00         NOP                     
6A26: C1         POP     BC              
6A27: 00         NOP                     
6A28: 6B         LD      L,E             
6A29: 80         ADD     A,B             
6A2A: 7E         LD      A,(HL)          
6A2B: 81         ADD     A,C             
6A2C: D5         PUSH    DE              
6A2D: 2A         LD      A,(HLI)         
6A2E: D7         RST     0X10            
6A2F: 28 00      JR      Z,$6A31         
6A31: FF         RST     0X38            
6A32: 63         LD      H,E             
6A33: 9C         SBC     H               
6A34: 00         NOP                     
6A35: FF         RST     0X38            
6A36: 94         SUB     H               
6A37: 63         LD      H,E             
6A38: 00         NOP                     
6A39: FF         RST     0X38            
6A3A: 06 F9      LD      B,$F9           
6A3C: 00         NOP                     
6A3D: FF         RST     0X38            
6A3E: 03         INC     BC              
6A3F: FC         ???                     
6A40: FF         RST     0X38            
6A41: 00         NOP                     
6A42: CF         RST     0X08            
6A43: 00         NOP                     
6A44: FF         RST     0X38            
6A45: 00         NOP                     
6A46: FF         RST     0X38            
6A47: 00         NOP                     
6A48: FF         RST     0X38            
6A49: 00         NOP                     
6A4A: F3         DI                      
6A4B: 00         NOP                     
6A4C: FF         RST     0X38            
6A4D: 00         NOP                     
6A4E: FF         RST     0X38            
6A4F: 00         NOP                     
6A50: FF         RST     0X38            
6A51: 00         NOP                     
6A52: FC         ???                     
6A53: 00         NOP                     
6A54: 38 00      JR      C,$6A56         
6A56: 83         ADD     A,E             
6A57: 00         NOP                     
6A58: FF         RST     0X38            
6A59: 00         NOP                     
6A5A: F1         POP     AF              
6A5B: 00         NOP                     
6A5C: C4 00 1E   CALL    NZ,$1E00        
6A5F: 00         NOP                     
6A60: 95         SUB     L               
6A61: 6A         LD      L,D             
6A62: D7         RST     0X10            
6A63: 28 FE      JR      Z,$6A63         
6A65: 00         NOP                     
6A66: 5E         LD      E,(HL)          
6A67: 00         NOP                     
6A68: 14         INC     D               
6A69: 00         NOP                     
6A6A: A1         AND     C               
6A6B: 00         NOP                     
6A6C: EA 01 7C   LD      ($7C01),A       
6A6F: 83         ADD     A,E             
6A70: 00         NOP                     
6A71: FF         RST     0X38            
6A72: 13         INC     DE              
6A73: AC         XOR     H               
6A74: 00         NOP                     
6A75: FF         RST     0X38            
6A76: 30 CD      JR      NC,$6A45        
6A78: 00         NOP                     
6A79: FF         RST     0X38            
6A7A: 06 F9      LD      B,$F9           
6A7C: 00         NOP                     
6A7D: FF         RST     0X38            
6A7E: A0         AND     B               
6A7F: 1F         RRA                     
6A80: FF         RST     0X38            
6A81: 00         NOP                     
6A82: F3         DI                      
6A83: 00         NOP                     
6A84: FF         RST     0X38            
6A85: 00         NOP                     
6A86: FF         RST     0X38            
6A87: 00         NOP                     
6A88: FF         RST     0X38            
6A89: 00         NOP                     
6A8A: CF         RST     0X08            
6A8B: 00         NOP                     
6A8C: FF         RST     0X38            
6A8D: 00         NOP                     
6A8E: FF         RST     0X38            
6A8F: 00         NOP                     
6A90: FF         RST     0X38            
6A91: 00         NOP                     
6A92: 3F         CCF                     
6A93: 00         NOP                     
6A94: 0E 00      LD      C,$00           
6A96: E0 00      LDFF00  ($00),A         
6A98: FF         RST     0X38            
6A99: 00         NOP                     
6A9A: C7         RST     0X00            
6A9B: 00         NOP                     
6A9C: 13         INC     DE              
6A9D: 00         NOP                     
6A9E: 78         LD      A,B             
6A9F: 00         NOP                     
6AA0: 6B         LD      L,E             
6AA1: 80         ADD     A,B             
6AA2: 3E C1      LD      A,$C1           
6AA4: A9         XOR     C               
6AA5: 56         LD      D,(HL)          
6AA6: EB         ???                     
6AA7: 14         INC     D               
6AA8: 7F         LD      A,A             
6AA9: 00         NOP                     
6AAA: 7E         LD      A,(HL)          
6AAB: 00         NOP                     
6AAC: 5E         LD      E,(HL)          
6AAD: 00         NOP                     
6AAE: CB 00      SET     1,E             
6AB0: 00         NOP                     
6AB1: FF         RST     0X38            
6AB2: 30 CD      JR      NC,$6A81        
6AB4: 00         NOP                     
6AB5: FF         RST     0X38            
6AB6: 06 D9      LD      B,$D9           
6AB8: 00         NOP                     
6AB9: FF         RST     0X38            
6ABA: C1         POP     BC              
6ABB: 3E 00      LD      A,$00           
6ABD: FF         RST     0X38            
6ABE: 14         INC     D               
6ABF: E3         ???                     
6AC0: FF         RST     0X38            
6AC1: 00         NOP                     
6AC2: FC         ???                     
6AC3: 00         NOP                     
6AC4: FF         RST     0X38            
6AC5: 00         NOP                     
6AC6: FF         RST     0X38            
6AC7: 00         NOP                     
6AC8: FF         RST     0X38            
6AC9: 00         NOP                     
6ACA: 3F         CCF                     
6ACB: 00         NOP                     
6ACC: FF         RST     0X38            
6ACD: 00         NOP                     
6ACE: FF         RST     0X38            
6ACF: 00         NOP                     
6AD0: FF         RST     0X38            
6AD1: 00         NOP                     
6AD2: CF         RST     0X08            
6AD3: 00         NOP                     
6AD4: 83         ADD     A,E             
6AD5: 00         NOP                     
6AD6: 38 00      JR      C,$6AD8         
6AD8: FF         RST     0X38            
6AD9: 00         NOP                     
6ADA: 1F         RRA                     
6ADB: 00         NOP                     
6ADC: 4C         LD      C,H             
6ADD: 00         NOP                     
6ADE: E1         POP     HL              
6ADF: 00         NOP                     
6AE0: 5C         LD      E,H             
6AE1: 00         NOP                     
6AE2: D5         PUSH    DE              
6AE3: 00         NOP                     
6AE4: 53         LD      D,E             
6AE5: 80         ADD     A,B             
6AE6: 3A         LD      A,(HLD)         
6AE7: C1         POP     BC              
6AE8: 9D         SBC     L               
6AE9: 62         LD      H,D             
6AEA: D5         PUSH    DE              
6AEB: 2A         LD      A,(HLI)         
6AEC: 77         LD      (HL),A          
6AED: 08 3E 00   LD      ($003E),SP      
6AF0: 00         NOP                     
6AF1: FF         RST     0X38            
6AF2: 88         ADC     A,B             
6AF3: 35         DEC     (HL)            
6AF4: 00         NOP                     
6AF5: FF         RST     0X38            
6AF6: 0C         INC     C               
6AF7: B3         OR      E               
6AF8: 00         NOP                     
6AF9: FF         RST     0X38            
6AFA: 33         INC     SP              
6AFB: CC 00 FF   CALL    Z,$FF00         
6AFE: 0A         LD      A,(BC)          
6AFF: F1         POP     AF              
6B00: 03         INC     BC              
6B01: 00         NOP                     
6B02: 1C         INC     E               
6B03: 03         INC     BC              
6B04: E0 1F      LDFF00  ($1F),A         
6B06: 02         LD      (BC),A          
6B07: FC         ???                     
6B08: 08 F0 01   LD      ($01F0),SP      
6B0B: 00         NOP                     
6B0C: 11 00 CE   LD      DE,$CE00        
6B0F: 00         NOP                     
6B10: C0         RET     NZ              
6B11: 00         NOP                     
6B12: 38 C0      JR      C,$6AD4         
6B14: 07         RLCA                    
6B15: F8 40      LDHL    SP,$40          
6B17: 3F         CCF                     
6B18: 08 07 80   LD      ($8007),SP      
6B1B: 00         NOP                     
6B1C: A2         AND     D               
6B1D: 00         NOP                     
6B1E: 78         LD      A,B             
6B1F: 00         NOP                     
6B20: FF         RST     0X38            
6B21: 00         NOP                     
6B22: FF         RST     0X38            
6B23: 00         NOP                     
6B24: FF         RST     0X38            
6B25: 00         NOP                     
6B26: FF         RST     0X38            
6B27: 00         NOP                     
6B28: F8 00      LDHL    SP,$00          
6B2A: C0         RET     NZ              
6B2B: 00         NOP                     
6B2C: 09         ADD     HL,BC           
6B2D: 00         NOP                     
6B2E: 3F         CCF                     
6B2F: 00         NOP                     
6B30: FF         RST     0X38            
6B31: 00         NOP                     
6B32: FF         RST     0X38            
6B33: 00         NOP                     
6B34: FF         RST     0X38            
6B35: 00         NOP                     
6B36: FF         RST     0X38            
6B37: 00         NOP                     
6B38: 1F         RRA                     
6B39: 00         NOP                     
6B3A: 07         RLCA                    
6B3B: 00         NOP                     
6B3C: 80         ADD     A,B             
6B3D: 00         NOP                     
6B3E: D8         RET     C               
6B3F: 00         NOP                     
6B40: 03         INC     BC              
6B41: 00         NOP                     
6B42: 1C         INC     E               
6B43: 00         NOP                     
6B44: E0 00      LDFF00  ($00),A         
6B46: 09         ADD     HL,BC           
6B47: 00         NOP                     
6B48: 01 00 E6   LD      BC,$E600        
6B4B: 00         NOP                     
6B4C: FF         RST     0X38            
6B4D: 00         NOP                     
6B4E: FF         RST     0X38            
6B4F: 00         NOP                     
6B50: C0         RET     NZ              
6B51: 00         NOP                     
6B52: 38 00      JR      C,$6B54         
6B54: 0F         RRCA                    
6B55: 00         NOP                     
6B56: A0         AND     B               
6B57: 00         NOP                     
6B58: CC 00 35   CALL    Z,$3500         
6B5B: 00         NOP                     
6B5C: FB         EI                      
6B5D: 00         NOP                     
6B5E: FF         RST     0X38            
6B5F: 00         NOP                     
6B60: FF         RST     0X38            
6B61: 00         NOP                     
6B62: FF         RST     0X38            
6B63: 00         NOP                     
6B64: FE 00      CP      $00             
6B66: E0 00      LDFF00  ($00),A         
6B68: 01 00 33   LD      BC,$3300        
6B6B: 00         NOP                     
6B6C: FF         RST     0X38            
6B6D: 00         NOP                     
6B6E: FF         RST     0X38            
6B6F: 00         NOP                     
6B70: FF         RST     0X38            
6B71: 00         NOP                     
6B72: FF         RST     0X38            
6B73: 00         NOP                     
6B74: 3F         CCF                     
6B75: 00         NOP                     
6B76: 0F         RRCA                    
6B77: 00         NOP                     
6B78: 80         ADD     A,B             
6B79: 00         NOP                     
6B7A: E0 00      LDFF00  ($00),A         
6B7C: FF         RST     0X38            
6B7D: 00         NOP                     
6B7E: FF         RST     0X38            
6B7F: 00         NOP                     
6B80: 03         INC     BC              
6B81: 00         NOP                     
6B82: 1C         INC     E               
6B83: 03         INC     BC              
6B84: E2         LDFF00  (C),A           
6B85: 1C         INC     E               
6B86: 08 F0 03   LD      ($03F0),SP      
6B89: 00         NOP                     
6B8A: 20 00      JR      NZ,$6B8C        
6B8C: 8F         ADC     A,A             
6B8D: 00         NOP                     
6B8E: FF         RST     0X38            
6B8F: 00         NOP                     
6B90: C0         RET     NZ              
6B91: 00         NOP                     
6B92: 38 C0      JR      C,$6B54         
6B94: 47         LD      B,A             
6B95: 38 10      JR      C,$6BA7         
6B97: 0F         RRCA                    
6B98: 10 00      STOP    $00             
6B9A: 40         LD      B,B             
6B9B: 00         NOP                     
6B9C: FC         ???                     
6B9D: 00         NOP                     
6B9E: FF         RST     0X38            
6B9F: 00         NOP                     
6BA0: FC         ???                     
6BA1: 00         NOP                     
6BA2: F0 00      LD      A,($00)         
6BA4: 01 00 03   LD      BC,$0300        
6BA7: 00         NOP                     
6BA8: FF         RST     0X38            
6BA9: 00         NOP                     
6BAA: FF         RST     0X38            
6BAB: 00         NOP                     
6BAC: FF         RST     0X38            
6BAD: 00         NOP                     
6BAE: FF         RST     0X38            
6BAF: 00         NOP                     
6BB0: 1F         RRA                     
6BB1: 00         NOP                     
6BB2: 00         NOP                     
6BB3: 00         NOP                     
6BB4: C0         RET     NZ              
6BB5: 00         NOP                     
6BB6: E7         RST     0X20            
6BB7: 00         NOP                     
6BB8: FF         RST     0X38            
6BB9: 00         NOP                     
6BBA: FF         RST     0X38            
6BBB: 00         NOP                     
6BBC: FF         RST     0X38            
6BBD: 00         NOP                     
6BBE: FF         RST     0X38            
6BBF: 00         NOP                     
6BC0: 03         INC     BC              
6BC1: 00         NOP                     
6BC2: 1C         INC     E               
6BC3: 03         INC     BC              
6BC4: E0 1F      LDFF00  ($1F),A         
6BC6: 00         NOP                     
6BC7: FF         RST     0X38            
6BC8: 00         NOP                     
6BC9: FF         RST     0X38            
6BCA: 04         INC     B               
6BCB: F8 10      LDHL    SP,$10          
6BCD: E0 05      LDFF00  ($05),A         
6BCF: 00         NOP                     
6BD0: C0         RET     NZ              
6BD1: 00         NOP                     
6BD2: 38 C0      JR      C,$6B94         
6BD4: 07         RLCA                    
6BD5: F8 00      LDHL    SP,$00          
6BD7: FF         RST     0X38            
6BD8: 00         NOP                     
6BD9: FF         RST     0X38            
6BDA: 20 1F      JR      NZ,$6BFB        
6BDC: 08 07 40   LD      ($4007),SP      
6BDF: 00         NOP                     
6BE0: 03         INC     BC              
6BE1: 00         NOP                     
6BE2: E7         RST     0X20            
6BE3: 00         NOP                     
6BE4: FF         RST     0X38            
6BE5: 00         NOP                     
6BE6: FF         RST     0X38            
6BE7: 00         NOP                     
6BE8: FF         RST     0X38            
6BE9: 00         NOP                     
6BEA: FF         RST     0X38            
6BEB: 00         NOP                     
6BEC: F8 00      LDHL    SP,$00          
6BEE: C0         RET     NZ              
6BEF: 00         NOP                     
6BF0: 80         ADD     A,B             
6BF1: 00         NOP                     
6BF2: F3         DI                      
6BF3: 00         NOP                     
6BF4: FF         RST     0X38            
6BF5: 00         NOP                     
6BF6: FF         RST     0X38            
6BF7: 00         NOP                     
6BF8: FF         RST     0X38            
6BF9: 00         NOP                     
6BFA: FF         RST     0X38            
6BFB: 00         NOP                     
6BFC: 3F         CCF                     
6BFD: 00         NOP                     
6BFE: 07         RLCA                    
6BFF: 00         NOP                     
6C00: FF         RST     0X38            
6C01: 00         NOP                     
6C02: 3F         CCF                     
6C03: 00         NOP                     
6C04: FF         RST     0X38            
6C05: 00         NOP                     
6C06: FF         RST     0X38            
6C07: 00         NOP                     
6C08: FF         RST     0X38            
6C09: 00         NOP                     
6C0A: FC         ???                     
6C0B: 00         NOP                     
6C0C: FF         RST     0X38            
6C0D: 00         NOP                     
6C0E: FF         RST     0X38            
6C0F: 00         NOP                     
6C10: FF         RST     0X38            
6C11: 00         NOP                     
6C12: F3         DI                      
6C13: 00         NOP                     
6C14: E0 00      LDFF00  ($00),A         
6C16: 0E 00      LD      C,$00           
6C18: FF         RST     0X38            
6C19: 00         NOP                     
6C1A: 7C         LD      A,H             
6C1B: 00         NOP                     
6C1C: 31 00 87   LD      SP,$8700        
6C1F: 00         NOP                     
6C20: 38 00      JR      C,$6C22         
6C22: 38 00      JR      C,$6C24         
6C24: C6 00      ADD     $00             
6C26: C6 00      ADD     $00             
6C28: C6 00      ADD     $00             
6C2A: 38 00      JR      C,$6C2C         
6C2C: 38 00      JR      C,$6C2E         
6C2E: 00         NOP                     
6C2F: 00         NOP                     
6C30: 00         NOP                     
6C31: 00         NOP                     
6C32: 38 00      JR      C,$6C34         
6C34: 38 00      JR      C,$6C36         
6C36: C6 00      ADD     $00             
6C38: C6 00      ADD     $00             
6C3A: C6 00      ADD     $00             
6C3C: 38 00      JR      C,$6C3E         
6C3E: 38 00      JR      C,$6C40         
6C40: FF         RST     0X38            
6C41: 00         NOP                     
6C42: CF         RST     0X08            
6C43: 00         NOP                     
6C44: FF         RST     0X38            
6C45: 00         NOP                     
6C46: FF         RST     0X38            
6C47: 00         NOP                     
6C48: FF         RST     0X38            
6C49: 00         NOP                     
6C4A: F3         DI                      
6C4B: 00         NOP                     
6C4C: FF         RST     0X38            
6C4D: 00         NOP                     
6C4E: FF         RST     0X38            
6C4F: 00         NOP                     
6C50: FF         RST     0X38            
6C51: 00         NOP                     
6C52: FC         ???                     
6C53: 00         NOP                     
6C54: 38 00      JR      C,$6C56         
6C56: 83         ADD     A,E             
6C57: 00         NOP                     
6C58: FF         RST     0X38            
6C59: 00         NOP                     
6C5A: F1         POP     AF              
6C5B: 00         NOP                     
6C5C: C4 00 1E   CALL    NZ,$1E00        
6C5F: 00         NOP                     
6C60: 00         NOP                     
6C61: 00         NOP                     
6C62: 38 00      JR      C,$6C64         
6C64: BA         CP      D               
6C65: 00         NOP                     
6C66: C6 00      ADD     $00             
6C68: C6 00      ADD     $00             
6C6A: 44         LD      B,H             
6C6B: 00         NOP                     
6C6C: 38 00      JR      C,$6C6E         
6C6E: 00         NOP                     
6C6F: 00         NOP                     
6C70: 00         NOP                     
6C71: 00         NOP                     
6C72: 38 00      JR      C,$6C74         
6C74: 44         LD      B,H             
6C75: 00         NOP                     
6C76: C6 00      ADD     $00             
6C78: C6 00      ADD     $00             
6C7A: BA         CP      D               
6C7B: 00         NOP                     
6C7C: 38 00      JR      C,$6C7E         
6C7E: 00         NOP                     
6C7F: 00         NOP                     
6C80: FF         RST     0X38            
6C81: 00         NOP                     
6C82: F3         DI                      
6C83: 00         NOP                     
6C84: FF         RST     0X38            
6C85: 00         NOP                     
6C86: FF         RST     0X38            
6C87: 00         NOP                     
6C88: FF         RST     0X38            
6C89: 00         NOP                     
6C8A: CF         RST     0X08            
6C8B: 00         NOP                     
6C8C: FF         RST     0X38            
6C8D: 00         NOP                     
6C8E: FF         RST     0X38            
6C8F: 00         NOP                     
6C90: FF         RST     0X38            
6C91: 00         NOP                     
6C92: 3F         CCF                     
6C93: 00         NOP                     
6C94: 0E 00      LD      C,$00           
6C96: E0 00      LDFF00  ($00),A         
6C98: FF         RST     0X38            
6C99: 00         NOP                     
6C9A: C7         RST     0X00            
6C9B: 00         NOP                     
6C9C: 13         INC     DE              
6C9D: 00         NOP                     
6C9E: 78         LD      A,B             
6C9F: 00         NOP                     
6CA0: 00         NOP                     
6CA1: 00         NOP                     
6CA2: 38 00      JR      C,$6CA4         
6CA4: 38 00      JR      C,$6CA6         
6CA6: C6 00      ADD     $00             
6CA8: C6 00      ADD     $00             
6CAA: C6 00      ADD     $00             
6CAC: 38 00      JR      C,$6CAE         
6CAE: 38 00      JR      C,$6CB0         
6CB0: 38 00      JR      C,$6CB2         
6CB2: 38 00      JR      C,$6CB4         
6CB4: C6 00      ADD     $00             
6CB6: C6 00      ADD     $00             
6CB8: C6 00      ADD     $00             
6CBA: 38 00      JR      C,$6CBC         
6CBC: 38 00      JR      C,$6CBE         
6CBE: 00         NOP                     
6CBF: 00         NOP                     
6CC0: FF         RST     0X38            
6CC1: 00         NOP                     
6CC2: FC         ???                     
6CC3: 00         NOP                     
6CC4: FF         RST     0X38            
6CC5: 00         NOP                     
6CC6: FF         RST     0X38            
6CC7: 00         NOP                     
6CC8: FF         RST     0X38            
6CC9: 00         NOP                     
6CCA: 3F         CCF                     
6CCB: 00         NOP                     
6CCC: FF         RST     0X38            
6CCD: 00         NOP                     
6CCE: FF         RST     0X38            
6CCF: 00         NOP                     
6CD0: FF         RST     0X38            
6CD1: 00         NOP                     
6CD2: CF         RST     0X08            
6CD3: 00         NOP                     
6CD4: 83         ADD     A,E             
6CD5: 00         NOP                     
6CD6: 38 00      JR      C,$6CD8         
6CD8: FF         RST     0X38            
6CD9: 00         NOP                     
6CDA: 1F         RRA                     
6CDB: 00         NOP                     
6CDC: 4C         LD      C,H             
6CDD: 00         NOP                     
6CDE: E1         POP     HL              
6CDF: 00         NOP                     
6CE0: 00         NOP                     
6CE1: 00         NOP                     
6CE2: 38 00      JR      C,$6CE4         
6CE4: 44         LD      B,H             
6CE5: 00         NOP                     
6CE6: C6 00      ADD     $00             
6CE8: C6 00      ADD     $00             
6CEA: BA         CP      D               
6CEB: 00         NOP                     
6CEC: 38 00      JR      C,$6CEE         
6CEE: 00         NOP                     
6CEF: 00         NOP                     
6CF0: 00         NOP                     
6CF1: 00         NOP                     
6CF2: 38 00      JR      C,$6CF4         
6CF4: BA         CP      D               
6CF5: 00         NOP                     
6CF6: C6 00      ADD     $00             
6CF8: C6 00      ADD     $00             
6CFA: 44         LD      B,H             
6CFB: 00         NOP                     
6CFC: 38 00      JR      C,$6CFE         
6CFE: 00         NOP                     
6CFF: 00         NOP                     
6D00: 3F         CCF                     
6D01: 3F         CCF                     
6D02: 42         LD      B,D             
6D03: 42         LD      B,D             
6D04: 84         ADD     A,H             
6D05: 84         ADD     A,H             
6D06: 8A         ADC     A,D             
6D07: 88         ADC     A,B             
6D08: 93         SUB     E               
6D09: 90         SUB     B               
6D0A: 96         SUB     (HL)            
6D0B: 91         SUB     C               
6D0C: 96         SUB     (HL)            
6D0D: 91         SUB     C               
6D0E: 8B         ADC     A,E             
6D0F: 89         ADC     A,C             
6D10: FC         ???                     
6D11: FC         ???                     
6D12: C2 C2 B1   JP      NZ,$B1C2        
6D15: A1         AND     C               
6D16: 99         SBC     C               
6D17: 91         SUB     C               
6D18: 59         LD      E,C             
6D19: 11 D9 11   LD      DE,$11D9        
6D1C: 59         LD      E,C             
6D1D: 91         SUB     C               
6D1E: B1         OR      C               
6D1F: A1         AND     C               
6D20: 81         ADD     A,C             
6D21: 7E         LD      A,(HL)          
6D22: 00         NOP                     
6D23: FF         RST     0X38            
6D24: 00         NOP                     
6D25: FF         RST     0X38            
6D26: 18 E7      JR      $6D0F           
6D28: 18 E7      JR      $6D11           
6D2A: 00         NOP                     
6D2B: FF         RST     0X38            
6D2C: 00         NOP                     
6D2D: FF         RST     0X38            
6D2E: 81         ADD     A,C             
6D2F: 7E         LD      A,(HL)          
6D30: 00         NOP                     
6D31: 00         NOP                     
6D32: 00         NOP                     
6D33: 00         NOP                     
6D34: 00         NOP                     
6D35: 00         NOP                     
6D36: 7C         LD      A,H             
6D37: 7C         LD      A,H             
6D38: 6C         LD      L,H             
6D39: 6C         LD      L,H             
6D3A: 6C         LD      L,H             
6D3B: 6C         LD      L,H             
6D3C: 7C         LD      A,H             
6D3D: 7C         LD      A,H             
6D3E: 00         NOP                     
6D3F: 00         NOP                     
6D40: 3F         CCF                     
6D41: 3F         CCF                     
6D42: 43         LD      B,E             
6D43: 43         LD      B,E             
6D44: 8D         ADC     A,L             
6D45: 85         ADD     A,L             
6D46: 98         SBC     B               
6D47: 88         ADC     A,B             
6D48: 99         SBC     C               
6D49: 88         ADC     A,B             
6D4A: 9B         SBC     E               
6D4B: 88         ADC     A,B             
6D4C: 9A         SBC     D               
6D4D: 89         ADC     A,C             
6D4E: 8D         ADC     A,L             
6D4F: 85         ADD     A,L             
6D50: 7C         LD      A,H             
6D51: 7C         LD      A,H             
6D52: 22         LD      (HLI),A         
6D53: 22         LD      (HLI),A         
6D54: 11 11 51   LD      DE,$5111        
6D57: 11 C9 09   LD      DE,$09C9        
6D5A: 69         LD      L,C             
6D5B: 89         ADC     A,C             
6D5C: 69         LD      L,C             
6D5D: 89         ADC     A,C             
6D5E: D1         POP     DE              
6D5F: 91         SUB     C               
6D60: 81         ADD     A,C             
6D61: 7E         LD      A,(HL)          
6D62: 00         NOP                     
6D63: FF         RST     0X38            
6D64: 18 E7      JR      $6D4D           
6D66: 24         INC     H               
6D67: C3 24 C3   JP      $C324           
6D6A: 18 E7      JR      $6D53           
6D6C: 00         NOP                     
6D6D: FF         RST     0X38            
6D6E: 81         ADD     A,C             
6D6F: 7E         LD      A,(HL)          
6D70: 00         NOP                     
6D71: 00         NOP                     
6D72: 00         NOP                     
6D73: 00         NOP                     
6D74: 10 10      STOP    $10             
6D76: 6C         LD      L,H             
6D77: 6C         LD      L,H             
6D78: 6C         LD      L,H             
6D79: 6C         LD      L,H             
6D7A: 6C         LD      L,H             
6D7B: 6C         LD      L,H             
6D7C: 7C         LD      A,H             
6D7D: 7C         LD      A,H             
6D7E: 00         NOP                     
6D7F: 00         NOP                     
6D80: 3F         CCF                     
6D81: 3F         CCF                     
6D82: 40         LD      B,B             
6D83: 40         LD      B,B             
6D84: 9F         SBC     A               
6D85: 81         ADD     A,C             
6D86: BE         CP      (HL)            
6D87: 82         ADD     A,D             
6D88: BC         CP      H               
6D89: 84         ADD     A,H             
6D8A: B8         CP      B               
6D8B: 88         ADC     A,B             
6D8C: B9         CP      C               
6D8D: 88         ADC     A,B             
6D8E: 9D         SBC     L               
6D8F: 85         ADD     A,L             
6D90: FC         ???                     
6D91: FC         ???                     
6D92: 02         LD      (BC),A          
6D93: 02         LD      (BC),A          
6D94: F9         LD      SP,HL           
6D95: C1         POP     BC              
6D96: BD         CP      L               
6D97: A1         AND     C               
6D98: 1D         DEC     E               
6D99: 11 9D 11   LD      DE,$119D        
6D9C: 1D         DEC     E               
6D9D: 91         SUB     C               
6D9E: B9         CP      C               
6D9F: A1         AND     C               
6DA0: 81         ADD     A,C             
6DA1: 7E         LD      A,(HL)          
6DA2: 3C         INC     A               
6DA3: C3 66 81   JP      $8166           
6DA6: 42         LD      B,D             
6DA7: 81         ADD     A,C             
6DA8: 42         LD      B,D             
6DA9: 81         ADD     A,C             
6DAA: 66         LD      H,(HL)          
6DAB: 81         ADD     A,C             
6DAC: 3C         INC     A               
6DAD: C3 81 7E   JP      $7E81           
6DB0: 00         NOP                     
6DB1: 00         NOP                     
6DB2: 10 10      STOP    $10             
6DB4: 28 28      JR      Z,$6DDE         
6DB6: 6C         LD      L,H             
6DB7: 6C         LD      L,H             
6DB8: 6C         LD      L,H             
6DB9: 6C         LD      L,H             
6DBA: 44         LD      B,H             
6DBB: 6C         LD      L,H             
6DBC: 7C         LD      A,H             
6DBD: 7C         LD      A,H             
6DBE: 00         NOP                     
6DBF: 00         NOP                     
6DC0: 3F         CCF                     
6DC1: 3F         CCF                     
6DC2: 41         LD      B,C             
6DC3: 41         LD      B,C             
6DC4: 9F         SBC     A               
6DC5: 83         ADD     A,E             
6DC6: BD         CP      L               
6DC7: 85         ADD     A,L             
6DC8: B8         CP      B               
6DC9: 88         ADC     A,B             
6DCA: B9         CP      C               
6DCB: 88         ADC     A,B             
6DCC: B8         CP      B               
6DCD: 89         ADC     A,C             
6DCE: 9D         SBC     L               
6DCF: 85         ADD     A,L             
6DD0: FC         ???                     
6DD1: FC         ???                     
6DD2: 82         ADD     A,D             
6DD3: 82         ADD     A,D             
6DD4: 79         LD      A,C             
6DD5: 41         LD      B,C             
6DD6: 3D         DEC     A               
6DD7: 21 9D 11   LD      HL,$119D        
6DDA: DD         ???                     
6DDB: 11 5D 91   LD      DE,$915D        
6DDE: B9         CP      C               
6DDF: A1         AND     C               
6DE0: BD         CP      L               
6DE1: 42         LD      B,D             
6DE2: 66         LD      H,(HL)          
6DE3: 81         ADD     A,C             
6DE4: C3 00 81   JP      $8100           
6DE7: 00         NOP                     
6DE8: 81         ADD     A,C             
6DE9: 00         NOP                     
6DEA: C3 00 66   JP      $6600           
6DED: 81         ADD     A,C             
6DEE: BD         CP      L               
6DEF: 42         LD      B,D             
6DF0: 10 10      STOP    $10             
6DF2: 28 28      JR      Z,$6E1C         
6DF4: 28 28      JR      Z,$6E1E         
6DF6: 6C         LD      L,H             
6DF7: 6C         LD      L,H             
6DF8: 44         LD      B,H             
6DF9: 6C         LD      L,H             
6DFA: 6C         LD      L,H             
6DFB: 44         LD      B,H             
6DFC: 7C         LD      A,H             
6DFD: 7C         LD      A,H             
6DFE: 00         NOP                     
6DFF: 00         NOP                     
6E00: 3C         INC     A               
6E01: 00         NOP                     
6E02: C3 00 18   JP      $1800           
6E05: E7         RST     0X20            
6E06: 00         NOP                     
6E07: FF         RST     0X38            
6E08: 00         NOP                     
6E09: FF         RST     0X38            
6E0A: 00         NOP                     
6E0B: FF         RST     0X38            
6E0C: 00         NOP                     
6E0D: FF         RST     0X38            
6E0E: 00         NOP                     
6E0F: FF         RST     0X38            
6E10: F1         POP     AF              
6E11: FF         RST     0X38            
6E12: CE F2      ADC     $F2             
6E14: 9E         SBC     (HL)            
6E15: E2         LDFF00  (C),A           
6E16: BC         CP      H               
6E17: C4 BD C4   CALL    NZ,$C4BD        
6E1A: BD         CP      L               
6E1B: C4 DC E4   CALL    NZ,$E4DC        
6E1E: E2         LDFF00  (C),A           
6E1F: FE 0F      CP      $0F             
6E21: FF         RST     0X38            
6E22: F3         DI                      
6E23: 8F         ADC     A,A             
6E24: 79         LD      A,C             
6E25: 47         LD      B,A             
6E26: 3D         DEC     A               
6E27: 23         INC     HL              
6E28: 3D         DEC     A               
6E29: 23         INC     HL              
6E2A: BD         CP      L               
6E2B: 23         INC     HL              
6E2C: BB         CP      E               
6E2D: 27         DAA                     
6E2E: 47         LD      B,A             
6E2F: 7F         LD      A,A             
6E30: FF         RST     0X38            
6E31: FF         RST     0X38            
6E32: BD         CP      L               
6E33: 7E         LD      A,(HL)          
6E34: CB F7      SET     1,E             
6E36: FF         RST     0X38            
6E37: FF         RST     0X38            
6E38: FF         RST     0X38            
6E39: FF         RST     0X38            
6E3A: FF         RST     0X38            
6E3B: FF         RST     0X38            
6E3C: FF         RST     0X38            
6E3D: FF         RST     0X38            
6E3E: FF         RST     0X38            
6E3F: FF         RST     0X38            
6E40: 0F         RRCA                    
6E41: 00         NOP                     
6E42: F0 00      LD      A,($00)         
6E44: 06 F9      LD      B,$F9           
6E46: 00         NOP                     
6E47: FF         RST     0X38            
6E48: 00         NOP                     
6E49: FF         RST     0X38            
6E4A: 00         NOP                     
6E4B: FF         RST     0X38            
6E4C: 00         NOP                     
6E4D: FF         RST     0X38            
6E4E: 00         NOP                     
6E4F: FF         RST     0X38            
6E50: F8 FF      LDHL    SP,$FF          
6E52: E3         ???                     
6E53: FC         ???                     
6E54: C7         RST     0X00            
6E55: F9         LD      SP,HL           
6E56: CE F2      ADC     $F2             
6E58: CC F4 CD   CALL    Z,$CDF4         
6E5B: F4         ???                     
6E5C: E5         PUSH    HL              
6E5D: FC         ???                     
6E5E: F2         ???                     
6E5F: FE 1F      CP      $1F             
6E61: FF         RST     0X38            
6E62: C7         RST     0X00            
6E63: BF         CP      A               
6E64: 63         LD      H,E             
6E65: 5F         LD      E,A             
6E66: 73         LD      (HL),E          
6E67: 4F         LD      C,A             
6E68: B3         OR      E               
6E69: 2F         CPL                     
6E6A: B3         OR      E               
6E6B: 2F         CPL                     
6E6C: 27         DAA                     
6E6D: 3F         CCF                     
6E6E: 4F         LD      C,A             
6E6F: 7F         LD      A,A             
6E70: FF         RST     0X38            
6E71: FF         RST     0X38            
6E72: 6F         LD      L,A             
6E73: 9F         SBC     A               
6E74: F2         ???                     
6E75: FD         ???                     
6E76: FF         RST     0X38            
6E77: FF         RST     0X38            
6E78: FF         RST     0X38            
6E79: FF         RST     0X38            
6E7A: FF         RST     0X38            
6E7B: FF         RST     0X38            
6E7C: FF         RST     0X38            
6E7D: FF         RST     0X38            
6E7E: FF         RST     0X38            
6E7F: FF         RST     0X38            
6E80: C3 00 3C   JP      $3C00           
6E83: 00         NOP                     
6E84: 81         ADD     A,C             
6E85: 7E         LD      A,(HL)          
6E86: 00         NOP                     
6E87: FF         RST     0X38            
6E88: 00         NOP                     
6E89: FF         RST     0X38            
6E8A: 00         NOP                     
6E8B: FF         RST     0X38            
6E8C: 00         NOP                     
6E8D: FF         RST     0X38            
6E8E: 00         NOP                     
6E8F: FF         RST     0X38            
6E90: FF         RST     0X38            
6E91: FF         RST     0X38            
6E92: F8 FF      LDHL    SP,$FF          
6E94: F3         DI                      
6E95: FD         ???                     
6E96: E6 FA      AND     $FA             
6E98: E6 FA      AND     $FA             
6E9A: E5         PUSH    HL              
6E9B: FC         ???                     
6E9C: E5         PUSH    HL              
6E9D: FC         ???                     
6E9E: F2         ???                     
6E9F: FE FF      CP      $FF             
6EA1: FF         RST     0X38            
6EA2: 1F         RRA                     
6EA3: FF         RST     0X38            
6EA4: CF         RST     0X08            
6EA5: 3F         CCF                     
6EA6: E7         RST     0X20            
6EA7: 9F         SBC     A               
6EA8: 67         LD      H,A             
6EA9: 5F         LD      E,A             
6EAA: 27         DAA                     
6EAB: 3F         CCF                     
6EAC: A7         AND     A               
6EAD: 3F         CCF                     
6EAE: 4F         LD      C,A             
6EAF: 7F         LD      A,A             
6EB0: FF         RST     0X38            
6EB1: FF         RST     0X38            
6EB2: DB         ???                     
6EB3: E7         RST     0X20            
6EB4: BC         CP      H               
6EB5: 7F         LD      A,A             
6EB6: FF         RST     0X38            
6EB7: FF         RST     0X38            
6EB8: FF         RST     0X38            
6EB9: FF         RST     0X38            
6EBA: FF         RST     0X38            
6EBB: FF         RST     0X38            
6EBC: FF         RST     0X38            
6EBD: FF         RST     0X38            
6EBE: FF         RST     0X38            
6EBF: FF         RST     0X38            
6EC0: F0 00      LD      A,($00)         
6EC2: 0F         RRCA                    
6EC3: 00         NOP                     
6EC4: 60         LD      H,B             
6EC5: 9F         SBC     A               
6EC6: 00         NOP                     
6EC7: FF         RST     0X38            
6EC8: 00         NOP                     
6EC9: FF         RST     0X38            
6ECA: 00         NOP                     
6ECB: FF         RST     0X38            
6ECC: 00         NOP                     
6ECD: FF         RST     0X38            
6ECE: 00         NOP                     
6ECF: FF         RST     0X38            
6ED0: FF         RST     0X38            
6ED1: FF         RST     0X38            
6ED2: FF         RST     0X38            
6ED3: FF         RST     0X38            
6ED4: F8 FF      LDHL    SP,$FF          
6ED6: F0 FF      LD      A,($FF)         
6ED8: F1         POP     AF              
6ED9: FF         RST     0X38            
6EDA: F2         ???                     
6EDB: FE FA      CP      $FA             
6EDD: FE FE      CP      $FE             
6EDF: FE FF      CP      $FF             
6EE1: FF         RST     0X38            
6EE2: FF         RST     0X38            
6EE3: FF         RST     0X38            
6EE4: 1F         RRA                     
6EE5: FF         RST     0X38            
6EE6: 8F         ADC     A,A             
6EE7: FF         RST     0X38            
6EE8: 4F         LD      C,A             
6EE9: 7F         LD      A,A             
6EEA: 4F         LD      C,A             
6EEB: 7F         LD      A,A             
6EEC: 5F         LD      E,A             
6EED: 7F         LD      A,A             
6EEE: FF         RST     0X38            
6EEF: 7F         LD      A,A             
6EF0: FF         RST     0X38            
6EF1: FF         RST     0X38            
6EF2: F6 F9      OR      $F9             
6EF4: 2F         CPL                     
6EF5: DF         RST     0X18            
6EF6: FF         RST     0X38            
6EF7: FF         RST     0X38            
6EF8: FF         RST     0X38            
6EF9: FF         RST     0X38            
6EFA: FF         RST     0X38            
6EFB: FF         RST     0X38            
6EFC: FF         RST     0X38            
6EFD: FF         RST     0X38            
6EFE: FF         RST     0X38            
6EFF: FF         RST     0X38            
6F00: 3F         CCF                     
6F01: 3F         CCF                     
6F02: 42         LD      B,D             
6F03: 42         LD      B,D             
6F04: 84         ADD     A,H             
6F05: 84         ADD     A,H             
6F06: 8A         ADC     A,D             
6F07: 88         ADC     A,B             
6F08: 93         SUB     E               
6F09: 90         SUB     B               
6F0A: 96         SUB     (HL)            
6F0B: 91         SUB     C               
6F0C: 96         SUB     (HL)            
6F0D: 91         SUB     C               
6F0E: 8B         ADC     A,E             
6F0F: 89         ADC     A,C             
6F10: FC         ???                     
6F11: FC         ???                     
6F12: C2 C2 B1   JP      NZ,$B1C2        
6F15: A1         AND     C               
6F16: 99         SBC     C               
6F17: 91         SUB     C               
6F18: 59         LD      E,C             
6F19: 11 D9 11   LD      DE,$11D9        
6F1C: 59         LD      E,C             
6F1D: 91         SUB     C               
6F1E: B1         OR      C               
6F1F: A1         AND     C               
6F20: 00         NOP                     
6F21: FF         RST     0X38            
6F22: 00         NOP                     
6F23: FF         RST     0X38            
6F24: 1C         INC     E               
6F25: FF         RST     0X38            
6F26: 32         LD      (HLD),A         
6F27: EF         RST     0X28            
6F28: 22         LD      (HLI),A         
6F29: FF         RST     0X38            
6F2A: 14         INC     D               
6F2B: FF         RST     0X38            
6F2C: 00         NOP                     
6F2D: FF         RST     0X38            
6F2E: 00         NOP                     
6F2F: FF         RST     0X38            
6F30: 00         NOP                     
6F31: FF         RST     0X38            
6F32: 42         LD      B,D             
6F33: BD         CP      L               
6F34: 28 F7      JR      Z,$6F2D         
6F36: 00         NOP                     
6F37: FF         RST     0X38            
6F38: 24         INC     H               
6F39: FF         RST     0X38            
6F3A: 5A         LD      E,D             
6F3B: BD         CP      L               
6F3C: 00         NOP                     
6F3D: FF         RST     0X38            
6F3E: 00         NOP                     
6F3F: FF         RST     0X38            
6F40: 3F         CCF                     
6F41: 3F         CCF                     
6F42: 43         LD      B,E             
6F43: 43         LD      B,E             
6F44: 8D         ADC     A,L             
6F45: 85         ADD     A,L             
6F46: 98         SBC     B               
6F47: 88         ADC     A,B             
6F48: 99         SBC     C               
6F49: 88         ADC     A,B             
6F4A: 9B         SBC     E               
6F4B: 88         ADC     A,B             
6F4C: 9A         SBC     D               
6F4D: 89         ADC     A,C             
6F4E: 8D         ADC     A,L             
6F4F: 85         ADD     A,L             
6F50: 7C         LD      A,H             
6F51: 7C         LD      A,H             
6F52: 22         LD      (HLI),A         
6F53: 22         LD      (HLI),A         
6F54: 11 11 51   LD      DE,$5111        
6F57: 11 C9 09   LD      DE,$09C9        
6F5A: 69         LD      L,C             
6F5B: 89         ADC     A,C             
6F5C: 69         LD      L,C             
6F5D: 89         ADC     A,C             
6F5E: D1         POP     DE              
6F5F: 91         SUB     C               
6F60: 00         NOP                     
6F61: FF         RST     0X38            
6F62: 3C         INC     A               
6F63: FF         RST     0X38            
6F64: 42         LD      B,D             
6F65: FF         RST     0X38            
6F66: 99         SBC     C               
6F67: C7         RST     0X00            
6F68: B1         OR      C               
6F69: CF         RST     0X08            
6F6A: 81         ADD     A,C             
6F6B: FF         RST     0X38            
6F6C: 42         LD      B,D             
6F6D: FF         RST     0X38            
6F6E: 00         NOP                     
6F6F: FF         RST     0X38            
6F70: 00         NOP                     
6F71: FF         RST     0X38            
6F72: 00         NOP                     
6F73: FF         RST     0X38            
6F74: 00         NOP                     
6F75: FF         RST     0X38            
6F76: 10 EF      STOP    $EF             
6F78: 18 FF      JR      $6F79           
6F7A: 00         NOP                     
6F7B: FF         RST     0X38            
6F7C: 00         NOP                     
6F7D: FF         RST     0X38            
6F7E: 00         NOP                     
6F7F: FF         RST     0X38            
6F80: 3F         CCF                     
6F81: 3F         CCF                     
6F82: 40         LD      B,B             
6F83: 40         LD      B,B             
6F84: 9F         SBC     A               
6F85: 81         ADD     A,C             
6F86: BE         CP      (HL)            
6F87: 82         ADD     A,D             
6F88: BC         CP      H               
6F89: 84         ADD     A,H             
6F8A: B8         CP      B               
6F8B: 88         ADC     A,B             
6F8C: B9         CP      C               
6F8D: 88         ADC     A,B             
6F8E: 9D         SBC     L               
6F8F: 85         ADD     A,L             
6F90: FC         ???                     
6F91: FC         ???                     
6F92: 02         LD      (BC),A          
6F93: 02         LD      (BC),A          
6F94: F9         LD      SP,HL           
6F95: C1         POP     BC              
6F96: BD         CP      L               
6F97: A1         AND     C               
6F98: 1D         DEC     E               
6F99: 11 9D 11   LD      DE,$119D        
6F9C: 1D         DEC     E               
6F9D: 91         SUB     C               
6F9E: B9         CP      C               
6F9F: A1         AND     C               
6FA0: 00         NOP                     
6FA1: FF         RST     0X38            
6FA2: 42         LD      B,D             
6FA3: BD         CP      L               
6FA4: 28 F7      JR      Z,$6F9D         
6FA6: 00         NOP                     
6FA7: FF         RST     0X38            
6FA8: 24         INC     H               
6FA9: FF         RST     0X38            
6FAA: 5A         LD      E,D             
6FAB: BD         CP      L               
6FAC: 00         NOP                     
6FAD: FF         RST     0X38            
6FAE: 00         NOP                     
6FAF: FF         RST     0X38            
6FB0: 00         NOP                     
6FB1: FF         RST     0X38            
6FB2: 00         NOP                     
6FB3: FF         RST     0X38            
6FB4: 1C         INC     E               
6FB5: FF         RST     0X38            
6FB6: 32         LD      (HLD),A         
6FB7: EF         RST     0X28            
6FB8: 22         LD      (HLI),A         
6FB9: FF         RST     0X38            
6FBA: 14         INC     D               
6FBB: FF         RST     0X38            
6FBC: 00         NOP                     
6FBD: FF         RST     0X38            
6FBE: 00         NOP                     
6FBF: FF         RST     0X38            
6FC0: 3F         CCF                     
6FC1: 3F         CCF                     
6FC2: 41         LD      B,C             
6FC3: 41         LD      B,C             
6FC4: 9F         SBC     A               
6FC5: 83         ADD     A,E             
6FC6: BD         CP      L               
6FC7: 85         ADD     A,L             
6FC8: B8         CP      B               
6FC9: 88         ADC     A,B             
6FCA: B9         CP      C               
6FCB: 88         ADC     A,B             
6FCC: B8         CP      B               
6FCD: 89         ADC     A,C             
6FCE: 9D         SBC     L               
6FCF: 85         ADD     A,L             
6FD0: FC         ???                     
6FD1: FC         ???                     
6FD2: 82         ADD     A,D             
6FD3: 82         ADD     A,D             
6FD4: 79         LD      A,C             
6FD5: 41         LD      B,C             
6FD6: 3D         DEC     A               
6FD7: 21 9D 11   LD      HL,$119D        
6FDA: DD         ???                     
6FDB: 11 5D 91   LD      DE,$915D        
6FDE: B9         CP      C               
6FDF: A1         AND     C               
6FE0: 00         NOP                     
6FE1: FF         RST     0X38            
6FE2: 00         NOP                     
6FE3: FF         RST     0X38            
6FE4: 00         NOP                     
6FE5: FF         RST     0X38            
6FE6: 10 EF      STOP    $EF             
6FE8: 18 FF      JR      $6FE9           
6FEA: 00         NOP                     
6FEB: FF         RST     0X38            
6FEC: 00         NOP                     
6FED: FF         RST     0X38            
6FEE: 00         NOP                     
6FEF: FF         RST     0X38            
6FF0: 00         NOP                     
6FF1: FF         RST     0X38            
6FF2: 3C         INC     A               
6FF3: FF         RST     0X38            
6FF4: 42         LD      B,D             
6FF5: FF         RST     0X38            
6FF6: 89         ADC     A,C             
6FF7: C7         RST     0X00            
6FF8: B1         OR      C               
6FF9: CF         RST     0X08            
6FFA: 81         ADD     A,C             
6FFB: FF         RST     0X38            
6FFC: 42         LD      B,D             
6FFD: FF         RST     0X38            
6FFE: 00         NOP                     
6FFF: FF         RST     0X38            
7000: 60         LD      H,B             
7001: 00         NOP                     
7002: E3         ???                     
7003: 00         NOP                     
7004: C7         RST     0X00            
7005: 00         NOP                     
7006: 07         RLCA                    
7007: 00         NOP                     
7008: 06 00      LD      B,$00           
700A: 0E 00      LD      C,$00           
700C: 7C         LD      A,H             
700D: 00         NOP                     
700E: 78         LD      A,B             
700F: 00         NOP                     
7010: 06 00      LD      B,$00           
7012: C7         RST     0X00            
7013: 00         NOP                     
7014: E3         ???                     
7015: 00         NOP                     
7016: E0 00      LDFF00  ($00),A         
7018: 60         LD      H,B             
7019: 00         NOP                     
701A: 70         LD      (HL),B          
701B: 00         NOP                     
701C: 3E 00      LD      A,$00           
701E: 1E 00      LD      E,$00           
7020: 78         LD      A,B             
7021: 00         NOP                     
7022: 7C         LD      A,H             
7023: 00         NOP                     
7024: 0E 00      LD      C,$00           
7026: 06 00      LD      B,$00           
7028: 07         RLCA                    
7029: 00         NOP                     
702A: C7         RST     0X00            
702B: 00         NOP                     
702C: E3         ???                     
702D: 00         NOP                     
702E: 60         LD      H,B             
702F: 00         NOP                     
7030: 0E 00      LD      C,$00           
7032: 3E 00      LD      A,$00           
7034: 7C         LD      A,H             
7035: 00         NOP                     
7036: E0 00      LDFF00  ($00),A         
7038: C0         RET     NZ              
7039: 00         NOP                     
703A: C3 00 C7   JP      $C700           
703D: 00         NOP                     
703E: 06 00      LD      B,$00           
7040: 30 00      JR      NC,$7042        
7042: 30 00      JR      NC,$7044        
7044: F1         POP     AF              
7045: 00         NOP                     
7046: E1         POP     HL              
7047: 00         NOP                     
7048: 01 00 03   LD      BC,$0300        
704B: 00         NOP                     
704C: 0F         RRCA                    
704D: 00         NOP                     
704E: 3E 00      LD      A,$00           
7050: 0C         INC     C               
7051: 00         NOP                     
7052: 0C         INC     C               
7053: 00         NOP                     
7054: 8F         ADC     A,A             
7055: 00         NOP                     
7056: 87         ADD     A,A             
7057: 00         NOP                     
7058: 80         ADD     A,B             
7059: 00         NOP                     
705A: C0         RET     NZ              
705B: 00         NOP                     
705C: F0 00      LD      A,($00)         
705E: 7C         LD      A,H             
705F: 00         NOP                     
7060: 3E 00      LD      A,$00           
7062: 0F         RRCA                    
7063: 00         NOP                     
7064: 03         INC     BC              
7065: 00         NOP                     
7066: 01 00 E1   LD      BC,$E100        
7069: 00         NOP                     
706A: F1         POP     AF              
706B: 00         NOP                     
706C: 30 00      JR      NC,$706E        
706E: 30 00      JR      NC,$7070        
7070: 7C         LD      A,H             
7071: 00         NOP                     
7072: E0 00      LDFF00  ($00),A         
7074: C0         RET     NZ              
7075: 00         NOP                     
7076: C0         RET     NZ              
7077: 00         NOP                     
7078: 87         ADD     A,A             
7079: 00         NOP                     
707A: 8F         ADC     A,A             
707B: 00         NOP                     
707C: 0C         INC     C               
707D: 00         NOP                     
707E: 0C         INC     C               
707F: 00         NOP                     
7080: 1F         RRA                     
7081: 00         NOP                     
7082: 18 00      JR      $7084           
7084: 38 00      JR      C,$7086         
7086: F8 00      LDHL    SP,$00          
7088: F0 00      LD      A,($00)         
708A: 80         ADD     A,B             
708B: 00         NOP                     
708C: 81         ADD     A,C             
708D: 00         NOP                     
708E: 83         ADD     A,E             
708F: 00         NOP                     
7090: F8 00      LDHL    SP,$00          
7092: 18 00      JR      $7094           
7094: 1C         INC     E               
7095: 00         NOP                     
7096: 1F         RRA                     
7097: 00         NOP                     
7098: 0F         RRCA                    
7099: 00         NOP                     
709A: 01 00 81   LD      BC,$8100        
709D: 00         NOP                     
709E: C1         POP     BC              
709F: 00         NOP                     
70A0: 83         ADD     A,E             
70A1: 00         NOP                     
70A2: 81         ADD     A,C             
70A3: 00         NOP                     
70A4: 80         ADD     A,B             
70A5: 00         NOP                     
70A6: F0 00      LD      A,($00)         
70A8: F8 00      LDHL    SP,$00          
70AA: 38 00      JR      C,$70AC         
70AC: 18 00      JR      $70AE           
70AE: 1F         RRA                     
70AF: 00         NOP                     
70B0: C1         POP     BC              
70B1: 00         NOP                     
70B2: 81         ADD     A,C             
70B3: 00         NOP                     
70B4: 01 00 0F   LD      BC,$0F00        
70B7: 00         NOP                     
70B8: 1F         RRA                     
70B9: 00         NOP                     
70BA: 1C         INC     E               
70BB: 00         NOP                     
70BC: 18 00      JR      $70BE           
70BE: F8 00      LDHL    SP,$00          
70C0: C1         POP     BC              
70C1: 00         NOP                     
70C2: 8F         ADC     A,A             
70C3: 00         NOP                     
70C4: 0C         INC     C               
70C5: 00         NOP                     
70C6: 0C         INC     C               
70C7: 00         NOP                     
70C8: 7C         LD      A,H             
70C9: 00         NOP                     
70CA: 7C         LD      A,H             
70CB: 00         NOP                     
70CC: 78         LD      A,B             
70CD: 00         NOP                     
70CE: C0         RET     NZ              
70CF: 00         NOP                     
70D0: 83         ADD     A,E             
70D1: 00         NOP                     
70D2: F1         POP     AF              
70D3: 00         NOP                     
70D4: 30 00      JR      NC,$70D6        
70D6: 30 00      JR      NC,$70D8        
70D8: 3E 00      LD      A,$00           
70DA: 3E 00      LD      A,$00           
70DC: 1E 00      LD      E,$00           
70DE: 03         INC     BC              
70DF: 00         NOP                     
70E0: C0         RET     NZ              
70E1: 00         NOP                     
70E2: 78         LD      A,B             
70E3: 00         NOP                     
70E4: 7C         LD      A,H             
70E5: 00         NOP                     
70E6: 7C         LD      A,H             
70E7: 00         NOP                     
70E8: 0C         INC     C               
70E9: 00         NOP                     
70EA: 0C         INC     C               
70EB: 00         NOP                     
70EC: 8F         ADC     A,A             
70ED: 00         NOP                     
70EE: C1         POP     BC              
70EF: 00         NOP                     
70F0: 03         INC     BC              
70F1: 00         NOP                     
70F2: 02         LD      (BC),A          
70F3: 00         NOP                     
70F4: 3E 00      LD      A,$00           
70F6: 7E         LD      A,(HL)          
70F7: 00         NOP                     
70F8: 70         LD      (HL),B          
70F9: 00         NOP                     
70FA: 70         LD      (HL),B          
70FB: 00         NOP                     
70FC: F1         POP     AF              
70FD: 00         NOP                     
70FE: 83         ADD     A,E             
70FF: 00         NOP                     
7100: FF         RST     0X38            
7101: 00         NOP                     
7102: DF         RST     0X18            
7103: 00         NOP                     
7104: DF         RST     0X18            
7105: 00         NOP                     
7106: FF         RST     0X38            
7107: 00         NOP                     
7108: EF         RST     0X28            
7109: 00         NOP                     
710A: EF         RST     0X28            
710B: 00         NOP                     
710C: DF         RST     0X18            
710D: 00         NOP                     
710E: DF         RST     0X18            
710F: 00         NOP                     
7110: FF         RST     0X38            
7111: 00         NOP                     
7112: FF         RST     0X38            
7113: 00         NOP                     
7114: FF         RST     0X38            
7115: 00         NOP                     
7116: FF         RST     0X38            
7117: 00         NOP                     
7118: CF         RST     0X08            
7119: 00         NOP                     
711A: 39         ADD     HL,SP           
711B: 00         NOP                     
711C: FF         RST     0X38            
711D: 00         NOP                     
711E: FF         RST     0X38            
711F: 00         NOP                     
7120: FB         EI                      
7121: 00         NOP                     
7122: FB         EI                      
7123: 00         NOP                     
7124: F7         RST     0X30            
7125: 00         NOP                     
7126: F7         RST     0X30            
7127: 00         NOP                     
7128: FF         RST     0X38            
7129: 00         NOP                     
712A: FB         EI                      
712B: 00         NOP                     
712C: FB         EI                      
712D: 00         NOP                     
712E: FF         RST     0X38            
712F: 00         NOP                     
7130: FF         RST     0X38            
7131: 00         NOP                     
7132: FF         RST     0X38            
7133: 00         NOP                     
7134: 39         ADD     HL,SP           
7135: 00         NOP                     
7136: CF         RST     0X08            
7137: 00         NOP                     
7138: FF         RST     0X38            
7139: 00         NOP                     
713A: FF         RST     0X38            
713B: 00         NOP                     
713C: FF         RST     0X38            
713D: 00         NOP                     
713E: FF         RST     0X38            
713F: 00         NOP                     
7140: F7         RST     0X30            
7141: 00         NOP                     
7142: F7         RST     0X30            
7143: 00         NOP                     
7144: FB         EI                      
7145: 00         NOP                     
7146: FB         EI                      
7147: 00         NOP                     
7148: FF         RST     0X38            
7149: 00         NOP                     
714A: F7         RST     0X30            
714B: 00         NOP                     
714C: F7         RST     0X30            
714D: 00         NOP                     
714E: FF         RST     0X38            
714F: 00         NOP                     
7150: FF         RST     0X38            
7151: 00         NOP                     
7152: FF         RST     0X38            
7153: 00         NOP                     
7154: F3         DI                      
7155: 00         NOP                     
7156: 9C         SBC     H               
7157: 00         NOP                     
7158: FF         RST     0X38            
7159: 00         NOP                     
715A: FF         RST     0X38            
715B: 00         NOP                     
715C: FF         RST     0X38            
715D: 00         NOP                     
715E: FF         RST     0X38            
715F: 00         NOP                     
7160: FF         RST     0X38            
7161: 00         NOP                     
7162: EF         RST     0X28            
7163: 00         NOP                     
7164: EF         RST     0X28            
7165: 00         NOP                     
7166: FF         RST     0X38            
7167: 00         NOP                     
7168: DF         RST     0X18            
7169: 00         NOP                     
716A: DF         RST     0X18            
716B: 00         NOP                     
716C: EF         RST     0X28            
716D: 00         NOP                     
716E: EF         RST     0X28            
716F: 00         NOP                     
7170: FF         RST     0X38            
7171: 00         NOP                     
7172: FF         RST     0X38            
7173: 00         NOP                     
7174: FF         RST     0X38            
7175: 00         NOP                     
7176: FF         RST     0X38            
7177: 00         NOP                     
7178: 9C         SBC     H               
7179: 00         NOP                     
717A: F3         DI                      
717B: 00         NOP                     
717C: FF         RST     0X38            
717D: 00         NOP                     
717E: FF         RST     0X38            
717F: 00         NOP                     
7180: FF         RST     0X38            
7181: 00         NOP                     
7182: FD         ???                     
7183: 00         NOP                     
7184: FD         ???                     
7185: 00         NOP                     
7186: FF         RST     0X38            
7187: 00         NOP                     
7188: FE 00      CP      $00             
718A: FE 00      CP      $00             
718C: FD         ???                     
718D: 00         NOP                     
718E: FD         ???                     
718F: 00         NOP                     
7190: CF         RST     0X08            
7191: 00         NOP                     
7192: 39         ADD     HL,SP           
7193: 00         NOP                     
7194: FF         RST     0X38            
7195: 00         NOP                     
7196: FF         RST     0X38            
7197: 00         NOP                     
7198: FF         RST     0X38            
7199: 00         NOP                     
719A: FF         RST     0X38            
719B: 00         NOP                     
719C: FF         RST     0X38            
719D: 00         NOP                     
719E: FF         RST     0X38            
719F: 00         NOP                     
71A0: BF         CP      A               
71A1: 00         NOP                     
71A2: BF         CP      A               
71A3: 00         NOP                     
71A4: 7F         LD      A,A             
71A5: 00         NOP                     
71A6: 7F         LD      A,A             
71A7: 00         NOP                     
71A8: FF         RST     0X38            
71A9: 00         NOP                     
71AA: BF         CP      A               
71AB: 00         NOP                     
71AC: BF         CP      A               
71AD: 00         NOP                     
71AE: FF         RST     0X38            
71AF: 00         NOP                     
71B0: FF         RST     0X38            
71B1: 00         NOP                     
71B2: FF         RST     0X38            
71B3: 00         NOP                     
71B4: FF         RST     0X38            
71B5: 00         NOP                     
71B6: FF         RST     0X38            
71B7: 00         NOP                     
71B8: FF         RST     0X38            
71B9: 00         NOP                     
71BA: FF         RST     0X38            
71BB: 00         NOP                     
71BC: 39         ADD     HL,SP           
71BD: 00         NOP                     
71BE: CF         RST     0X08            
71BF: 00         NOP                     
71C0: 7F         LD      A,A             
71C1: 00         NOP                     
71C2: 7F         LD      A,A             
71C3: 00         NOP                     
71C4: BF         CP      A               
71C5: 00         NOP                     
71C6: BF         CP      A               
71C7: 00         NOP                     
71C8: FF         RST     0X38            
71C9: 00         NOP                     
71CA: 7F         LD      A,A             
71CB: 00         NOP                     
71CC: 7F         LD      A,A             
71CD: 00         NOP                     
71CE: FF         RST     0X38            
71CF: 00         NOP                     
71D0: FF         RST     0X38            
71D1: 00         NOP                     
71D2: FF         RST     0X38            
71D3: 00         NOP                     
71D4: FF         RST     0X38            
71D5: 00         NOP                     
71D6: FF         RST     0X38            
71D7: 00         NOP                     
71D8: FF         RST     0X38            
71D9: 00         NOP                     
71DA: FF         RST     0X38            
71DB: 00         NOP                     
71DC: F3         DI                      
71DD: 00         NOP                     
71DE: 9C         SBC     H               
71DF: 00         NOP                     
71E0: FF         RST     0X38            
71E1: 00         NOP                     
71E2: FE 00      CP      $00             
71E4: FE 00      CP      $00             
71E6: FF         RST     0X38            
71E7: 00         NOP                     
71E8: FD         ???                     
71E9: 00         NOP                     
71EA: FD         ???                     
71EB: 00         NOP                     
71EC: FE 00      CP      $00             
71EE: FE 00      CP      $00             
71F0: 9C         SBC     H               
71F1: 00         NOP                     
71F2: F3         DI                      
71F3: 00         NOP                     
71F4: FF         RST     0X38            
71F5: 00         NOP                     
71F6: FF         RST     0X38            
71F7: 00         NOP                     
71F8: FF         RST     0X38            
71F9: 00         NOP                     
71FA: FF         RST     0X38            
71FB: 00         NOP                     
71FC: FF         RST     0X38            
71FD: 00         NOP                     
71FE: FF         RST     0X38            
71FF: 00         NOP                     
7200: FF         RST     0X38            
7201: 00         NOP                     
7202: DF         RST     0X18            
7203: 00         NOP                     
7204: DF         RST     0X18            
7205: 00         NOP                     
7206: FF         RST     0X38            
7207: 00         NOP                     
7208: EF         RST     0X28            
7209: 00         NOP                     
720A: EF         RST     0X28            
720B: 00         NOP                     
720C: DF         RST     0X18            
720D: 00         NOP                     
720E: DF         RST     0X18            
720F: 00         NOP                     
7210: FF         RST     0X38            
7211: 00         NOP                     
7212: F3         DI                      
7213: 00         NOP                     
7214: E0 00      LDFF00  ($00),A         
7216: 0E 00      LD      C,$00           
7218: FF         RST     0X38            
7219: 00         NOP                     
721A: 7C         LD      A,H             
721B: 00         NOP                     
721C: 31 00 87   LD      SP,$8700        
721F: 00         NOP                     
7220: 7F         LD      A,A             
7221: 00         NOP                     
7222: 7E         LD      A,(HL)          
7223: 00         NOP                     
7224: 54         LD      D,H             
7225: 00         NOP                     
7226: C1         POP     BC              
7227: 00         NOP                     
7228: 6B         LD      L,E             
7229: 80         ADD     A,B             
722A: 7E         LD      A,(HL)          
722B: 81         ADD     A,C             
722C: D5         PUSH    DE              
722D: 2A         LD      A,(HLI)         
722E: D7         RST     0X10            
722F: 28 FF      JR      Z,$7230         
7231: 00         NOP                     
7232: FF         RST     0X38            
7233: 00         NOP                     
7234: 39         ADD     HL,SP           
7235: 00         NOP                     
7236: CF         RST     0X08            
7237: 00         NOP                     
7238: FF         RST     0X38            
7239: 00         NOP                     
723A: FF         RST     0X38            
723B: 00         NOP                     
723C: FF         RST     0X38            
723D: 00         NOP                     
723E: FF         RST     0X38            
723F: 00         NOP                     
7240: F7         RST     0X30            
7241: 00         NOP                     
7242: F7         RST     0X30            
7243: 00         NOP                     
7244: FB         EI                      
7245: 00         NOP                     
7246: FB         EI                      
7247: 00         NOP                     
7248: FF         RST     0X38            
7249: 00         NOP                     
724A: F7         RST     0X30            
724B: 00         NOP                     
724C: F7         RST     0X30            
724D: 00         NOP                     
724E: FF         RST     0X38            
724F: 00         NOP                     
7250: FF         RST     0X38            
7251: 00         NOP                     
7252: FC         ???                     
7253: 00         NOP                     
7254: 38 00      JR      C,$7256         
7256: 83         ADD     A,E             
7257: 00         NOP                     
7258: FF         RST     0X38            
7259: 00         NOP                     
725A: F1         POP     AF              
725B: 00         NOP                     
725C: C4 00 1E   CALL    NZ,$1E00        
725F: 00         NOP                     
7260: 95         SUB     L               
7261: 6A         LD      L,D             
7262: D7         RST     0X10            
7263: 28 FE      JR      Z,$7263         
7265: 00         NOP                     
7266: 5E         LD      E,(HL)          
7267: 00         NOP                     
7268: 14         INC     D               
7269: 00         NOP                     
726A: A1         AND     C               
726B: 00         NOP                     
726C: EA 01 7C   LD      ($7C01),A       
726F: 83         ADD     A,E             
7270: FF         RST     0X38            
7271: 00         NOP                     
7272: FF         RST     0X38            
7273: 00         NOP                     
7274: FF         RST     0X38            
7275: 00         NOP                     
7276: FF         RST     0X38            
7277: 00         NOP                     
7278: 9C         SBC     H               
7279: 00         NOP                     
727A: F3         DI                      
727B: 00         NOP                     
727C: FF         RST     0X38            
727D: 00         NOP                     
727E: FF         RST     0X38            
727F: 00         NOP                     
7280: FF         RST     0X38            
7281: 00         NOP                     
7282: FD         ???                     
7283: 00         NOP                     
7284: FD         ???                     
7285: 00         NOP                     
7286: FF         RST     0X38            
7287: 00         NOP                     
7288: FE 00      CP      $00             
728A: FE 00      CP      $00             
728C: FD         ???                     
728D: 00         NOP                     
728E: FD         ???                     
728F: 00         NOP                     
7290: FF         RST     0X38            
7291: 00         NOP                     
7292: 3F         CCF                     
7293: 00         NOP                     
7294: 0E 00      LD      C,$00           
7296: E0 00      LDFF00  ($00),A         
7298: FF         RST     0X38            
7299: 00         NOP                     
729A: C7         RST     0X00            
729B: 00         NOP                     
729C: 13         INC     DE              
729D: 00         NOP                     
729E: 78         LD      A,B             
729F: 00         NOP                     
72A0: 6B         LD      L,E             
72A1: 80         ADD     A,B             
72A2: 3E C1      LD      A,$C1           
72A4: A9         XOR     C               
72A5: 56         LD      D,(HL)          
72A6: EB         ???                     
72A7: 14         INC     D               
72A8: 7F         LD      A,A             
72A9: 00         NOP                     
72AA: 7E         LD      A,(HL)          
72AB: 00         NOP                     
72AC: 5E         LD      E,(HL)          
72AD: 00         NOP                     
72AE: CB 00      SET     1,E             
72B0: FF         RST     0X38            
72B1: 00         NOP                     
72B2: FF         RST     0X38            
72B3: 00         NOP                     
72B4: FF         RST     0X38            
72B5: 00         NOP                     
72B6: FF         RST     0X38            
72B7: 00         NOP                     
72B8: FF         RST     0X38            
72B9: 00         NOP                     
72BA: FF         RST     0X38            
72BB: 00         NOP                     
72BC: 39         ADD     HL,SP           
72BD: 00         NOP                     
72BE: CF         RST     0X08            
72BF: 00         NOP                     
72C0: 7F         LD      A,A             
72C1: 00         NOP                     
72C2: 7F         LD      A,A             
72C3: 00         NOP                     
72C4: BF         CP      A               
72C5: 00         NOP                     
72C6: BF         CP      A               
72C7: 00         NOP                     
72C8: FF         RST     0X38            
72C9: 00         NOP                     
72CA: 7F         LD      A,A             
72CB: 00         NOP                     
72CC: 7F         LD      A,A             
72CD: 00         NOP                     
72CE: FF         RST     0X38            
72CF: 00         NOP                     
72D0: FF         RST     0X38            
72D1: 00         NOP                     
72D2: CF         RST     0X08            
72D3: 00         NOP                     
72D4: 83         ADD     A,E             
72D5: 00         NOP                     
72D6: 38 00      JR      C,$72D8         
72D8: FF         RST     0X38            
72D9: 00         NOP                     
72DA: 1F         RRA                     
72DB: 00         NOP                     
72DC: 4C         LD      C,H             
72DD: 00         NOP                     
72DE: E1         POP     HL              
72DF: 00         NOP                     
72E0: 5C         LD      E,H             
72E1: 00         NOP                     
72E2: D5         PUSH    DE              
72E3: 00         NOP                     
72E4: 53         LD      D,E             
72E5: 80         ADD     A,B             
72E6: 3A         LD      A,(HLD)         
72E7: C1         POP     BC              
72E8: 9D         SBC     L               
72E9: 62         LD      H,D             
72EA: D5         PUSH    DE              
72EB: 2A         LD      A,(HLI)         
72EC: 77         LD      (HL),A          
72ED: 08 3E 00   LD      ($003E),SP      
72F0: 9C         SBC     H               
72F1: 00         NOP                     
72F2: F3         DI                      
72F3: 00         NOP                     
72F4: FF         RST     0X38            
72F5: 00         NOP                     
72F6: FF         RST     0X38            
72F7: 00         NOP                     
72F8: FF         RST     0X38            
72F9: 00         NOP                     
72FA: FF         RST     0X38            
72FB: 00         NOP                     
72FC: FF         RST     0X38            
72FD: 00         NOP                     
72FE: FF         RST     0X38            
72FF: 00         NOP                     
7300: FF         RST     0X38            
7301: 00         NOP                     
7302: 3F         CCF                     
7303: 00         NOP                     
7304: FF         RST     0X38            
7305: 00         NOP                     
7306: FF         RST     0X38            
7307: 00         NOP                     
7308: FF         RST     0X38            
7309: 00         NOP                     
730A: FC         ???                     
730B: 00         NOP                     
730C: FF         RST     0X38            
730D: 00         NOP                     
730E: FF         RST     0X38            
730F: 00         NOP                     
7310: 00         NOP                     
7311: FF         RST     0X38            
7312: C0         RET     NZ              
7313: 3F         CCF                     
7314: 00         NOP                     
7315: FF         RST     0X38            
7316: 00         NOP                     
7317: FF         RST     0X38            
7318: 00         NOP                     
7319: FF         RST     0X38            
731A: 03         INC     BC              
731B: FC         ???                     
731C: 00         NOP                     
731D: FF         RST     0X38            
731E: 00         NOP                     
731F: FF         RST     0X38            
7320: 81         ADD     A,C             
7321: 7E         LD      A,(HL)          
7322: 00         NOP                     
7323: FF         RST     0X38            
7324: 00         NOP                     
7325: FF         RST     0X38            
7326: 18 E7      JR      $730F           
7328: 18 E7      JR      $7311           
732A: 00         NOP                     
732B: FF         RST     0X38            
732C: 00         NOP                     
732D: FF         RST     0X38            
732E: 81         ADD     A,C             
732F: 7E         LD      A,(HL)          
7330: 00         NOP                     
7331: 00         NOP                     
7332: 00         NOP                     
7333: 00         NOP                     
7334: 00         NOP                     
7335: 00         NOP                     
7336: 7C         LD      A,H             
7337: 7C         LD      A,H             
7338: 6C         LD      L,H             
7339: 6C         LD      L,H             
733A: 6C         LD      L,H             
733B: 6C         LD      L,H             
733C: 7C         LD      A,H             
733D: 7C         LD      A,H             
733E: 00         NOP                     
733F: 00         NOP                     
7340: FF         RST     0X38            
7341: 00         NOP                     
7342: CF         RST     0X08            
7343: 00         NOP                     
7344: FF         RST     0X38            
7345: 00         NOP                     
7346: FF         RST     0X38            
7347: 00         NOP                     
7348: FF         RST     0X38            
7349: 00         NOP                     
734A: F3         DI                      
734B: 00         NOP                     
734C: FF         RST     0X38            
734D: 00         NOP                     
734E: FF         RST     0X38            
734F: 00         NOP                     
7350: 00         NOP                     
7351: FF         RST     0X38            
7352: 30 CF      JR      NC,$7323        
7354: 00         NOP                     
7355: FF         RST     0X38            
7356: 00         NOP                     
7357: FF         RST     0X38            
7358: 00         NOP                     
7359: FF         RST     0X38            
735A: 0C         INC     C               
735B: F3         DI                      
735C: 00         NOP                     
735D: FF         RST     0X38            
735E: 00         NOP                     
735F: FF         RST     0X38            
7360: 81         ADD     A,C             
7361: 7E         LD      A,(HL)          
7362: 00         NOP                     
7363: FF         RST     0X38            
7364: 18 E7      JR      $734D           
7366: 24         INC     H               
7367: C3 24 C3   JP      $C324           
736A: 18 E7      JR      $7353           
736C: 00         NOP                     
736D: FF         RST     0X38            
736E: 81         ADD     A,C             
736F: 7E         LD      A,(HL)          
7370: 00         NOP                     
7371: 00         NOP                     
7372: 00         NOP                     
7373: 00         NOP                     
7374: 10 10      STOP    $10             
7376: 6C         LD      L,H             
7377: 6C         LD      L,H             
7378: 6C         LD      L,H             
7379: 6C         LD      L,H             
737A: 6C         LD      L,H             
737B: 6C         LD      L,H             
737C: 7C         LD      A,H             
737D: 7C         LD      A,H             
737E: 00         NOP                     
737F: 00         NOP                     
7380: FF         RST     0X38            
7381: 00         NOP                     
7382: F3         DI                      
7383: 00         NOP                     
7384: FF         RST     0X38            
7385: 00         NOP                     
7386: FF         RST     0X38            
7387: 00         NOP                     
7388: FF         RST     0X38            
7389: 00         NOP                     
738A: CF         RST     0X08            
738B: 00         NOP                     
738C: FF         RST     0X38            
738D: 00         NOP                     
738E: FF         RST     0X38            
738F: 00         NOP                     
7390: 00         NOP                     
7391: FF         RST     0X38            
7392: 0C         INC     C               
7393: F3         DI                      
7394: 00         NOP                     
7395: FF         RST     0X38            
7396: 00         NOP                     
7397: FF         RST     0X38            
7398: 00         NOP                     
7399: FF         RST     0X38            
739A: 30 CF      JR      NC,$736B        
739C: 00         NOP                     
739D: FF         RST     0X38            
739E: 00         NOP                     
739F: FF         RST     0X38            
73A0: 81         ADD     A,C             
73A1: 7E         LD      A,(HL)          
73A2: 3C         INC     A               
73A3: C3 66 81   JP      $8166           
73A6: 42         LD      B,D             
73A7: 81         ADD     A,C             
73A8: 42         LD      B,D             
73A9: 81         ADD     A,C             
73AA: 66         LD      H,(HL)          
73AB: 81         ADD     A,C             
73AC: 3C         INC     A               
73AD: C3 81 7E   JP      $7E81           
73B0: 00         NOP                     
73B1: 00         NOP                     
73B2: 10 10      STOP    $10             
73B4: 28 28      JR      Z,$73DE         
73B6: 6C         LD      L,H             
73B7: 6C         LD      L,H             
73B8: 6C         LD      L,H             
73B9: 6C         LD      L,H             
73BA: 44         LD      B,H             
73BB: 6C         LD      L,H             
73BC: 7C         LD      A,H             
73BD: 7C         LD      A,H             
73BE: 00         NOP                     
73BF: 00         NOP                     
73C0: FF         RST     0X38            
73C1: 00         NOP                     
73C2: FC         ???                     
73C3: 00         NOP                     
73C4: FF         RST     0X38            
73C5: 00         NOP                     
73C6: FF         RST     0X38            
73C7: 00         NOP                     
73C8: FF         RST     0X38            
73C9: 00         NOP                     
73CA: 3F         CCF                     
73CB: 00         NOP                     
73CC: FF         RST     0X38            
73CD: 00         NOP                     
73CE: FF         RST     0X38            
73CF: 00         NOP                     
73D0: 00         NOP                     
73D1: FF         RST     0X38            
73D2: 03         INC     BC              
73D3: FC         ???                     
73D4: 00         NOP                     
73D5: FF         RST     0X38            
73D6: 00         NOP                     
73D7: FF         RST     0X38            
73D8: 00         NOP                     
73D9: FF         RST     0X38            
73DA: C0         RET     NZ              
73DB: 3F         CCF                     
73DC: 00         NOP                     
73DD: FF         RST     0X38            
73DE: 00         NOP                     
73DF: FF         RST     0X38            
73E0: BD         CP      L               
73E1: 42         LD      B,D             
73E2: 66         LD      H,(HL)          
73E3: 81         ADD     A,C             
73E4: C3 00 81   JP      $8100           
73E7: 00         NOP                     
73E8: 81         ADD     A,C             
73E9: 00         NOP                     
73EA: C3 00 66   JP      $6600           
73ED: 81         ADD     A,C             
73EE: BD         CP      L               
73EF: 42         LD      B,D             
73F0: 10 10      STOP    $10             
73F2: 28 28      JR      Z,$741C         
73F4: 28 28      JR      Z,$741E         
73F6: 6C         LD      L,H             
73F7: 6C         LD      L,H             
73F8: 44         LD      B,H             
73F9: 6C         LD      L,H             
73FA: 6C         LD      L,H             
73FB: 44         LD      B,H             
73FC: 7C         LD      A,H             
73FD: 7C         LD      A,H             
73FE: 00         NOP                     
73FF: 00         NOP                     
7400: AA         XOR     D               
7401: FF         RST     0X38            
7402: 55         LD      D,L             
7403: FF         RST     0X38            
7404: A2         AND     D               
7405: FF         RST     0X38            
7406: 00         NOP                     
7407: FF         RST     0X38            
7408: 00         NOP                     
7409: FF         RST     0X38            
740A: 00         NOP                     
740B: FF         RST     0X38            
740C: 00         NOP                     
740D: FF         RST     0X38            
740E: 00         NOP                     
740F: FF         RST     0X38            
7410: FF         RST     0X38            
7411: FF         RST     0X38            
7412: 7F         LD      A,A             
7413: FF         RST     0X38            
7414: AA         XOR     D               
7415: FF         RST     0X38            
7416: 55         LD      D,L             
7417: FF         RST     0X38            
7418: 00         NOP                     
7419: FF         RST     0X38            
741A: 00         NOP                     
741B: FF         RST     0X38            
741C: 3C         INC     A               
741D: C3 42 81   JP      $8142           
7420: 18 E7      JR      $7409           
7422: 24         INC     H               
7423: C3 E7 00   JP      $00E7           
7426: FF         RST     0X38            
7427: 00         NOP                     
7428: FF         RST     0X38            
7429: 00         NOP                     
742A: FF         RST     0X38            
742B: 00         NOP                     
742C: FF         RST     0X38            
742D: 00         NOP                     
742E: EF         RST     0X28            
742F: 00         NOP                     
7430: 81         ADD     A,C             
7431: 00         NOP                     
7432: 81         ADD     A,C             
7433: 00         NOP                     
7434: C3 00 FF   JP      $FF00           
7437: 00         NOP                     
7438: FF         RST     0X38            
7439: 00         NOP                     
743A: E7         RST     0X20            
743B: 00         NOP                     
743C: FF         RST     0X38            
743D: 00         NOP                     
743E: FF         RST     0X38            
743F: 00         NOP                     
7440: FF         RST     0X38            
7441: FF         RST     0X38            
7442: FF         RST     0X38            
7443: FF         RST     0X38            
7444: FE FF      CP      $FF             
7446: 55         LD      D,L             
7447: FF         RST     0X38            
7448: AA         XOR     D               
7449: FF         RST     0X38            
744A: 00         NOP                     
744B: FF         RST     0X38            
744C: 00         NOP                     
744D: FF         RST     0X38            
744E: 3C         INC     A               
744F: C3 FF FF   JP      $FFFF           
7452: 55         LD      D,L             
7453: FF         RST     0X38            
7454: AA         XOR     D               
7455: FF         RST     0X38            
7456: 45         LD      B,L             
7457: FF         RST     0X38            
7458: 00         NOP                     
7459: FF         RST     0X38            
745A: 00         NOP                     
745B: FF         RST     0X38            
745C: 24         INC     H               
745D: DB         ???                     
745E: 04         INC     B               
745F: FB         EI                      
7460: 66         LD      H,(HL)          
7461: 81         ADD     A,C             
7462: 42         LD      B,D             
7463: 81         ADD     A,C             
7464: C3 00 FF   JP      $FF00           
7467: 00         NOP                     
7468: FF         RST     0X38            
7469: 00         NOP                     
746A: FF         RST     0X38            
746B: 00         NOP                     
746C: E7         RST     0X20            
746D: 00         NOP                     
746E: FF         RST     0X38            
746F: 00         NOP                     
7470: 2C         INC     L               
7471: D3         ???                     
7472: 7E         LD      A,(HL)          
7473: 81         ADD     A,C             
7474: E7         RST     0X20            
7475: 00         NOP                     
7476: E7         RST     0X20            
7477: 00         NOP                     
7478: FF         RST     0X38            
7479: 00         NOP                     
747A: FF         RST     0X38            
747B: 00         NOP                     
747C: FF         RST     0X38            
747D: 00         NOP                     
747E: FF         RST     0X38            
747F: 00         NOP                     
7480: FF         RST     0X38            
7481: FF         RST     0X38            
7482: FF         RST     0X38            
7483: FF         RST     0X38            
7484: AA         XOR     D               
7485: FF         RST     0X38            
7486: 55         LD      D,L             
7487: FF         RST     0X38            
7488: A2         AND     D               
7489: FF         RST     0X38            
748A: 00         NOP                     
748B: FF         RST     0X38            
748C: 3C         INC     A               
748D: C3 42 81   JP      $8142           
7490: FF         RST     0X38            
7491: FF         RST     0X38            
7492: FF         RST     0X38            
7493: FF         RST     0X38            
7494: FF         RST     0X38            
7495: FF         RST     0X38            
7496: 7F         LD      A,A             
7497: FF         RST     0X38            
7498: AA         XOR     D               
7499: FF         RST     0X38            
749A: 55         LD      D,L             
749B: FF         RST     0X38            
749C: 00         NOP                     
749D: FF         RST     0X38            
749E: 20 DF      JR      NZ,$747F        
74A0: 81         ADD     A,C             
74A1: 00         NOP                     
74A2: 81         ADD     A,C             
74A3: 00         NOP                     
74A4: C3 00 FF   JP      $FF00           
74A7: 00         NOP                     
74A8: FF         RST     0X38            
74A9: 00         NOP                     
74AA: E7         RST     0X20            
74AB: 00         NOP                     
74AC: FF         RST     0X38            
74AD: 00         NOP                     
74AE: FF         RST     0X38            
74AF: 00         NOP                     
74B0: 18 E7      JR      $7499           
74B2: 24         INC     H               
74B3: C3 E7 00   JP      $00E7           
74B6: FF         RST     0X38            
74B7: 00         NOP                     
74B8: FF         RST     0X38            
74B9: 00         NOP                     
74BA: FF         RST     0X38            
74BB: 00         NOP                     
74BC: FF         RST     0X38            
74BD: 00         NOP                     
74BE: EF         RST     0X28            
74BF: 00         NOP                     
74C0: FF         RST     0X38            
74C1: FF         RST     0X38            
74C2: FF         RST     0X38            
74C3: FF         RST     0X38            
74C4: FE FF      CP      $FF             
74C6: 55         LD      D,L             
74C7: FF         RST     0X38            
74C8: AA         XOR     D               
74C9: FF         RST     0X38            
74CA: 00         NOP                     
74CB: FF         RST     0X38            
74CC: 20 DF      JR      NZ,$74AD        
74CE: 22         LD      (HLI),A         
74CF: DD         ???                     
74D0: FF         RST     0X38            
74D1: FF         RST     0X38            
74D2: 55         LD      D,L             
74D3: FF         RST     0X38            
74D4: AA         XOR     D               
74D5: FF         RST     0X38            
74D6: 45         LD      B,L             
74D7: FF         RST     0X38            
74D8: 00         NOP                     
74D9: FF         RST     0X38            
74DA: 00         NOP                     
74DB: FF         RST     0X38            
74DC: 00         NOP                     
74DD: FF         RST     0X38            
74DE: 3C         INC     A               
74DF: C3 26 D9   JP      $D926           
74E2: 7E         LD      A,(HL)          
74E3: 81         ADD     A,C             
74E4: E7         RST     0X20            
74E5: 00         NOP                     
74E6: E7         RST     0X20            
74E7: 00         NOP                     
74E8: FF         RST     0X38            
74E9: 00         NOP                     
74EA: FF         RST     0X38            
74EB: 00         NOP                     
74EC: FF         RST     0X38            
74ED: 00         NOP                     
74EE: FF         RST     0X38            
74EF: 00         NOP                     
74F0: 66         LD      H,(HL)          
74F1: 81         ADD     A,C             
74F2: 42         LD      B,D             
74F3: 81         ADD     A,C             
74F4: C3 00 FF   JP      $FF00           
74F7: 00         NOP                     
74F8: FF         RST     0X38            
74F9: 00         NOP                     
74FA: FF         RST     0X38            
74FB: 00         NOP                     
74FC: E7         RST     0X20            
74FD: 00         NOP                     
74FE: FF         RST     0X38            
74FF: 00         NOP                     
7500: E0 FF      LDFF00  ($FF),A         
7502: E4         ???                     
7503: FF         RST     0X38            
7504: ED         ???                     
7505: FE FF      CP      $FF             
7507: FC         ???                     
7508: FB         EI                      
7509: FC         ???                     
750A: F3         DI                      
750B: FC         ???                     
750C: E3         ???                     
750D: FC         ???                     
750E: E2         LDFF00  (C),A           
750F: FD         ???                     
7510: 47         LD      B,A             
7511: BF         CP      A               
7512: C7         RST     0X00            
7513: 3F         CCF                     
7514: CF         RST     0X08            
7515: 3F         CCF                     
7516: DF         RST     0X18            
7517: 3F         CCF                     
7518: FF         RST     0X38            
7519: 3F         CCF                     
751A: B7         OR      A               
751B: 7F         LD      A,A             
751C: 27         DAA                     
751D: FF         RST     0X38            
751E: 07         RLCA                    
751F: FF         RST     0X38            
7520: E0 FF      LDFF00  ($FF),A         
7522: E4         ???                     
7523: FF         RST     0X38            
7524: ED         ???                     
7525: FE FF      CP      $FF             
7527: FC         ???                     
7528: FB         EI                      
7529: FC         ???                     
752A: F3         DI                      
752B: FC         ???                     
752C: E3         ???                     
752D: FC         ???                     
752E: E2         LDFF00  (C),A           
752F: FD         ???                     
7530: 47         LD      B,A             
7531: BF         CP      A               
7532: C7         RST     0X00            
7533: 3F         CCF                     
7534: CF         RST     0X08            
7535: 3F         CCF                     
7536: DF         RST     0X18            
7537: 3F         CCF                     
7538: FF         RST     0X38            
7539: 3F         CCF                     
753A: B7         OR      A               
753B: 7F         LD      A,A             
753C: 27         DAA                     
753D: FF         RST     0X38            
753E: 07         RLCA                    
753F: FF         RST     0X38            
7540: DC E0 DD   CALL    C,$DDE0         
7543: E0 DF      LDFF00  ($DF),A         
7545: E0 DB      LDFF00  ($DB),A         
7547: E4         ???                     
7548: D2 EC C0   JP      NC,$C0EC        
754B: FC         ???                     
754C: C4 F8 CC   CALL    NZ,$CCF8        
754F: F0 DB      LD      A,($DB)         
7551: 27         DAA                     
7552: DB         ???                     
7553: 07         RLCA                    
7554: 9B         SBC     E               
7555: 07         RLCA                    
7556: 1B         DEC     DE              
7557: 07         RLCA                    
7558: 13         INC     DE              
7559: 0F         RRCA                    
755A: 03         INC     BC              
755B: 1F         RRA                     
755C: 03         INC     BC              
755D: 3F         CCF                     
755E: 4B         LD      C,E             
755F: 37         SCF                     
7560: DC E0 DD   CALL    C,$DDE0         
7563: E0 DF      LDFF00  ($DF),A         
7565: E0 DB      LDFF00  ($DB),A         
7567: E4         ???                     
7568: D2 EC C0   JP      NC,$C0EC        
756B: FC         ???                     
756C: C0         RET     NZ              
756D: F8 C8      LDHL    SP,$C8          
756F: F0 DB      LD      A,($DB)         
7571: 27         DAA                     
7572: DB         ???                     
7573: 07         RLCA                    
7574: 9B         SBC     E               
7575: 07         RLCA                    
7576: 1B         DEC     DE              
7577: 07         RLCA                    
7578: 13         INC     DE              
7579: 0F         RRCA                    
757A: 03         INC     BC              
757B: 1F         RRA                     
757C: 03         INC     BC              
757D: 3F         CCF                     
757E: 4B         LD      C,E             
757F: 37         SCF                     
7580: 78         LD      A,B             
7581: 80         ADD     A,B             
7582: 70         LD      (HL),B          
7583: 80         ADD     A,B             
7584: 60         LD      H,B             
7585: 80         ADD     A,B             
7586: 60         LD      H,B             
7587: 80         ADD     A,B             
7588: 60         LD      H,B             
7589: 80         ADD     A,B             
758A: 64         LD      H,H             
758B: 80         ADD     A,B             
758C: 6C         LD      L,H             
758D: 80         ADD     A,B             
758E: 7C         LD      A,H             
758F: 80         ADD     A,B             
7590: 3E 01      LD      A,$01           
7592: 36 01      LD      (HL),$01        
7594: 26 01      LD      H,$01           
7596: 06 01      LD      B,$01           
7598: 06 01      LD      B,$01           
759A: 06 01      LD      B,$01           
759C: 0E 01      LD      C,$01           
759E: 1E 01      LD      E,$01           
75A0: 78         LD      A,B             
75A1: 80         ADD     A,B             
75A2: 70         LD      (HL),B          
75A3: 80         ADD     A,B             
75A4: 60         LD      H,B             
75A5: 80         ADD     A,B             
75A6: 60         LD      H,B             
75A7: 80         ADD     A,B             
75A8: 60         LD      H,B             
75A9: 80         ADD     A,B             
75AA: 64         LD      H,H             
75AB: 80         ADD     A,B             
75AC: 6C         LD      L,H             
75AD: 80         ADD     A,B             
75AE: 7C         LD      A,H             
75AF: 80         ADD     A,B             
75B0: 3E 01      LD      A,$01           
75B2: 36 01      LD      (HL),$01        
75B4: 26 01      LD      H,$01           
75B6: 06 01      LD      B,$01           
75B8: 06 01      LD      B,$01           
75BA: 06 01      LD      B,$01           
75BC: 0E 01      LD      C,$01           
75BE: 1E 01      LD      E,$01           
75C0: D2 EC C0   JP      NC,$C0EC        
75C3: FC         ???                     
75C4: C4 F8 CC   CALL    NZ,$CCF8        
75C7: F0 DC      LD      A,($DC)         
75C9: E0 DD      LDFF00  ($DD),A         
75CB: E0 DF      LDFF00  ($DF),A         
75CD: E0 DB      LDFF00  ($DB),A         
75CF: E4         ???                     
75D0: 13         INC     DE              
75D1: 0F         RRCA                    
75D2: 03         INC     BC              
75D3: 1F         RRA                     
75D4: 03         INC     BC              
75D5: 3F         CCF                     
75D6: 4B         LD      C,E             
75D7: 37         SCF                     
75D8: DB         ???                     
75D9: 27         DAA                     
75DA: DB         ???                     
75DB: 07         RLCA                    
75DC: 9B         SBC     E               
75DD: 07         RLCA                    
75DE: 1B         DEC     DE              
75DF: 07         RLCA                    
75E0: D2 EC C0   JP      NC,$C0EC        
75E3: FC         ???                     
75E4: C4 F8 CC   CALL    NZ,$CCF8        
75E7: F0 DC      LD      A,($DC)         
75E9: E0 DD      LDFF00  ($DD),A         
75EB: E0 DF      LDFF00  ($DF),A         
75ED: E0 DB      LDFF00  ($DB),A         
75EF: E4         ???                     
75F0: 13         INC     DE              
75F1: 0F         RRCA                    
75F2: 03         INC     BC              
75F3: 1F         RRA                     
75F4: 03         INC     BC              
75F5: 3F         CCF                     
75F6: 4B         LD      C,E             
75F7: 37         SCF                     
75F8: DB         ???                     
75F9: 27         DAA                     
75FA: DB         ???                     
75FB: 07         RLCA                    
75FC: 9B         SBC     E               
75FD: 07         RLCA                    
75FE: 1B         DEC     DE              
75FF: 07         RLCA                    
7600: FF         RST     0X38            
7601: 7F         LD      A,A             
7602: B0         OR      B               
7603: F0 CB      LD      A,($CB)         
7605: E0 D8      LDFF00  ($D8),A         
7607: C0         RET     NZ              
7608: 90         SUB     B               
7609: 80         ADD     A,B             
760A: 80         ADD     A,B             
760B: 80         ADD     A,B             
760C: 84         ADD     A,H             
760D: 84         ADD     A,H             
760E: 84         ADD     A,H             
760F: 84         ADD     A,H             
7610: FF         RST     0X38            
7611: FE 0D      CP      $0D             
7613: 0F         RRCA                    
7614: 93         SUB     E               
7615: 07         RLCA                    
7616: 7B         LD      A,E             
7617: 03         INC     BC              
7618: 31 01 03   LD      SP,$0301        
761B: 0D         DEC     C               
761C: 8B         ADC     A,E             
761D: 9D         SBC     L               
761E: 8B         ADC     A,E             
761F: 9D         SBC     L               
7620: 84         ADD     A,H             
7621: 84         ADD     A,H             
7622: 80         ADD     A,B             
7623: 80         ADD     A,B             
7624: 80         ADD     A,B             
7625: 90         SUB     B               
7626: 90         SUB     B               
7627: B8         CP      B               
7628: EF         RST     0X28            
7629: DB         ???                     
762A: D4 EB BF   CALL    NC,$BFEB        
762D: F0 FF      LD      A,($FF)         
762F: 7F         LD      A,A             
7630: 8B         ADC     A,E             
7631: 9D         SBC     L               
7632: 0B         DEC     BC              
7633: 1D         DEC     E               
7634: 3B         DEC     SP              
7635: 0D         DEC     C               
7636: 5D         LD      E,L             
7637: 31 E7 BB   LD      SP,$BBE7        
763A: 2B         DEC     HL              
763B: D7         RST     0X10            
763C: FD         ???                     
763D: 0F         RRCA                    
763E: FF         RST     0X38            
763F: FE 7F      CP      $7F             
7641: FF         RST     0X38            
7642: B0         OR      B               
7643: F0 E1      LD      A,($E1)         
7645: E0 C0      LDFF00  ($C0),A         
7647: C0         RET     NZ              
7648: 81         ADD     A,C             
7649: 80         ADD     A,B             
764A: BB         CP      E               
764B: 80         ADD     A,B             
764C: A3         AND     E               
764D: 99         SBC     C               
764E: A3         AND     E               
764F: 99         SBC     C               
7650: FE FF      CP      $FF             
7652: 0D         DEC     C               
7653: 0F         RRCA                    
7654: E7         RST     0X20            
7655: 07         RLCA                    
7656: 1B         DEC     DE              
7657: 03         INC     BC              
7658: E9         JP      (HL)            
7659: 01 F3 05   LD      BC,$05F3        
765C: F3         DI                      
765D: 25         DEC     H               
765E: F3         DI                      
765F: 25         DEC     H               
7660: A3         AND     E               
7661: 99         SBC     C               
7662: A3         AND     E               
7663: 90         SUB     B               
7664: A9         XOR     C               
7665: 8C         ADC     A,H             
7666: 8C         ADC     A,H             
7667: 9E         SBC     (HL)            
7668: E7         RST     0X20            
7669: DD         ???                     
766A: F4         ???                     
766B: EB         ???                     
766C: BF         CP      A               
766D: F0 7F      LD      A,($7F)         
766F: FF         RST     0X38            
7670: F3         DI                      
7671: 25         DEC     H               
7672: F3         DI                      
7673: 05         DEC     B               
7674: EB         ???                     
7675: 05         DEC     B               
7676: 0D         DEC     C               
7677: 19         ADD     HL,DE           
7678: F7         RST     0X30            
7679: DB         ???                     
767A: 1F         RRA                     
767B: E7         RST     0X20            
767C: ED         ???                     
767D: 0F         RRCA                    
767E: FE FF      CP      $FF             
7680: FF         RST     0X38            
7681: 7F         LD      A,A             
7682: B0         OR      B               
7683: F0 C8      LD      A,($C8)         
7685: E0 DC      LDFF00  ($DC),A         
7687: C0         RET     NZ              
7688: 9C         SBC     H               
7689: 80         ADD     A,B             
768A: CC A1 C0   CALL    Z,$C0A1         
768D: B3         OR      E               
768E: C1         POP     BC              
768F: BB         CP      E               
7690: FF         RST     0X38            
7691: FE 0D      CP      $0D             
7693: 0F         RRCA                    
7694: 03         INC     BC              
7695: 07         RLCA                    
7696: 1B         DEC     DE              
7697: 03         INC     BC              
7698: 1D         DEC     E               
7699: 01 0B E1   LD      BC,$E10B        
769C: 07         RLCA                    
769D: F1         POP     AF              
769E: 23         INC     HL              
769F: F5         PUSH    AF              
76A0: D1         POP     DE              
76A1: BB         CP      E               
76A2: D1         POP     DE              
76A3: BB         CP      E               
76A4: D8         RET     C               
76A5: B3         OR      E               
76A6: F8 8D      LDHL    SP,$8D          
76A8: E6 DC      AND     $DC             
76AA: D5         PUSH    DE              
76AB: EB         ???                     
76AC: B7         OR      A               
76AD: F0 FF      LD      A,($FF)         
76AF: 7F         LD      A,A             
76B0: 23         INC     HL              
76B1: F5         PUSH    AF              
76B2: 23         INC     HL              
76B3: F5         PUSH    AF              
76B4: 03         INC     BC              
76B5: F5         PUSH    AF              
76B6: 0D         DEC     C               
76B7: E9         JP      (HL)            
76B8: 17         RLA                     
76B9: 1B         DEC     DE              
76BA: DB         ???                     
76BB: E7         RST     0X20            
76BC: ED         ???                     
76BD: 0F         RRCA                    
76BE: FF         RST     0X38            
76BF: FE 7F      CP      $7F             
76C1: 7F         LD      A,A             
76C2: F0 B0      LD      A,($B0)         
76C4: C7         RST     0X00            
76C5: E0 DB      LDFF00  ($DB),A         
76C7: C0         RET     NZ              
76C8: B8         CP      B               
76C9: 80         ADD     A,B             
76CA: D7         RST     0X10            
76CB: 80         ADD     A,B             
76CC: CF         RST     0X08            
76CD: A0         AND     B               
76CE: CF         RST     0X08            
76CF: A4         AND     H               
76D0: FE FE      CP      $FE             
76D2: 0F         RRCA                    
76D3: 0D         DEC     C               
76D4: E3         ???                     
76D5: 07         RLCA                    
76D6: C3 03 01   JP      $0103           
76D9: 01 81 01   LD      BC,$0181        
76DC: DD         ???                     
76DD: 01 DD 81   LD      BC,$81DD        
76E0: CF         RST     0X08            
76E1: A4         AND     H               
76E2: CF         RST     0X08            
76E3: A4         AND     H               
76E4: CF         RST     0X08            
76E5: A0         AND     B               
76E6: B7         OR      A               
76E7: 90         SUB     B               
76E8: E8 D8      ADD     SP,$D8          
76EA: D4 EB F7   CALL    NC,$F7EB        
76ED: B0         OR      B               
76EE: 7F         LD      A,A             
76EF: 7F         LD      A,A             
76F0: DD         ???                     
76F1: 81         ADD     A,C             
76F2: DD         ???                     
76F3: 81         ADD     A,C             
76F4: CD 01 91   CALL    $9101           
76F7: 31 67 3B   LD      SP,$3B67        
76FA: 2B         DEC     HL              
76FB: D7         RST     0X10            
76FC: FF         RST     0X38            
76FD: 0D         DEC     C               
76FE: FE FE      CP      $FE             
7700: 00         NOP                     
7701: 00         NOP                     
7702: 03         INC     BC              
7703: 03         INC     BC              
7704: 05         DEC     B               
7705: 05         DEC     B               
7706: 75         LD      (HL),L          
7707: 75         LD      (HL),L          
7708: F7         RST     0X30            
7709: 95         SUB     L               
770A: F7         RST     0X30            
770B: F5         PUSH    AF              
770C: F7         RST     0X30            
770D: F7         RST     0X30            
770E: FD         ???                     
770F: FD         ???                     
7710: F5         PUSH    AF              
7711: 15         DEC     D               
7712: FF         RST     0X38            
7713: DD         ???                     
7714: F7         RST     0X30            
7715: D7         RST     0X10            
7716: F7         RST     0X30            
7717: F5         PUSH    AF              
7718: 97         SUB     A               
7719: 95         SUB     L               
771A: 27         DAA                     
771B: 25         DEC     H               
771C: C7         RST     0X00            
771D: C5         PUSH    BC              
771E: 43         LD      B,E             
771F: 43         LD      B,E             
7720: 38 00      JR      C,$7722         
7722: 38 00      JR      C,$7724         
7724: C6 00      ADD     $00             
7726: C6 00      ADD     $00             
7728: C6 00      ADD     $00             
772A: 38 00      JR      C,$772C         
772C: 38 00      JR      C,$772E         
772E: 00         NOP                     
772F: 00         NOP                     
7730: 00         NOP                     
7731: 00         NOP                     
7732: 38 00      JR      C,$7734         
7734: 38 00      JR      C,$7736         
7736: C6 00      ADD     $00             
7738: C6 00      ADD     $00             
773A: C6 00      ADD     $00             
773C: 38 00      JR      C,$773E         
773E: 38 00      JR      C,$7740         
7740: 00         NOP                     
7741: 00         NOP                     
7742: 00         NOP                     
7743: 00         NOP                     
7744: 03         INC     BC              
7745: 03         INC     BC              
7746: 75         LD      (HL),L          
7747: 75         LD      (HL),L          
7748: F5         PUSH    AF              
7749: 95         SUB     L               
774A: F7         RST     0X30            
774B: F5         PUSH    AF              
774C: F7         RST     0X30            
774D: F5         PUSH    AF              
774E: FF         RST     0X38            
774F: FF         RST     0X38            
7750: F5         PUSH    AF              
7751: 15         DEC     D               
7752: FD         ???                     
7753: DD         ???                     
7754: F5         PUSH    AF              
7755: D5         PUSH    DE              
7756: F7         RST     0X30            
7757: F5         PUSH    AF              
7758: 97         SUB     A               
7759: 97         SUB     A               
775A: 27         DAA                     
775B: 25         DEC     H               
775C: C3 C3 40   JP      $40C3           
775F: 40         LD      B,B             
7760: 00         NOP                     
7761: 00         NOP                     
7762: 38 00      JR      C,$7764         
7764: BA         CP      D               
7765: 00         NOP                     
7766: C6 00      ADD     $00             
7768: C6 00      ADD     $00             
776A: 44         LD      B,H             
776B: 00         NOP                     
776C: 38 00      JR      C,$776E         
776E: 00         NOP                     
776F: 00         NOP                     
7770: 00         NOP                     
7771: 00         NOP                     
7772: 38 00      JR      C,$7774         
7774: 44         LD      B,H             
7775: 00         NOP                     
7776: C6 00      ADD     $00             
7778: C6 00      ADD     $00             
777A: BA         CP      D               
777B: 00         NOP                     
777C: 38 00      JR      C,$777E         
777E: 00         NOP                     
777F: 00         NOP                     
7780: 00         NOP                     
7781: 00         NOP                     
7782: 00         NOP                     
7783: 00         NOP                     
7784: 00         NOP                     
7785: 00         NOP                     
7786: 73         LD      (HL),E          
7787: 73         LD      (HL),E          
7788: F5         PUSH    AF              
7789: 95         SUB     L               
778A: F5         PUSH    AF              
778B: F5         PUSH    AF              
778C: F7         RST     0X30            
778D: F5         PUSH    AF              
778E: FF         RST     0X38            
778F: FD         ???                     
7790: F7         RST     0X30            
7791: 17         RLA                     
7792: FD         ???                     
7793: DD         ???                     
7794: F5         PUSH    AF              
7795: D5         PUSH    DE              
7796: F5         PUSH    AF              
7797: F5         PUSH    AF              
7798: 97         SUB     A               
7799: 95         SUB     L               
779A: 23         INC     HL              
779B: 23         INC     HL              
779C: C0         RET     NZ              
779D: C0         RET     NZ              
779E: 40         LD      B,B             
779F: 40         LD      B,B             
77A0: 00         NOP                     
77A1: 00         NOP                     
77A2: 38 00      JR      C,$77A4         
77A4: 38 00      JR      C,$77A6         
77A6: C6 00      ADD     $00             
77A8: C6 00      ADD     $00             
77AA: C6 00      ADD     $00             
77AC: 38 00      JR      C,$77AE         
77AE: 38 00      JR      C,$77B0         
77B0: 38 00      JR      C,$77B2         
77B2: 38 00      JR      C,$77B4         
77B4: C6 00      ADD     $00             
77B6: C6 00      ADD     $00             
77B8: C6 00      ADD     $00             
77BA: 38 00      JR      C,$77BC         
77BC: 38 00      JR      C,$77BE         
77BE: 00         NOP                     
77BF: 00         NOP                     
77C0: 00         NOP                     
77C1: 00         NOP                     
77C2: 00         NOP                     
77C3: 00         NOP                     
77C4: 03         INC     BC              
77C5: 03         INC     BC              
77C6: 75         LD      (HL),L          
77C7: 75         LD      (HL),L          
77C8: F7         RST     0X30            
77C9: 97         SUB     A               
77CA: F5         PUSH    AF              
77CB: F5         PUSH    AF              
77CC: F7         RST     0X30            
77CD: F5         PUSH    AF              
77CE: FF         RST     0X38            
77CF: FD         ???                     
77D0: F7         RST     0X30            
77D1: 15         DEC     D               
77D2: FF         RST     0X38            
77D3: DF         RST     0X18            
77D4: F5         PUSH    AF              
77D5: D5         PUSH    DE              
77D6: F5         PUSH    AF              
77D7: F5         PUSH    AF              
77D8: 95         SUB     L               
77D9: 95         SUB     L               
77DA: 27         DAA                     
77DB: 25         DEC     H               
77DC: C3 C3 40   JP      $40C3           
77DF: 40         LD      B,B             
77E0: 00         NOP                     
77E1: 00         NOP                     
77E2: 38 00      JR      C,$77E4         
77E4: 44         LD      B,H             
77E5: 00         NOP                     
77E6: C6 00      ADD     $00             
77E8: C6 00      ADD     $00             
77EA: BA         CP      D               
77EB: 00         NOP                     
77EC: 38 00      JR      C,$77EE         
77EE: 00         NOP                     
77EF: 00         NOP                     
77F0: 00         NOP                     
77F1: 00         NOP                     
77F2: 38 00      JR      C,$77F4         
77F4: BA         CP      D               
77F5: 00         NOP                     
77F6: C6 00      ADD     $00             
77F8: C6 00      ADD     $00             
77FA: 44         LD      B,H             
77FB: 00         NOP                     
77FC: 38 00      JR      C,$77FE         
77FE: 00         NOP                     
77FF: 00         NOP                     
7800: 3F         CCF                     
7801: 3F         CCF                     
7802: 7F         LD      A,A             
7803: 61         LD      H,C             
7804: FF         RST     0X38            
7805: C1         POP     BC              
7806: FF         RST     0X38            
7807: 8F         ADC     A,A             
7808: F0 90      LD      A,($90)         
780A: F0 90      LD      A,($90)         
780C: F0 90      LD      A,($90)         
780E: F0 F0      LD      A,($F0)         
7810: F0 F0      LD      A,($F0)         
7812: F0 90      LD      A,($90)         
7814: F0 90      LD      A,($90)         
7816: F0 90      LD      A,($90)         
7818: FF         RST     0X38            
7819: 8F         ADC     A,A             
781A: FF         RST     0X38            
781B: C1         POP     BC              
781C: 7F         LD      A,A             
781D: 61         LD      H,C             
781E: 3F         CCF                     
781F: 3F         CCF                     
7820: 00         NOP                     
7821: 00         NOP                     
7822: 1F         RRA                     
7823: 1F         RRA                     
7824: 3F         CCF                     
7825: 20 7F      JR      NZ,$78A6        
7827: 40         LD      B,B             
7828: 7F         LD      A,A             
7829: 4C         LD      C,H             
782A: 7F         LD      A,A             
782B: 4C         LD      C,H             
782C: 7F         LD      A,A             
782D: 40         LD      B,B             
782E: 7F         LD      A,A             
782F: 41         LD      B,C             
7830: 7F         LD      A,A             
7831: 43         LD      B,E             
7832: 7F         LD      A,A             
7833: 43         LD      B,E             
7834: 7F         LD      A,A             
7835: 43         LD      B,E             
7836: 7F         LD      A,A             
7837: 43         LD      B,E             
7838: 7F         LD      A,A             
7839: 43         LD      B,E             
783A: 7F         LD      A,A             
783B: 43         LD      B,E             
783C: 7F         LD      A,A             
783D: 43         LD      B,E             
783E: 7F         LD      A,A             
783F: 43         LD      B,E             
7840: 00         NOP                     
7841: 00         NOP                     
7842: FF         RST     0X38            
7843: FF         RST     0X38            
7844: FF         RST     0X38            
7845: 00         NOP                     
7846: FF         RST     0X38            
7847: 00         NOP                     
7848: FF         RST     0X38            
7849: 00         NOP                     
784A: FF         RST     0X38            
784B: 00         NOP                     
784C: FF         RST     0X38            
784D: FF         RST     0X38            
784E: FF         RST     0X38            
784F: FF         RST     0X38            
7850: FF         RST     0X38            
7851: FF         RST     0X38            
7852: FF         RST     0X38            
7853: FF         RST     0X38            
7854: FF         RST     0X38            
7855: FF         RST     0X38            
7856: FF         RST     0X38            
7857: FF         RST     0X38            
7858: FF         RST     0X38            
7859: FF         RST     0X38            
785A: FF         RST     0X38            
785B: FF         RST     0X38            
785C: FF         RST     0X38            
785D: FF         RST     0X38            
785E: FF         RST     0X38            
785F: FF         RST     0X38            
7860: 0C         INC     C               
7861: 0C         INC     C               
7862: 1C         INC     E               
7863: 14         INC     D               
7864: 3F         CCF                     
7865: 27         DAA                     
7866: 7F         LD      A,A             
7867: 41         LD      B,C             
7868: FF         RST     0X38            
7869: 81         ADD     A,C             
786A: 7F         LD      A,A             
786B: 41         LD      B,C             
786C: 3F         CCF                     
786D: 27         DAA                     
786E: 1C         INC     E               
786F: 14         INC     D               
7870: 00         NOP                     
7871: 00         NOP                     
7872: 00         NOP                     
7873: 00         NOP                     
7874: 00         NOP                     
7875: 00         NOP                     
7876: 00         NOP                     
7877: 00         NOP                     
7878: 00         NOP                     
7879: 00         NOP                     
787A: 00         NOP                     
787B: 00         NOP                     
787C: 00         NOP                     
787D: 00         NOP                     
787E: 00         NOP                     
787F: 00         NOP                     
7880: 08 08 1C   LD      ($1C08),SP      
7883: 14         INC     D               
7884: 3E 22      LD      A,$22           
7886: 7F         LD      A,A             
7887: 41         LD      B,C             
7888: FF         RST     0X38            
7889: 80         ADD     A,B             
788A: FF         RST     0X38            
788B: E3         ???                     
788C: 3E 22      LD      A,$22           
788E: 3E 3E      LD      A,$3E           
7890: 00         NOP                     
7891: 00         NOP                     
7892: 00         NOP                     
7893: 00         NOP                     
7894: 00         NOP                     
7895: 00         NOP                     
7896: 00         NOP                     
7897: 00         NOP                     
7898: 00         NOP                     
7899: 00         NOP                     
789A: 00         NOP                     
789B: 00         NOP                     
789C: 00         NOP                     
789D: 00         NOP                     
789E: 00         NOP                     
789F: 00         NOP                     
78A0: FF         RST     0X38            
78A1: FF         RST     0X38            
78A2: 80         ADD     A,B             
78A3: 80         ADD     A,B             
78A4: 80         ADD     A,B             
78A5: 80         ADD     A,B             
78A6: 80         ADD     A,B             
78A7: 80         ADD     A,B             
78A8: 80         ADD     A,B             
78A9: 80         ADD     A,B             
78AA: 80         ADD     A,B             
78AB: 80         ADD     A,B             
78AC: 80         ADD     A,B             
78AD: 80         ADD     A,B             
78AE: 80         ADD     A,B             
78AF: 80         ADD     A,B             
78B0: FF         RST     0X38            
78B1: FF         RST     0X38            
78B2: 80         ADD     A,B             
78B3: 80         ADD     A,B             
78B4: 80         ADD     A,B             
78B5: 92         SUB     D               
78B6: A4         AND     H               
78B7: 80         ADD     A,B             
78B8: 80         ADD     A,B             
78B9: 80         ADD     A,B             
78BA: 80         ADD     A,B             
78BB: 92         SUB     D               
78BC: A4         AND     H               
78BD: 80         ADD     A,B             
78BE: 80         ADD     A,B             
78BF: 80         ADD     A,B             
78C0: FE 00      CP      $00             
78C2: BF         CP      A               
78C3: 00         NOP                     
78C4: F7         RST     0X30            
78C5: 00         NOP                     
78C6: FE 00      CP      $00             
78C8: BF         CP      A               
78C9: 00         NOP                     
78CA: F7         RST     0X30            
78CB: 00         NOP                     
78CC: FE 00      CP      $00             
78CE: BF         CP      A               
78CF: 00         NOP                     
78D0: FF         RST     0X38            
78D1: FF         RST     0X38            
78D2: 80         ADD     A,B             
78D3: 80         ADD     A,B             
78D4: 80         ADD     A,B             
78D5: 8C         ADC     A,H             
78D6: 80         ADD     A,B             
78D7: 96         SUB     (HL)            
78D8: 80         ADD     A,B             
78D9: A6         AND     (HL)            
78DA: 84         ADD     A,H             
78DB: AA         XOR     D               
78DC: 84         ADD     A,H             
78DD: 88         ADC     A,B             
78DE: 80         ADD     A,B             
78DF: 80         ADD     A,B             
78E0: FF         RST     0X38            
78E1: FF         RST     0X38            
78E2: 80         ADD     A,B             
78E3: 80         ADD     A,B             
78E4: 80         ADD     A,B             
78E5: 9C         SBC     H               
78E6: 80         ADD     A,B             
78E7: 94         SUB     H               
78E8: A2         AND     D               
78E9: 94         SUB     H               
78EA: 9C         SBC     H               
78EB: A2         AND     D               
78EC: 80         ADD     A,B             
78ED: BE         CP      (HL)            
78EE: 80         ADD     A,B             
78EF: 80         ADD     A,B             
78F0: FF         RST     0X38            
78F1: FF         RST     0X38            
78F2: 80         ADD     A,B             
78F3: 80         ADD     A,B             
78F4: 80         ADD     A,B             
78F5: BE         CP      (HL)            
78F6: 9C         SBC     H               
78F7: A2         AND     D               
78F8: 80         ADD     A,B             
78F9: BE         CP      (HL)            
78FA: 88         ADC     A,B             
78FB: AA         XOR     D               
78FC: 80         ADD     A,B             
78FD: BE         CP      (HL)            
78FE: 80         ADD     A,B             
78FF: 80         ADD     A,B             
7900: FF         RST     0X38            
7901: FF         RST     0X38            
7902: 80         ADD     A,B             
7903: 80         ADD     A,B             
7904: 80         ADD     A,B             
7905: 83         ADD     A,E             
7906: 83         ADD     A,E             
7907: 8C         ADC     A,H             
7908: 8D         ADC     A,L             
7909: 92         SUB     D               
790A: 98         SBC     B               
790B: A7         AND     A               
790C: 9C         SBC     H               
790D: A3         AND     E               
790E: 9F         SBC     A               
790F: A0         AND     B               
7910: FF         RST     0X38            
7911: FF         RST     0X38            
7912: 80         ADD     A,B             
7913: 80         ADD     A,B             
7914: 80         ADD     A,B             
7915: E0 E0      LDFF00  ($E0),A         
7917: 98         SBC     B               
7918: D8         RET     C               
7919: A4         AND     H               
791A: 8C         ADC     A,H             
791B: F2         ???                     
791C: 9C         SBC     H               
791D: E2         LDFF00  (C),A           
791E: FC         ???                     
791F: 82         ADD     A,D             
7920: FF         RST     0X38            
7921: FF         RST     0X38            
7922: A0         AND     B               
7923: 80         ADD     A,B             
7924: 84         ADD     A,H             
7925: 80         ADD     A,B             
7926: 80         ADD     A,B             
7927: 80         ADD     A,B             
7928: B9         CP      C               
7929: 84         ADD     A,H             
792A: FC         ???                     
792B: 82         ADD     A,D             
792C: F4         ???                     
792D: 82         ADD     A,D             
792E: DC 82 FF   CALL    C,$FF82         
7931: FF         RST     0X38            
7932: 82         ADD     A,D             
7933: 80         ADD     A,B             
7934: 90         SUB     B               
7935: 80         ADD     A,B             
7936: 80         ADD     A,B             
7937: 80         ADD     A,B             
7938: CE 90      ADC     $90             
793A: 9F         SBC     A               
793B: A0         AND     B               
793C: 97         SUB     A               
793D: A0         AND     B               
793E: 9D         SBC     L               
793F: A0         AND     B               
7940: FF         RST     0X38            
7941: FF         RST     0X38            
7942: C0         RET     NZ              
7943: A0         AND     B               
7944: C0         RET     NZ              
7945: AF         XOR     A               
7946: C7         RST     0X00            
7947: A8         XOR     B               
7948: C7         RST     0X00            
7949: A8         XOR     B               
794A: C4 AB C0   CALL    NZ,$C0AB        
794D: AE         XOR     (HL)            
794E: C0         RET     NZ              
794F: AA         XOR     D               
7950: FF         RST     0X38            
7951: FF         RST     0X38            
7952: 80         ADD     A,B             
7953: 80         ADD     A,B             
7954: 80         ADD     A,B             
7955: FF         RST     0X38            
7956: FF         RST     0X38            
7957: 80         ADD     A,B             
7958: 80         ADD     A,B             
7959: FF         RST     0X38            
795A: 80         ADD     A,B             
795B: 80         ADD     A,B             
795C: 80         ADD     A,B             
795D: 80         ADD     A,B             
795E: 80         ADD     A,B             
795F: 80         ADD     A,B             
7960: FF         RST     0X38            
7961: FF         RST     0X38            
7962: 80         ADD     A,B             
7963: 80         ADD     A,B             
7964: 80         ADD     A,B             
7965: FE BC      CP      $BC             
7967: C2 BC C2   JP      NZ,$C2BC        
796A: 84         ADD     A,H             
796B: FA 80 CE   LD      A,($CE80)       
796E: 80         ADD     A,B             
796F: CA FF FF   JP      Z,$FFFF         
7972: FC         ???                     
7973: 82         ADD     A,D             
7974: 84         ADD     A,H             
7975: FB         EI                      
7976: 86         ADD     A,(HL)          
7977: 89         ADC     A,C             
7978: 86         ADD     A,(HL)          
7979: 89         ADC     A,C             
797A: 86         ADD     A,(HL)          
797B: 89         ADC     A,C             
797C: 86         ADD     A,(HL)          
797D: 89         ADC     A,C             
797E: 86         ADD     A,(HL)          
797F: 89         ADC     A,C             
7980: FF         RST     0X38            
7981: FF         RST     0X38            
7982: C1         POP     BC              
7983: AA         XOR     D               
7984: C1         POP     BC              
7985: AA         XOR     D               
7986: C1         POP     BC              
7987: AA         XOR     D               
7988: C0         RET     NZ              
7989: AB         XOR     E               
798A: C0         RET     NZ              
798B: A8         XOR     B               
798C: C0         RET     NZ              
798D: AF         XOR     A               
798E: C0         RET     NZ              
798F: A0         AND     B               
7990: FF         RST     0X38            
7991: FF         RST     0X38            
7992: FF         RST     0X38            
7993: 80         ADD     A,B             
7994: E3         ???                     
7995: 9C         SBC     H               
7996: E3         ???                     
7997: 9C         SBC     H               
7998: 80         ADD     A,B             
7999: FF         RST     0X38            
799A: 80         ADD     A,B             
799B: 80         ADD     A,B             
799C: 80         ADD     A,B             
799D: E3         ???                     
799E: 80         ADD     A,B             
799F: BE         CP      (HL)            
79A0: FF         RST     0X38            
79A1: FF         RST     0X38            
79A2: F0 8A      LD      A,($8A)         
79A4: F0 8A      LD      A,($8A)         
79A6: F0 8A      LD      A,($8A)         
79A8: 80         ADD     A,B             
79A9: FA 80 82   LD      A,($8280)       
79AC: 80         ADD     A,B             
79AD: FE 80      CP      $80             
79AF: 80         ADD     A,B             
79B0: FF         RST     0X38            
79B1: FF         RST     0X38            
79B2: 86         ADD     A,(HL)          
79B3: 89         ADC     A,C             
79B4: 86         ADD     A,(HL)          
79B5: 89         ADC     A,C             
79B6: 86         ADD     A,(HL)          
79B7: 89         ADC     A,C             
79B8: 86         ADD     A,(HL)          
79B9: 89         ADC     A,C             
79BA: 86         ADD     A,(HL)          
79BB: 89         ADC     A,C             
79BC: 86         ADD     A,(HL)          
79BD: 89         ADC     A,C             
79BE: 86         ADD     A,(HL)          
79BF: 89         ADC     A,C             
79C0: FF         RST     0X38            
79C1: FF         RST     0X38            
79C2: 80         ADD     A,B             
79C3: 80         ADD     A,B             
79C4: 80         ADD     A,B             
79C5: 8F         ADC     A,A             
79C6: 8F         ADC     A,A             
79C7: 90         SUB     B               
79C8: 8F         ADC     A,A             
79C9: 90         SUB     B               
79CA: 8F         ADC     A,A             
79CB: 90         SUB     B               
79CC: AF         XOR     A               
79CD: 90         SUB     B               
79CE: 8F         ADC     A,A             
79CF: 90         SUB     B               
79D0: FF         RST     0X38            
79D1: FF         RST     0X38            
79D2: 80         ADD     A,B             
79D3: 80         ADD     A,B             
79D4: 80         ADD     A,B             
79D5: F8 F8      LDHL    SP,$F8          
79D7: 84         ADD     A,H             
79D8: F8 84      LDHL    SP,$84          
79DA: F8 84      LDHL    SP,$84          
79DC: FA 84 F8   LD      A,($F884)       
79DF: 84         ADD     A,H             
79E0: FF         RST     0X38            
79E1: FF         RST     0X38            
79E2: 80         ADD     A,B             
79E3: 9F         SBC     A               
79E4: 80         ADD     A,B             
79E5: F1         POP     AF              
79E6: 80         ADD     A,B             
79E7: D1         POP     DE              
79E8: 80         ADD     A,B             
79E9: D1         POP     DE              
79EA: 80         ADD     A,B             
79EB: DF         RST     0X18            
79EC: 8E         ADC     A,(HL)          
79ED: D5         PUSH    DE              
79EE: 80         ADD     A,B             
79EF: DF         RST     0X18            
79F0: FF         RST     0X38            
79F1: FF         RST     0X38            
79F2: 80         ADD     A,B             
79F3: 80         ADD     A,B             
79F4: 80         ADD     A,B             
79F5: E0 80      LDFF00  ($80),A         
79F7: BE         CP      (HL)            
79F8: 80         ADD     A,B             
79F9: BE         CP      (HL)            
79FA: 9C         SBC     H               
79FB: A2         AND     D               
79FC: 9C         SBC     H               
79FD: A2         AND     D               
79FE: 9C         SBC     H               
79FF: A2         AND     D               
7A00: FF         RST     0X38            
7A01: FF         RST     0X38            
7A02: 87         ADD     A,A             
7A03: B8         CP      B               
7A04: 80         ADD     A,B             
7A05: 9F         SBC     A               
7A06: 94         SUB     H               
7A07: 8B         ADC     A,E             
7A08: A3         AND     E               
7A09: 90         SUB     B               
7A0A: A0         AND     B               
7A0B: 9E         SBC     (HL)            
7A0C: 9C         SBC     H               
7A0D: 83         ADD     A,E             
7A0E: 83         ADD     A,E             
7A0F: 80         ADD     A,B             
7A10: FF         RST     0X38            
7A11: FF         RST     0X38            
7A12: F0 8E      LD      A,($8E)         
7A14: 80         ADD     A,B             
7A15: FC         ???                     
7A16: 94         SUB     H               
7A17: E8 E2      ADD     SP,$E2          
7A19: 84         ADD     A,H             
7A1A: 82         ADD     A,D             
7A1B: BC         CP      H               
7A1C: 9C         SBC     H               
7A1D: E0 E0      LDFF00  ($E0),A         
7A1F: 80         ADD     A,B             
7A20: FF         RST     0X38            
7A21: FF         RST     0X38            
7A22: A2         AND     D               
7A23: 80         ADD     A,B             
7A24: 88         ADC     A,B             
7A25: 80         ADD     A,B             
7A26: 80         ADD     A,B             
7A27: 80         ADD     A,B             
7A28: 9E         SBC     (HL)            
7A29: 80         ADD     A,B             
7A2A: FB         EI                      
7A2B: 80         ADD     A,B             
7A2C: DE 80      SBC     $80             
7A2E: FF         RST     0X38            
7A2F: 80         ADD     A,B             
7A30: FF         RST     0X38            
7A31: FF         RST     0X38            
7A32: 82         ADD     A,D             
7A33: 80         ADD     A,B             
7A34: A0         AND     B               
7A35: 80         ADD     A,B             
7A36: 84         ADD     A,H             
7A37: 80         ADD     A,B             
7A38: F1         POP     AF              
7A39: 80         ADD     A,B             
7A3A: DE 80      SBC     $80             
7A3C: F7         RST     0X30            
7A3D: 80         ADD     A,B             
7A3E: FF         RST     0X38            
7A3F: 80         ADD     A,B             
7A40: FF         RST     0X38            
7A41: FF         RST     0X38            
7A42: C0         RET     NZ              
7A43: AA         XOR     D               
7A44: C0         RET     NZ              
7A45: AA         XOR     D               
7A46: C0         RET     NZ              
7A47: AA         XOR     D               
7A48: C0         RET     NZ              
7A49: AA         XOR     D               
7A4A: C0         RET     NZ              
7A4B: AA         XOR     D               
7A4C: C0         RET     NZ              
7A4D: AA         XOR     D               
7A4E: C0         RET     NZ              
7A4F: AA         XOR     D               
7A50: FF         RST     0X38            
7A51: FF         RST     0X38            
7A52: FF         RST     0X38            
7A53: 80         ADD     A,B             
7A54: FF         RST     0X38            
7A55: 80         ADD     A,B             
7A56: E3         ???                     
7A57: 9C         SBC     H               
7A58: E3         ???                     
7A59: 9C         SBC     H               
7A5A: 80         ADD     A,B             
7A5B: FF         RST     0X38            
7A5C: 80         ADD     A,B             
7A5D: 80         ADD     A,B             
7A5E: 80         ADD     A,B             
7A5F: 80         ADD     A,B             
7A60: FF         RST     0X38            
7A61: FF         RST     0X38            
7A62: 80         ADD     A,B             
7A63: CA 80 CA   JP      Z,$CA80         
7A66: 80         ADD     A,B             
7A67: CA 80 CA   JP      Z,$CA80         
7A6A: 80         ADD     A,B             
7A6B: CA 80 8A   JP      Z,$8A80         
7A6E: 80         ADD     A,B             
7A6F: 8A         ADC     A,D             
7A70: FF         RST     0X38            
7A71: FF         RST     0X38            
7A72: 86         ADD     A,(HL)          
7A73: 89         ADC     A,C             
7A74: 86         ADD     A,(HL)          
7A75: 89         ADC     A,C             
7A76: 86         ADD     A,(HL)          
7A77: 89         ADC     A,C             
7A78: 86         ADD     A,(HL)          
7A79: 89         ADC     A,C             
7A7A: 86         ADD     A,(HL)          
7A7B: 89         ADC     A,C             
7A7C: 86         ADD     A,(HL)          
7A7D: 89         ADC     A,C             
7A7E: 86         ADD     A,(HL)          
7A7F: 89         ADC     A,C             
7A80: FF         RST     0X38            
7A81: FF         RST     0X38            
7A82: C0         RET     NZ              
7A83: A0         AND     B               
7A84: C0         RET     NZ              
7A85: A0         AND     B               
7A86: C0         RET     NZ              
7A87: A0         AND     B               
7A88: C0         RET     NZ              
7A89: BF         CP      A               
7A8A: FF         RST     0X38            
7A8B: 80         ADD     A,B             
7A8C: 80         ADD     A,B             
7A8D: FF         RST     0X38            
7A8E: 80         ADD     A,B             
7A8F: 80         ADD     A,B             
7A90: FF         RST     0X38            
7A91: FF         RST     0X38            
7A92: 9C         SBC     H               
7A93: A2         AND     D               
7A94: 9C         SBC     H               
7A95: A2         AND     D               
7A96: 80         ADD     A,B             
7A97: BE         CP      (HL)            
7A98: 80         ADD     A,B             
7A99: E3         ???                     
7A9A: C1         POP     BC              
7A9B: A2         AND     D               
7A9C: 80         ADD     A,B             
7A9D: E3         ???                     
7A9E: 80         ADD     A,B             
7A9F: 80         ADD     A,B             
7AA0: FF         RST     0X38            
7AA1: FF         RST     0X38            
7AA2: 80         ADD     A,B             
7AA3: 80         ADD     A,B             
7AA4: 80         ADD     A,B             
7AA5: 80         ADD     A,B             
7AA6: 80         ADD     A,B             
7AA7: 80         ADD     A,B             
7AA8: 80         ADD     A,B             
7AA9: FF         RST     0X38            
7AAA: FF         RST     0X38            
7AAB: 80         ADD     A,B             
7AAC: 80         ADD     A,B             
7AAD: FF         RST     0X38            
7AAE: 80         ADD     A,B             
7AAF: 80         ADD     A,B             
7AB0: FF         RST     0X38            
7AB1: FF         RST     0X38            
7AB2: 86         ADD     A,(HL)          
7AB3: 89         ADC     A,C             
7AB4: 86         ADD     A,(HL)          
7AB5: C9         RET                     
7AB6: 86         ADD     A,(HL)          
7AB7: F9         LD      SP,HL           
7AB8: FE 81      CP      $81             
7ABA: 86         ADD     A,(HL)          
7ABB: F9         LD      SP,HL           
7ABC: 86         ADD     A,(HL)          
7ABD: C9         RET                     
7ABE: 86         ADD     A,(HL)          
7ABF: 89         ADC     A,C             
7AC0: FF         RST     0X38            
7AC1: FF         RST     0X38            
7AC2: AF         XOR     A               
7AC3: 90         SUB     B               
7AC4: 80         ADD     A,B             
7AC5: 9F         SBC     A               
7AC6: A4         AND     H               
7AC7: 91         SUB     C               
7AC8: 80         ADD     A,B             
7AC9: 91         SUB     C               
7ACA: A0         AND     B               
7ACB: 9F         SBC     A               
7ACC: 95         SUB     L               
7ACD: 80         ADD     A,B             
7ACE: 80         ADD     A,B             
7ACF: 80         ADD     A,B             
7AD0: FF         RST     0X38            
7AD1: FF         RST     0X38            
7AD2: FA 84 80   LD      A,($8084)       
7AD5: FC         ???                     
7AD6: 92         SUB     D               
7AD7: C4 80 C4   CALL    NZ,$C480        
7ADA: 82         ADD     A,D             
7ADB: FC         ???                     
7ADC: D4 80 80   CALL    NC,$8080        
7ADF: 80         ADD     A,B             
7AE0: FF         RST     0X38            
7AE1: FF         RST     0X38            
7AE2: 80         ADD     A,B             
7AE3: C0         RET     NZ              
7AE4: 80         ADD     A,B             
7AE5: FF         RST     0X38            
7AE6: BF         CP      A               
7AE7: C0         RET     NZ              
7AE8: 80         ADD     A,B             
7AE9: FF         RST     0X38            
7AEA: FF         RST     0X38            
7AEB: 80         ADD     A,B             
7AEC: 80         ADD     A,B             
7AED: FF         RST     0X38            
7AEE: 80         ADD     A,B             
7AEF: 80         ADD     A,B             
7AF0: FF         RST     0X38            
7AF1: FF         RST     0X38            
7AF2: 9C         SBC     H               
7AF3: A2         AND     D               
7AF4: 9C         SBC     H               
7AF5: E2         LDFF00  (C),A           
7AF6: DC A2 9C   CALL    C,$9CA2         
7AF9: E2         LDFF00  (C),A           
7AFA: FC         ???                     
7AFB: 82         ADD     A,D             
7AFC: 80         ADD     A,B             
7AFD: FC         ???                     
7AFE: 80         ADD     A,B             
7AFF: 80         ADD     A,B             
7B00: FF         RST     0X38            
7B01: FF         RST     0X38            
7B02: FF         RST     0X38            
7B03: 80         ADD     A,B             
7B04: EB         ???                     
7B05: 94         SUB     H               
7B06: D1         POP     DE              
7B07: AE         XOR     (HL)            
7B08: C1         POP     BC              
7B09: BE         CP      (HL)            
7B0A: F7         RST     0X30            
7B0B: 88         ADC     A,B             
7B0C: C1         POP     BC              
7B0D: 9C         SBC     H               
7B0E: E3         ???                     
7B0F: 80         ADD     A,B             
7B10: FF         RST     0X38            
7B11: FF         RST     0X38            
7B12: 80         ADD     A,B             
7B13: 80         ADD     A,B             
7B14: 80         ADD     A,B             
7B15: 9F         SBC     A               
7B16: 80         ADD     A,B             
7B17: 90         SUB     B               
7B18: 80         ADD     A,B             
7B19: B0         OR      B               
7B1A: 80         ADD     A,B             
7B1B: BF         CP      A               
7B1C: 80         ADD     A,B             
7B1D: BF         CP      A               
7B1E: 80         ADD     A,B             
7B1F: A0         AND     B               
7B20: FF         RST     0X38            
7B21: FF         RST     0X38            
7B22: 80         ADD     A,B             
7B23: 80         ADD     A,B             
7B24: 80         ADD     A,B             
7B25: C0         RET     NZ              
7B26: 80         ADD     A,B             
7B27: CF         RST     0X08            
7B28: 80         ADD     A,B             
7B29: C8         RET     Z               
7B2A: 80         ADD     A,B             
7B2B: F8 80      LDHL    SP,$80          
7B2D: C8         RET     Z               
7B2E: 80         ADD     A,B             
7B2F: 8F         ADC     A,A             
7B30: FF         RST     0X38            
7B31: FF         RST     0X38            
7B32: 80         ADD     A,B             
7B33: 80         ADD     A,B             
7B34: 80         ADD     A,B             
7B35: 80         ADD     A,B             
7B36: 80         ADD     A,B             
7B37: FC         ???                     
7B38: 80         ADD     A,B             
7B39: 84         ADD     A,H             
7B3A: 80         ADD     A,B             
7B3B: 87         ADD     A,A             
7B3C: 80         ADD     A,B             
7B3D: 85         ADD     A,L             
7B3E: 80         ADD     A,B             
7B3F: FD         ???                     
7B40: FF         RST     0X38            
7B41: FF         RST     0X38            
7B42: 80         ADD     A,B             
7B43: 9C         SBC     H               
7B44: 84         ADD     A,H             
7B45: E3         ???                     
7B46: 80         ADD     A,B             
7B47: C1         POP     BC              
7B48: 84         ADD     A,H             
7B49: C1         POP     BC              
7B4A: 92         SUB     D               
7B4B: C1         POP     BC              
7B4C: 80         ADD     A,B             
7B4D: E3         ???                     
7B4E: 80         ADD     A,B             
7B4F: BF         CP      A               
7B50: FF         RST     0X38            
7B51: FF         RST     0X38            
7B52: 80         ADD     A,B             
7B53: 80         ADD     A,B             
7B54: 80         ADD     A,B             
7B55: 80         ADD     A,B             
7B56: 80         ADD     A,B             
7B57: 87         ADD     A,A             
7B58: 80         ADD     A,B             
7B59: 84         ADD     A,H             
7B5A: 80         ADD     A,B             
7B5B: 84         ADD     A,H             
7B5C: 80         ADD     A,B             
7B5D: DC 80 D7   CALL    C,$D780         
7B60: FF         RST     0X38            
7B61: FF         RST     0X38            
7B62: 80         ADD     A,B             
7B63: 80         ADD     A,B             
7B64: 80         ADD     A,B             
7B65: 80         ADD     A,B             
7B66: 80         ADD     A,B             
7B67: E0 80      LDFF00  ($80),A         
7B69: A0         AND     B               
7B6A: 80         ADD     A,B             
7B6B: B8         CP      B               
7B6C: 80         ADD     A,B             
7B6D: A7         AND     A               
7B6E: 80         ADD     A,B             
7B6F: E4         ???                     
7B70: FF         RST     0X38            
7B71: FF         RST     0X38            
7B72: 80         ADD     A,B             
7B73: 80         ADD     A,B             
7B74: 80         ADD     A,B             
7B75: 9E         SBC     (HL)            
7B76: 80         ADD     A,B             
7B77: A1         AND     C               
7B78: 80         ADD     A,B             
7B79: A1         AND     C               
7B7A: 80         ADD     A,B             
7B7B: A1         AND     C               
7B7C: 80         ADD     A,B             
7B7D: A1         AND     C               
7B7E: 80         ADD     A,B             
7B7F: FF         RST     0X38            
7B80: FF         RST     0X38            
7B81: FF         RST     0X38            
7B82: 80         ADD     A,B             
7B83: 80         ADD     A,B             
7B84: 80         ADD     A,B             
7B85: 8F         ADC     A,A             
7B86: 80         ADD     A,B             
7B87: 9F         SBC     A               
7B88: 80         ADD     A,B             
7B89: BF         CP      A               
7B8A: 8F         ADC     A,A             
7B8B: B0         OR      B               
7B8C: 9D         SBC     L               
7B8D: A0         AND     B               
7B8E: 9F         SBC     A               
7B8F: A0         AND     B               
7B90: FF         RST     0X38            
7B91: FF         RST     0X38            
7B92: 80         ADD     A,B             
7B93: 80         ADD     A,B             
7B94: 80         ADD     A,B             
7B95: FF         RST     0X38            
7B96: 80         ADD     A,B             
7B97: FF         RST     0X38            
7B98: 80         ADD     A,B             
7B99: FF         RST     0X38            
7B9A: EF         RST     0X28            
7B9B: 80         ADD     A,B             
7B9C: FD         ???                     
7B9D: 80         ADD     A,B             
7B9E: DF         RST     0X18            
7B9F: 80         ADD     A,B             
7BA0: FF         RST     0X38            
7BA1: FF         RST     0X38            
7BA2: 80         ADD     A,B             
7BA3: 80         ADD     A,B             
7BA4: 80         ADD     A,B             
7BA5: FC         ???                     
7BA6: 80         ADD     A,B             
7BA7: FE 80      CP      $80             
7BA9: FF         RST     0X38            
7BAA: F8 83      LDHL    SP,$83          
7BAC: FE 81      CP      $81             
7BAE: EE 81      XOR     $81             
7BB0: FF         RST     0X38            
7BB1: FF         RST     0X38            
7BB2: 8F         ADC     A,A             
7BB3: 90         SUB     B               
7BB4: 81         ADD     A,C             
7BB5: 8E         ADC     A,(HL)          
7BB6: 80         ADD     A,B             
7BB7: 81         ADD     A,C             
7BB8: 80         ADD     A,B             
7BB9: 81         ADD     A,C             
7BBA: 80         ADD     A,B             
7BBB: 81         ADD     A,C             
7BBC: 80         ADD     A,B             
7BBD: FF         RST     0X38            
7BBE: 81         ADD     A,C             
7BBF: FE FF      CP      $FF             
7BC1: FF         RST     0X38            
7BC2: FF         RST     0X38            
7BC3: 80         ADD     A,B             
7BC4: C1         POP     BC              
7BC5: BE         CP      (HL)            
7BC6: C1         POP     BC              
7BC7: BE         CP      (HL)            
7BC8: C1         POP     BC              
7BC9: BE         CP      (HL)            
7BCA: C1         POP     BC              
7BCB: BE         CP      (HL)            
7BCC: C1         POP     BC              
7BCD: BE         CP      (HL)            
7BCE: FF         RST     0X38            
7BCF: 80         ADD     A,B             
7BD0: FF         RST     0X38            
7BD1: FF         RST     0X38            
7BD2: 80         ADD     A,B             
7BD3: C1         POP     BC              
7BD4: 80         ADD     A,B             
7BD5: C1         POP     BC              
7BD6: 80         ADD     A,B             
7BD7: FF         RST     0X38            
7BD8: BE         CP      (HL)            
7BD9: C9         RET                     
7BDA: 80         ADD     A,B             
7BDB: FF         RST     0X38            
7BDC: 80         ADD     A,B             
7BDD: C1         POP     BC              
7BDE: 80         ADD     A,B             
7BDF: C1         POP     BC              
7BE0: FF         RST     0X38            
7BE1: FF         RST     0X38            
7BE2: 80         ADD     A,B             
7BE3: 80         ADD     A,B             
7BE4: 80         ADD     A,B             
7BE5: FF         RST     0X38            
7BE6: FF         RST     0X38            
7BE7: 80         ADD     A,B             
7BE8: 80         ADD     A,B             
7BE9: FF         RST     0X38            
7BEA: 80         ADD     A,B             
7BEB: 80         ADD     A,B             
7BEC: 80         ADD     A,B             
7BED: 80         ADD     A,B             
7BEE: 80         ADD     A,B             
7BEF: 80         ADD     A,B             
7BF0: FF         RST     0X38            
7BF1: FF         RST     0X38            
7BF2: 80         ADD     A,B             
7BF3: 80         ADD     A,B             
7BF4: 80         ADD     A,B             
7BF5: FE FC      CP      $FC             
7BF7: 82         ADD     A,D             
7BF8: 80         ADD     A,B             
7BF9: FE 80      CP      $80             
7BFB: 82         ADD     A,D             
7BFC: 80         ADD     A,B             
7BFD: 82         ADD     A,D             
7BFE: 80         ADD     A,B             
7BFF: 82         ADD     A,D             
7C00: FF         RST     0X38            
7C01: FF         RST     0X38            
7C02: FF         RST     0X38            
7C03: 80         ADD     A,B             
7C04: E3         ???                     
7C05: 9C         SBC     H               
7C06: C1         POP     BC              
7C07: BE         CP      (HL)            
7C08: 80         ADD     A,B             
7C09: AA         XOR     D               
7C0A: 80         ADD     A,B             
7C0B: BE         CP      (HL)            
7C0C: C1         POP     BC              
7C0D: 80         ADD     A,B             
7C0E: FF         RST     0X38            
7C0F: 80         ADD     A,B             
7C10: FF         RST     0X38            
7C11: FF         RST     0X38            
7C12: 80         ADD     A,B             
7C13: A0         AND     B               
7C14: 80         ADD     A,B             
7C15: E0 80      LDFF00  ($80),A         
7C17: BF         CP      A               
7C18: 80         ADD     A,B             
7C19: BF         CP      A               
7C1A: 80         ADD     A,B             
7C1B: 80         ADD     A,B             
7C1C: 80         ADD     A,B             
7C1D: 80         ADD     A,B             
7C1E: 80         ADD     A,B             
7C1F: FF         RST     0X38            
7C20: FF         RST     0X38            
7C21: FF         RST     0X38            
7C22: 80         ADD     A,B             
7C23: 8F         ADC     A,A             
7C24: 80         ADD     A,B             
7C25: 80         ADD     A,B             
7C26: 80         ADD     A,B             
7C27: FF         RST     0X38            
7C28: 80         ADD     A,B             
7C29: FF         RST     0X38            
7C2A: 80         ADD     A,B             
7C2B: 80         ADD     A,B             
7C2C: 80         ADD     A,B             
7C2D: 80         ADD     A,B             
7C2E: 80         ADD     A,B             
7C2F: FF         RST     0X38            
7C30: FF         RST     0X38            
7C31: FF         RST     0X38            
7C32: 80         ADD     A,B             
7C33: FE 80      CP      $80             
7C35: 82         ADD     A,D             
7C36: 80         ADD     A,B             
7C37: FC         ???                     
7C38: 80         ADD     A,B             
7C39: FC         ???                     
7C3A: 80         ADD     A,B             
7C3B: 88         ADC     A,B             
7C3C: 80         ADD     A,B             
7C3D: 88         ADC     A,B             
7C3E: 80         ADD     A,B             
7C3F: FF         RST     0X38            
7C40: FF         RST     0X38            
7C41: FF         RST     0X38            
7C42: 81         ADD     A,C             
7C43: 80         ADD     A,B             
7C44: 81         ADD     A,C             
7C45: 80         ADD     A,B             
7C46: 81         ADD     A,C             
7C47: 80         ADD     A,B             
7C48: 83         ADD     A,E             
7C49: 80         ADD     A,B             
7C4A: 83         ADD     A,E             
7C4B: 80         ADD     A,B             
7C4C: 87         ADD     A,A             
7C4D: 80         ADD     A,B             
7C4E: 80         ADD     A,B             
7C4F: FF         RST     0X38            
7C50: FF         RST     0X38            
7C51: FF         RST     0X38            
7C52: C0         RET     NZ              
7C53: B7         OR      A               
7C54: E0 97      LDFF00  ($97),A         
7C56: E0 90      LDFF00  ($90),A         
7C58: E0 90      LDFF00  ($90),A         
7C5A: F0 8F      LD      A,($8F)         
7C5C: F0 8F      LD      A,($8F)         
7C5E: 80         ADD     A,B             
7C5F: FF         RST     0X38            
7C60: FF         RST     0X38            
7C61: FF         RST     0X38            
7C62: 80         ADD     A,B             
7C63: E4         ???                     
7C64: 80         ADD     A,B             
7C65: E7         RST     0X20            
7C66: 83         ADD     A,E             
7C67: 84         ADD     A,H             
7C68: 83         ADD     A,E             
7C69: BC         CP      H               
7C6A: 83         ADD     A,E             
7C6B: FC         ???                     
7C6C: 80         ADD     A,B             
7C6D: FF         RST     0X38            
7C6E: 80         ADD     A,B             
7C6F: E7         RST     0X20            
7C70: FF         RST     0X38            
7C71: FF         RST     0X38            
7C72: FF         RST     0X38            
7C73: 80         ADD     A,B             
7C74: DD         ???                     
7C75: 80         ADD     A,B             
7C76: FF         RST     0X38            
7C77: 80         ADD     A,B             
7C78: F5         PUSH    AF              
7C79: 80         ADD     A,B             
7C7A: BF         CP      A               
7C7B: C0         RET     NZ              
7C7C: 80         ADD     A,B             
7C7D: BF         CP      A               
7C7E: 80         ADD     A,B             
7C7F: 80         ADD     A,B             
7C80: FF         RST     0X38            
7C81: FF         RST     0X38            
7C82: 9F         SBC     A               
7C83: A0         AND     B               
7C84: 9D         SBC     L               
7C85: A0         AND     B               
7C86: 97         SUB     A               
7C87: A0         AND     B               
7C88: 9F         SBC     A               
7C89: A0         AND     B               
7C8A: 9B         SBC     E               
7C8B: A0         AND     B               
7C8C: 9F         SBC     A               
7C8D: A0         AND     B               
7C8E: 9F         SBC     A               
7C8F: A0         AND     B               
7C90: FF         RST     0X38            
7C91: FF         RST     0X38            
7C92: 9F         SBC     A               
7C93: A0         AND     B               
7C94: 9F         SBC     A               
7C95: E0 9D      LDFF00  ($9D),A         
7C97: E0 BF      LDFF00  ($BF),A         
7C99: C0         RET     NZ              
7C9A: DF         RST     0X18            
7C9B: 80         ADD     A,B             
7C9C: FB         EI                      
7C9D: 80         ADD     A,B             
7C9E: FF         RST     0X38            
7C9F: 80         ADD     A,B             
7CA0: FF         RST     0X38            
7CA1: FF         RST     0X38            
7CA2: FE 81      CP      $81             
7CA4: FE 81      CP      $81             
7CA6: FA 81 FE   LD      A,($FE81)       
7CA9: 81         ADD     A,C             
7CAA: EE 81      XOR     $81             
7CAC: FC         ???                     
7CAD: 81         ADD     A,C             
7CAE: FE 81      CP      $81             
7CB0: FF         RST     0X38            
7CB1: 00         NOP                     
7CB2: FB         EI                      
7CB3: 00         NOP                     
7CB4: DF         RST     0X18            
7CB5: 00         NOP                     
7CB6: FF         RST     0X38            
7CB7: 00         NOP                     
7CB8: FF         RST     0X38            
7CB9: 00         NOP                     
7CBA: EE 01      XOR     $01             
7CBC: FC         ???                     
7CBD: 02         LD      (BC),A          
7CBE: F8 04      LDHL    SP,$04          
7CC0: FF         RST     0X38            
7CC1: 00         NOP                     
7CC2: FB         EI                      
7CC3: 00         NOP                     
7CC4: DF         RST     0X18            
7CC5: 00         NOP                     
7CC6: FF         RST     0X38            
7CC7: 00         NOP                     
7CC8: FD         ???                     
7CC9: 00         NOP                     
7CCA: 2F         CPL                     
7CCB: C0         RET     NZ              
7CCC: 1F         RRA                     
7CCD: 20 0F      JR      NZ,$7CDE        
7CCF: 10 FF      STOP    $FF             
7CD1: FF         RST     0X38            
7CD2: BE         CP      (HL)            
7CD3: C1         POP     BC              
7CD4: 80         ADD     A,B             
7CD5: FF         RST     0X38            
7CD6: 80         ADD     A,B             
7CD7: 80         ADD     A,B             
7CD8: 80         ADD     A,B             
7CD9: 80         ADD     A,B             
7CDA: 80         ADD     A,B             
7CDB: 80         ADD     A,B             
7CDC: 80         ADD     A,B             
7CDD: FF         RST     0X38            
7CDE: 80         ADD     A,B             
7CDF: 80         ADD     A,B             
7CE0: FF         RST     0X38            
7CE1: FF         RST     0X38            
7CE2: 80         ADD     A,B             
7CE3: 80         ADD     A,B             
7CE4: 80         ADD     A,B             
7CE5: 80         ADD     A,B             
7CE6: 80         ADD     A,B             
7CE7: 80         ADD     A,B             
7CE8: 80         ADD     A,B             
7CE9: 80         ADD     A,B             
7CEA: 80         ADD     A,B             
7CEB: 80         ADD     A,B             
7CEC: 80         ADD     A,B             
7CED: FF         RST     0X38            
7CEE: 80         ADD     A,B             
7CEF: 80         ADD     A,B             
7CF0: FF         RST     0X38            
7CF1: FF         RST     0X38            
7CF2: 80         ADD     A,B             
7CF3: 82         ADD     A,D             
7CF4: 80         ADD     A,B             
7CF5: 82         ADD     A,D             
7CF6: 80         ADD     A,B             
7CF7: 82         ADD     A,D             
7CF8: 80         ADD     A,B             
7CF9: 82         ADD     A,D             
7CFA: 80         ADD     A,B             
7CFB: 82         ADD     A,D             
7CFC: 80         ADD     A,B             
7CFD: FE 80      CP      $80             
7CFF: 80         ADD     A,B             
7D00: FF         RST     0X38            
7D01: FF         RST     0X38            
7D02: 80         ADD     A,B             
7D03: FF         RST     0X38            
7D04: 80         ADD     A,B             
7D05: FF         RST     0X38            
7D06: 80         ADD     A,B             
7D07: 80         ADD     A,B             
7D08: 80         ADD     A,B             
7D09: 80         ADD     A,B             
7D0A: 80         ADD     A,B             
7D0B: 80         ADD     A,B             
7D0C: 80         ADD     A,B             
7D0D: 80         ADD     A,B             
7D0E: 80         ADD     A,B             
7D0F: 80         ADD     A,B             
7D10: FF         RST     0X38            
7D11: FF         RST     0X38            
7D12: 80         ADD     A,B             
7D13: FF         RST     0X38            
7D14: 80         ADD     A,B             
7D15: FF         RST     0X38            
7D16: 8F         ADC     A,A             
7D17: 90         SUB     B               
7D18: 9F         SBC     A               
7D19: A0         AND     B               
7D1A: 9D         SBC     L               
7D1B: A0         AND     B               
7D1C: 97         SUB     A               
7D1D: A0         AND     B               
7D1E: 9F         SBC     A               
7D1F: A0         AND     B               
7D20: FF         RST     0X38            
7D21: FF         RST     0X38            
7D22: 80         ADD     A,B             
7D23: FF         RST     0X38            
7D24: 80         ADD     A,B             
7D25: FF         RST     0X38            
7D26: FF         RST     0X38            
7D27: 80         ADD     A,B             
7D28: DF         RST     0X18            
7D29: 80         ADD     A,B             
7D2A: FD         ???                     
7D2B: 80         ADD     A,B             
7D2C: F7         RST     0X30            
7D2D: 80         ADD     A,B             
7D2E: FF         RST     0X38            
7D2F: 80         ADD     A,B             
7D30: FF         RST     0X38            
7D31: FF         RST     0X38            
7D32: 80         ADD     A,B             
7D33: FF         RST     0X38            
7D34: 80         ADD     A,B             
7D35: FF         RST     0X38            
7D36: F8 84      LDHL    SP,$84          
7D38: DC 82 FC   CALL    C,$FC82         
7D3B: 82         ADD     A,D             
7D3C: F4         ???                     
7D3D: 82         ADD     A,D             
7D3E: FC         ???                     
7D3F: 82         ADD     A,D             
7D40: FF         RST     0X38            
7D41: FF         RST     0X38            
7D42: 80         ADD     A,B             
7D43: F8 80      LDHL    SP,$80          
7D45: F8 80      LDHL    SP,$80          
7D47: 80         ADD     A,B             
7D48: 80         ADD     A,B             
7D49: 80         ADD     A,B             
7D4A: 80         ADD     A,B             
7D4B: 80         ADD     A,B             
7D4C: 80         ADD     A,B             
7D4D: 80         ADD     A,B             
7D4E: 80         ADD     A,B             
7D4F: 80         ADD     A,B             
7D50: FF         RST     0X38            
7D51: FF         RST     0X38            
7D52: 80         ADD     A,B             
7D53: FF         RST     0X38            
7D54: 80         ADD     A,B             
7D55: FF         RST     0X38            
7D56: 80         ADD     A,B             
7D57: FF         RST     0X38            
7D58: 80         ADD     A,B             
7D59: 80         ADD     A,B             
7D5A: 80         ADD     A,B             
7D5B: 80         ADD     A,B             
7D5C: 80         ADD     A,B             
7D5D: FF         RST     0X38            
7D5E: 80         ADD     A,B             
7D5F: FF         RST     0X38            
7D60: FF         RST     0X38            
7D61: FF         RST     0X38            
7D62: 80         ADD     A,B             
7D63: 9C         SBC     H               
7D64: 84         ADD     A,H             
7D65: E3         ???                     
7D66: 80         ADD     A,B             
7D67: E3         ???                     
7D68: 84         ADD     A,H             
7D69: C1         POP     BC              
7D6A: 92         SUB     D               
7D6B: C1         POP     BC              
7D6C: 80         ADD     A,B             
7D6D: E3         ???                     
7D6E: C1         POP     BC              
7D6F: BE         CP      (HL)            
7D70: FF         RST     0X38            
7D71: FF         RST     0X38            
7D72: FF         RST     0X38            
7D73: 80         ADD     A,B             
7D74: FD         ???                     
7D75: 80         ADD     A,B             
7D76: DF         RST     0X18            
7D77: 80         ADD     A,B             
7D78: FF         RST     0X38            
7D79: 80         ADD     A,B             
7D7A: EF         RST     0X28            
7D7B: 80         ADD     A,B             
7D7C: BD         CP      L               
7D7D: C0         RET     NZ              
7D7E: 9F         SBC     A               
7D7F: A0         AND     B               
7D80: FF         RST     0X38            
7D81: FF         RST     0X38            
7D82: 9F         SBC     A               
7D83: A0         AND     B               
7D84: 9B         SBC     E               
7D85: A0         AND     B               
7D86: 9F         SBC     A               
7D87: A0         AND     B               
7D88: 97         SUB     A               
7D89: A0         AND     B               
7D8A: 8D         ADC     A,L             
7D8B: 90         SUB     B               
7D8C: 80         ADD     A,B             
7D8D: 8F         ADC     A,A             
7D8E: 80         ADD     A,B             
7D8F: 80         ADD     A,B             
7D90: FF         RST     0X38            
7D91: FF         RST     0X38            
7D92: FF         RST     0X38            
7D93: 80         ADD     A,B             
7D94: DD         ???                     
7D95: 80         ADD     A,B             
7D96: FF         RST     0X38            
7D97: 80         ADD     A,B             
7D98: F5         PUSH    AF              
7D99: 80         ADD     A,B             
7D9A: FF         RST     0X38            
7D9B: 80         ADD     A,B             
7D9C: 80         ADD     A,B             
7D9D: FF         RST     0X38            
7D9E: 80         ADD     A,B             
7D9F: 80         ADD     A,B             
7DA0: FF         RST     0X38            
7DA1: FF         RST     0X38            
7DA2: FE 81      CP      $81             
7DA4: F6 81      OR      $81             
7DA6: FE 81      CP      $81             
7DA8: EE 81      XOR     $81             
7DAA: FC         ???                     
7DAB: 82         ADD     A,D             
7DAC: 80         ADD     A,B             
7DAD: FC         ???                     
7DAE: 80         ADD     A,B             
7DAF: 80         ADD     A,B             
7DB0: F8 04      LDHL    SP,$04          
7DB2: F8 04      LDHL    SP,$04          
7DB4: D8         RET     C               
7DB5: 06 F8      LD      B,$F8           
7DB7: 07         RLCA                    
7DB8: FC         ???                     
7DB9: 03         INC     BC              
7DBA: EE 01      XOR     $01             
7DBC: FF         RST     0X38            
7DBD: 00         NOP                     
7DBE: FD         ???                     
7DBF: 00         NOP                     
7DC0: 0F         RRCA                    
7DC1: 90         SUB     B               
7DC2: 0B         DEC     BC              
7DC3: 10 0F      STOP    $0F             
7DC5: 30 0F      JR      NC,$7DD6        
7DC7: F0 0D      LD      A,($0D)         
7DC9: E0 3F      LDFF00  ($3F),A         
7DCB: C0         RET     NZ              
7DCC: FF         RST     0X38            
7DCD: 00         NOP                     
7DCE: FF         RST     0X38            
7DCF: 00         NOP                     
7DD0: FF         RST     0X38            
7DD1: FF         RST     0X38            
7DD2: FC         ???                     
7DD3: 02         LD      (BC),A          
7DD4: DD         ???                     
7DD5: 02         LD      (BC),A          
7DD6: FC         ???                     
7DD7: 03         INC     BC              
7DD8: FC         ???                     
7DD9: 03         INC     BC              
7DDA: EE 01      XOR     $01             
7DDC: FF         RST     0X38            
7DDD: 00         NOP                     
7DDE: FF         RST     0X38            
7DDF: 00         NOP                     
7DE0: FF         RST     0X38            
7DE1: FF         RST     0X38            
7DE2: BF         CP      A               
7DE3: 00         NOP                     
7DE4: F7         RST     0X30            
7DE5: 00         NOP                     
7DE6: FE 00      CP      $00             
7DE8: BF         CP      A               
7DE9: 00         NOP                     
7DEA: F7         RST     0X30            
7DEB: 00         NOP                     
7DEC: FE 00      CP      $00             
7DEE: BF         CP      A               
7DEF: 00         NOP                     
7DF0: FF         RST     0X38            
7DF1: FF         RST     0X38            
7DF2: 5B         LD      E,E             
7DF3: 20 9F      JR      NZ,$7D94        
7DF5: 60         LD      H,B             
7DF6: 1F         RRA                     
7DF7: E0 2D      LDFF00  ($2D),A         
7DF9: C0         RET     NZ              
7DFA: 7F         LD      A,A             
7DFB: 80         ADD     A,B             
7DFC: FB         EI                      
7DFD: 00         NOP                     
7DFE: BF         CP      A               
7DFF: 00         NOP                     
7E00: F8 04      LDHL    SP,$04          
7E02: FA 04 D8   LD      A,($D804)       
7E05: 06 F8      LD      B,$F8           
7E07: 06 FC      LD      B,$FC           
7E09: 02         LD      (BC),A          
7E0A: EC         ???                     
7E0B: 02         LD      (BC),A          
7E0C: FA 04 F8   LD      A,($F804)       
7E0F: 04         INC     B               
7E10: 8F         ADC     A,A             
7E11: 90         SUB     B               
7E12: AF         XOR     A               
7E13: 90         SUB     B               
7E14: 8B         ADC     A,E             
7E15: B0         OR      B               
7E16: 8F         ADC     A,A             
7E17: B0         OR      B               
7E18: 9F         SBC     A               
7E19: A0         AND     B               
7E1A: 9D         SBC     L               
7E1B: A0         AND     B               
7E1C: AF         XOR     A               
7E1D: 90         SUB     B               
7E1E: 8F         ADC     A,A             
7E1F: 90         SUB     B               
7E20: BF         CP      A               
7E21: 00         NOP                     
7E22: FB         EI                      
7E23: 00         NOP                     
7E24: FF         RST     0X38            
7E25: 00         NOP                     
7E26: DF         RST     0X18            
7E27: 00         NOP                     
7E28: FF         RST     0X38            
7E29: 00         NOP                     
7E2A: 38 C7      JR      C,$7DF3         
7E2C: 44         LD      B,H             
7E2D: 38 00      JR      C,$7E2F         
7E2F: 00         NOP                     
7E30: FF         RST     0X38            
7E31: FF         RST     0X38            
7E32: 00         NOP                     
7E33: 00         NOP                     
7E34: 88         ADC     A,B             
7E35: 70         LD      (HL),B          
7E36: 00         NOP                     
7E37: FF         RST     0X38            
7E38: 00         NOP                     
7E39: FF         RST     0X38            
7E3A: 20 DF      JR      NZ,$7E1B        
7E3C: FD         ???                     
7E3D: 00         NOP                     
7E3E: BF         CP      A               
7E3F: 00         NOP                     
7E40: FF         RST     0X38            
7E41: FF         RST     0X38            
7E42: A4         AND     H               
7E43: 80         ADD     A,B             
7E44: AC         XOR     H               
7E45: 80         ADD     A,B             
7E46: C9         RET                     
7E47: 80         ADD     A,B             
7E48: 91         SUB     C               
7E49: 80         ADD     A,B             
7E4A: 92         SUB     D               
7E4B: 80         ADD     A,B             
7E4C: B2         OR      D               
7E4D: 80         ADD     A,B             
7E4E: A6         AND     (HL)            
7E4F: 80         ADD     A,B             
7E50: FF         RST     0X38            
7E51: FF         RST     0X38            
7E52: FF         RST     0X38            
7E53: 80         ADD     A,B             
7E54: EF         RST     0X28            
7E55: 80         ADD     A,B             
7E56: FD         ???                     
7E57: 80         ADD     A,B             
7E58: FF         RST     0X38            
7E59: 80         ADD     A,B             
7E5A: DF         RST     0X18            
7E5B: 80         ADD     A,B             
7E5C: FB         EI                      
7E5D: 80         ADD     A,B             
7E5E: FF         RST     0X38            
7E5F: 80         ADD     A,B             
7E60: FF         RST     0X38            
7E61: FF         RST     0X38            
7E62: 80         ADD     A,B             
7E63: 8F         ADC     A,A             
7E64: 8F         ADC     A,A             
7E65: 90         SUB     B               
7E66: 9B         SBC     E               
7E67: A0         AND     B               
7E68: 9E         SBC     (HL)            
7E69: A0         AND     B               
7E6A: 97         SUB     A               
7E6B: A0         AND     B               
7E6C: 8D         ADC     A,L             
7E6D: 90         SUB     B               
7E6E: 80         ADD     A,B             
7E6F: 8F         ADC     A,A             
7E70: FF         RST     0X38            
7E71: FF         RST     0X38            
7E72: 80         ADD     A,B             
7E73: F8 F0      LDHL    SP,$F0          
7E75: 8C         ADC     A,H             
7E76: F8 86      LDHL    SP,$86          
7E78: F4         ???                     
7E79: 82         ADD     A,D             
7E7A: DC 82 F8   CALL    C,$F882         
7E7D: 84         ADD     A,H             
7E7E: 80         ADD     A,B             
7E7F: F8 FF      LDHL    SP,$FF          
7E81: FF         RST     0X38            
7E82: 86         ADD     A,(HL)          
7E83: 89         ADC     A,C             
7E84: 86         ADD     A,(HL)          
7E85: 89         ADC     A,C             
7E86: 86         ADD     A,(HL)          
7E87: 89         ADC     A,C             
7E88: 86         ADD     A,(HL)          
7E89: 89         ADC     A,C             
7E8A: 86         ADD     A,(HL)          
7E8B: 89         ADC     A,C             
7E8C: 86         ADD     A,(HL)          
7E8D: 89         ADC     A,C             
7E8E: 86         ADD     A,(HL)          
7E8F: 89         ADC     A,C             
7E90: FF         RST     0X38            
7E91: FF         RST     0X38            
7E92: 80         ADD     A,B             
7E93: 80         ADD     A,B             
7E94: 80         ADD     A,B             
7E95: 80         ADD     A,B             
7E96: 80         ADD     A,B             
7E97: 9F         SBC     A               
7E98: 9F         SBC     A               
7E99: A0         AND     B               
7E9A: 98         SBC     B               
7E9B: A7         AND     A               
7E9C: 98         SBC     B               
7E9D: A4         AND     H               
7E9E: 98         SBC     B               
7E9F: A4         AND     H               
7EA0: FF         RST     0X38            
7EA1: FF         RST     0X38            
7EA2: 86         ADD     A,(HL)          
7EA3: 89         ADC     A,C             
7EA4: 86         ADD     A,(HL)          
7EA5: 89         ADC     A,C             
7EA6: 86         ADD     A,(HL)          
7EA7: F9         LD      SP,HL           
7EA8: FE 81      CP      $81             
7EAA: 80         ADD     A,B             
7EAB: FE 80      CP      $80             
7EAD: 80         ADD     A,B             
7EAE: 80         ADD     A,B             
7EAF: 80         ADD     A,B             
7EB0: FF         RST     0X38            
7EB1: FF         RST     0X38            
7EB2: 98         SBC     B               
7EB3: A4         AND     H               
7EB4: 98         SBC     B               
7EB5: E6 98      AND     $98             
7EB7: E7         RST     0X20            
7EB8: 98         SBC     B               
7EB9: E7         RST     0X20            
7EBA: DE 81      SBC     $81             
7EBC: FC         ???                     
7EBD: 81         ADD     A,C             
7EBE: EE 81      XOR     $81             
7EC0: FF         RST     0X38            
7EC1: FF         RST     0X38            
7EC2: 80         ADD     A,B             
7EC3: 80         ADD     A,B             
7EC4: 80         ADD     A,B             
7EC5: 80         ADD     A,B             
7EC6: 80         ADD     A,B             
7EC7: BE         CP      (HL)            
7EC8: 80         ADD     A,B             
7EC9: BE         CP      (HL)            
7ECA: 9C         SBC     H               
7ECB: A2         AND     D               
7ECC: 9C         SBC     H               
7ECD: A3         AND     E               
7ECE: DE A1      SBC     $A1             
7ED0: FF         RST     0X38            
7ED1: FF         RST     0X38            
7ED2: 86         ADD     A,(HL)          
7ED3: 89         ADC     A,C             
7ED4: 86         ADD     A,(HL)          
7ED5: 89         ADC     A,C             
7ED6: 86         ADD     A,(HL)          
7ED7: 89         ADC     A,C             
7ED8: 86         ADD     A,(HL)          
7ED9: 89         ADC     A,C             
7EDA: 87         ADD     A,A             
7EDB: 88         ADC     A,B             
7EDC: 86         ADD     A,(HL)          
7EDD: 89         ADC     A,C             
7EDE: 86         ADD     A,(HL)          
7EDF: 89         ADC     A,C             
7EE0: FF         RST     0X38            
7EE1: FF         RST     0X38            
7EE2: 80         ADD     A,B             
7EE3: 80         ADD     A,B             
7EE4: 80         ADD     A,B             
7EE5: 81         ADD     A,C             
7EE6: 80         ADD     A,B             
7EE7: 82         ADD     A,D             
7EE8: 80         ADD     A,B             
7EE9: 92         SUB     D               
7EEA: 92         SUB     D               
7EEB: AC         XOR     H               
7EEC: 80         ADD     A,B             
7EED: A0         AND     B               
7EEE: 85         ADD     A,L             
7EEF: 90         SUB     B               
7EF0: FF         RST     0X38            
7EF1: FF         RST     0X38            
7EF2: 80         ADD     A,B             
7EF3: 80         ADD     A,B             
7EF4: 80         ADD     A,B             
7EF5: C0         RET     NZ              
7EF6: C0         RET     NZ              
7EF7: A0         AND     B               
7EF8: C0         RET     NZ              
7EF9: A4         AND     H               
7EFA: E4         ???                     
7EFB: 9A         SBC     D               
7EFC: A4         AND     H               
7EFD: 82         ADD     A,D             
7EFE: 88         ADC     A,B             
7EFF: 84         ADD     A,H             
7F00: FF         RST     0X38            
7F01: FF         RST     0X38            
7F02: 80         ADD     A,B             
7F03: FE 80      CP      $80             
7F05: FE 80      CP      $80             
7F07: 80         ADD     A,B             
7F08: 80         ADD     A,B             
7F09: 80         ADD     A,B             
7F0A: 80         ADD     A,B             
7F0B: 80         ADD     A,B             
7F0C: 80         ADD     A,B             
7F0D: 80         ADD     A,B             
7F0E: 80         ADD     A,B             
7F0F: 80         ADD     A,B             
7F10: FF         RST     0X38            
7F11: FF         RST     0X38            
7F12: 97         SUB     A               
7F13: E0 FD      LDFF00  ($FD),A         
7F15: 80         ADD     A,B             
7F16: FF         RST     0X38            
7F17: 80         ADD     A,B             
7F18: F7         RST     0X30            
7F19: 80         ADD     A,B             
7F1A: FD         ???                     
7F1B: 80         ADD     A,B             
7F1C: D8         RET     C               
7F1D: 87         ADD     A,A             
7F1E: 80         ADD     A,B             
7F1F: F8 FF      LDHL    SP,$FF          
7F21: FF         RST     0X38            
7F22: 84         ADD     A,H             
7F23: 8A         ADC     A,D             
7F24: 84         ADD     A,H             
7F25: 8A         ADC     A,D             
7F26: 84         ADD     A,H             
7F27: 8A         ADC     A,D             
7F28: 84         ADD     A,H             
7F29: 8A         ADC     A,D             
7F2A: 84         ADD     A,H             
7F2B: 8A         ADC     A,D             
7F2C: 84         ADD     A,H             
7F2D: BB         CP      E               
7F2E: 9F         SBC     A               
7F2F: E0 FF      LDFF00  ($FF),A         
7F31: FF         RST     0X38            
7F32: 80         ADD     A,B             
7F33: 87         ADD     A,A             
7F34: 80         ADD     A,B             
7F35: 87         ADD     A,A             
7F36: 83         ADD     A,E             
7F37: 84         ADD     A,H             
7F38: 80         ADD     A,B             
7F39: 87         ADD     A,A             
7F3A: 80         ADD     A,B             
7F3B: 80         ADD     A,B             
7F3C: 80         ADD     A,B             
7F3D: 80         ADD     A,B             
7F3E: 80         ADD     A,B             
7F3F: 8E         ADC     A,(HL)          
7F40: FF         RST     0X38            
7F41: FF         RST     0X38            
7F42: 80         ADD     A,B             
7F43: FE 80      CP      $80             
7F45: FF         RST     0X38            
7F46: 81         ADD     A,C             
7F47: FE FF      CP      $FF             
7F49: 80         ADD     A,B             
7F4A: FF         RST     0X38            
7F4B: 80         ADD     A,B             
7F4C: 80         ADD     A,B             
7F4D: FF         RST     0X38            
7F4E: 80         ADD     A,B             
7F4F: FF         RST     0X38            
7F50: FF         RST     0X38            
7F51: FF         RST     0X38            
7F52: 80         ADD     A,B             
7F53: BF         CP      A               
7F54: 80         ADD     A,B             
7F55: FF         RST     0X38            
7F56: 80         ADD     A,B             
7F57: BF         CP      A               
7F58: 80         ADD     A,B             
7F59: 80         ADD     A,B             
7F5A: 80         ADD     A,B             
7F5B: 80         ADD     A,B             
7F5C: 80         ADD     A,B             
7F5D: FF         RST     0X38            
7F5E: 80         ADD     A,B             
7F5F: FF         RST     0X38            
7F60: FF         RST     0X38            
7F61: FF         RST     0X38            
7F62: 80         ADD     A,B             
7F63: FE 80      CP      $80             
7F65: FE 80      CP      $80             
7F67: FE 80      CP      $80             
7F69: 82         ADD     A,D             
7F6A: 80         ADD     A,B             
7F6B: 82         ADD     A,D             
7F6C: 80         ADD     A,B             
7F6D: FE 80      CP      $80             
7F6F: FE FF      CP      $FF             
7F71: FF         RST     0X38            
7F72: 80         ADD     A,B             
7F73: BF         CP      A               
7F74: 80         ADD     A,B             
7F75: FF         RST     0X38            
7F76: C0         RET     NZ              
7F77: BF         CP      A               
7F78: FF         RST     0X38            
7F79: 80         ADD     A,B             
7F7A: FF         RST     0X38            
7F7B: 80         ADD     A,B             
7F7C: 80         ADD     A,B             
7F7D: FF         RST     0X38            
7F7E: 80         ADD     A,B             
7F7F: FF         RST     0X38            
7F80: FF         RST     0X38            
7F81: FF         RST     0X38            
7F82: 80         ADD     A,B             
7F83: FF         RST     0X38            
7F84: 80         ADD     A,B             
7F85: FF         RST     0X38            
7F86: 80         ADD     A,B             
7F87: FF         RST     0X38            
7F88: FF         RST     0X38            
7F89: 80         ADD     A,B             
7F8A: FF         RST     0X38            
7F8B: 80         ADD     A,B             
7F8C: 80         ADD     A,B             
7F8D: FF         RST     0X38            
7F8E: 80         ADD     A,B             
7F8F: FF         RST     0X38            
7F90: FF         RST     0X38            
7F91: FF         RST     0X38            
7F92: 80         ADD     A,B             
7F93: FE 80      CP      $80             
7F95: FF         RST     0X38            
7F96: 80         ADD     A,B             
7F97: FE FC      CP      $FC             
7F99: 82         ADD     A,D             
7F9A: FC         ???                     
7F9B: 82         ADD     A,D             
7F9C: 80         ADD     A,B             
7F9D: FF         RST     0X38            
7F9E: 80         ADD     A,B             
7F9F: FF         RST     0X38            
7FA0: FF         RST     0X38            
7FA1: FF         RST     0X38            
7FA2: 80         ADD     A,B             
7FA3: 80         ADD     A,B             
7FA4: 80         ADD     A,B             
7FA5: 9F         SBC     A               
7FA6: 80         ADD     A,B             
7FA7: A0         AND     B               
7FA8: 80         ADD     A,B             
7FA9: A0         AND     B               
7FAA: 80         ADD     A,B             
7FAB: A0         AND     B               
7FAC: 80         ADD     A,B             
7FAD: A0         AND     B               
7FAE: 80         ADD     A,B             
7FAF: FF         RST     0X38            
7FB0: FF         RST     0X38            
7FB1: FF         RST     0X38            
7FB2: 80         ADD     A,B             
7FB3: 80         ADD     A,B             
7FB4: 80         ADD     A,B             
7FB5: FF         RST     0X38            
7FB6: 80         ADD     A,B             
7FB7: 80         ADD     A,B             
7FB8: 80         ADD     A,B             
7FB9: 80         ADD     A,B             
7FBA: 80         ADD     A,B             
7FBB: 80         ADD     A,B             
7FBC: 80         ADD     A,B             
7FBD: 80         ADD     A,B             
7FBE: 80         ADD     A,B             
7FBF: FF         RST     0X38            
7FC0: FF         RST     0X38            
7FC1: FF         RST     0X38            
7FC2: 80         ADD     A,B             
7FC3: 80         ADD     A,B             
7FC4: 80         ADD     A,B             
7FC5: FC         ???                     
7FC6: 80         ADD     A,B             
7FC7: 82         ADD     A,D             
7FC8: 80         ADD     A,B             
7FC9: 82         ADD     A,D             
7FCA: 80         ADD     A,B             
7FCB: 82         ADD     A,D             
7FCC: 80         ADD     A,B             
7FCD: 82         ADD     A,D             
7FCE: 80         ADD     A,B             
7FCF: FE FF      CP      $FF             
7FD1: FF         RST     0X38            
7FD2: 80         ADD     A,B             
7FD3: 80         ADD     A,B             
7FD4: 80         ADD     A,B             
7FD5: 80         ADD     A,B             
7FD6: 80         ADD     A,B             
7FD7: 80         ADD     A,B             
7FD8: 80         ADD     A,B             
7FD9: 80         ADD     A,B             
7FDA: 80         ADD     A,B             
7FDB: 80         ADD     A,B             
7FDC: 80         ADD     A,B             
7FDD: FF         RST     0X38            
7FDE: FF         RST     0X38            
7FDF: 80         ADD     A,B             
7FE0: FF         RST     0X38            
7FE1: FF         RST     0X38            
7FE2: 82         ADD     A,D             
7FE3: 8C         ADC     A,H             
7FE4: 83         ADD     A,E             
7FE5: 8A         ADC     A,D             
7FE6: 92         SUB     D               
7FE7: 8A         ADC     A,D             
7FE8: A0         AND     B               
7FE9: 90         SUB     B               
7FEA: A0         AND     B               
7FEB: 9E         SBC     (HL)            
7FEC: 9C         SBC     H               
7FED: 83         ADD     A,E             
7FEE: 83         ADD     A,E             
7FEF: 80         ADD     A,B             
7FF0: FF         RST     0X38            
7FF1: FF         RST     0X38            
7FF2: A0         AND     B               
7FF3: 98         SBC     B               
7FF4: E0 A8      LDFF00  ($A8),A         
7FF6: A4         AND     H               
7FF7: A8         XOR     B               
7FF8: 82         ADD     A,D             
7FF9: 84         ADD     A,H             
7FFA: 82         ADD     A,D             
7FFB: BC         CP      H               
7FFC: 9C         SBC     H               
7FFD: E0 E0      LDFF00  ($E0),A         
7FFF: 80         ADD     A,B             
