; Xevious CPU #2

;##$ CPU Z80 as Z80
;##$OriginalBinary xvi_5.3f+xvi_6.3j

0000: C3 65 01   JP    $0165         ; 
0003: 12         LD    (DE),A        ; 
0004: 42         LD    B,D           ; 
0005: 21 00 00   LD    HL,$0000      ; 
0008: 87         ADD   A,A           ; 
0009: D2 58 00   JP    NC,$0058      ; 
000C: 25         DEC   H             ; 
000D: C3 58 00   JP    $0058         ; 
0010: A7         AND   A             ; 
0011: F2 58 00   JP    P,$0058       ; 
0014: 25         DEC   H             ; 
0015: C3 58 00   JP    $0058         ; 
0018: A7         AND   A             ; 
0019: F0         RET   P             ; 
001A: ED 44      NEG                 ; 
001C: C9         RET                 ; 
001D: 33         INC   SP            ; 
001E: 33         INC   SP            ; 
001F: C9         RET                 ; 
0020: EB         EX    DE,HL         ; 
0021: CD 05 00   CALL  $0005         ; 
0024: 29         ADD   HL,HL         ; 
0025: 19         ADD   HL,DE         ; 
0026: C9         RET                 ; 
0027: FF         RST   $38           ; 
0028: EB         EX    DE,HL         ; 
0029: CD 05 00   CALL  $0005         ; 
002C: 29         ADD   HL,HL         ; 
002D: 29         ADD   HL,HL         ; 
002E: 19         ADD   HL,DE         ; 
002F: C9         RET                 ; 
0030: E1         POP   HL            ; 
0031: DD 75 00   LD    (IX+$00),L    ; 
0034: DD 74 01   LD    (IX+$01),H    ; 
0037: C9         RET                 ; 
0038: 3A 03 80   LD    A,($8003)     ; 
003B: A7         AND   A             ; 
003C: 3E 03      LD    A,$03         ; 
003E: 28 04      JR    Z,$44         ; 
0040: 25         DEC   H             ; 
0041: 25         DEC   H             ; 
0042: 3E 19      LD    A,$19         ; 
0044: 85         ADD   A,L           ; 
0045: E6 3F      AND   $3F           ; 
0047: 6F         LD    L,A           ; 
0048: 3E 03      LD    A,$03         ; 
004A: 84         ADD   A,H           ; 
004B: 0F         RRCA                ; 
004C: 0F         RRCA                ; 
004D: 67         LD    H,A           ; 
004E: E6 C0      AND   $C0           ; 
0050: B5         OR    L             ; 
0051: 6F         LD    L,A           ; 
0052: 7C         LD    A,H           ; 
0053: E6 07      AND   $07           ; 
0055: 81         ADD   A,C           ; 
0056: 67         LD    H,A           ; 
0057: C9         RET                 ; 
0058: 85         ADD   A,L           ; 
0059: 6F         LD    L,A           ; 
005A: D0         RET   NC            ; 
005B: 24         INC   H             ; 
005C: C9         RET                 ; 
005D: 0E 12      LD    C,$12         ; 
005F: 1B         DEC   DE            ; 
0060: 1B         DEC   DE            ; 
0061: 22 24 16   LD    ($1624),HL    ; 
0064: 18 1E      JR    $84           ; 
0066: ED 45      RETN                ; 
0068: 11 17 93   LD    DE,$9317      ; 
006B: 21 16 93   LD    HL,$9316      ; 
006E: 01 13 00   LD    BC,$0013      ; 
0071: ED B8      LDDR                ; 
0073: DD 21 60 01 LD    IX,$0160      ; 
0077: 1E 00      LD    E,$00         ; 
0079: 01 04 05   LD    BC,$0504      ; 
007C: DD 7E 00   LD    A,(IX+$00)    ; 
007F: DD 23      INC   IX            ; 
0081: 6F         LD    L,A           ; 
0082: 26 20      LD    H,$20         ; 
0084: 7E         LD    A,(HL)        ; 
0085: 7B         LD    A,E           ; 
0086: 81         ADD   A,C           ; 
0087: 5F         LD    E,A           ; 
0088: 7E         LD    A,(HL)        ; 
0089: 12         LD    (DE),A        ; 
008A: 10 F0      DJNZ  $7C           ; 
008C: 06 05      LD    B,$05         ; 
008E: 21 04 93   LD    HL,$9304      ; 
0091: 7E         LD    A,(HL)        ; 
0092: 2C         INC   L             ; 
0093: B6         OR    (HL)          ; 
0094: 2C         INC   L             ; 
0095: 2F         CPL                 ; 
0096: A6         AND   (HL)          ; 
0097: 2C         INC   L             ; 
0098: A6         AND   (HL)          ; 
0099: 2C         INC   L             ; 
009A: E6 0F      AND   $0F           ; 
009C: 20 04      JR    NZ,$A2        ; 
009E: 10 F1      DJNZ  $91           ; 
00A0: 18 40      JR    $E2           ; 
00A2: 05         DEC   B             ; 
00A3: 28 4F      JR    Z,$F4         ; 
00A5: 05         DEC   B             ; 
00A6: CB 20      SLA   B             ; 
00A8: CB 20      SLA   B             ; 
00AA: 0F         RRCA                ; 
00AB: 38 03      JR    C,$B0         ; 
00AD: 04         INC   B             ; 
00AE: 18 FA      JR    $AA           ; 
00B0: 3A 00 93   LD    A,($9300)     ; 
00B3: CB 3F      SRL   A             ; 
00B5: 5F         LD    E,A           ; 
00B6: CB 11      RL    C             ; 
00B8: C6 01      ADD   A,$01         ; 
00BA: 6F         LD    L,A           ; 
00BB: 26 93      LD    H,$93         ; 
00BD: 7E         LD    A,(HL)        ; 
00BE: CB 41      BIT   0,C           ; 
00C0: 28 04      JR    Z,$C6         ; 
00C2: 07         RLCA                ; 
00C3: 07         RLCA                ; 
00C4: 07         RLCA                ; 
00C5: 07         RLCA                ; 
00C6: E6 F0      AND   $F0           ; 
00C8: B0         OR    B             ; 
00C9: CB 41      BIT   0,C           ; 
00CB: 28 04      JR    Z,$D1         ; 
00CD: 07         RLCA                ; 
00CE: 07         RLCA                ; 
00CF: 07         RLCA                ; 
00D0: 07         RLCA                ; 
00D1: 77         LD    (HL),A        ; 
00D2: 3A 00 93   LD    A,($9300)     ; 
00D5: A7         AND   A             ; 
00D6: 20 02      JR    NZ,$DA        ; 
00D8: 3E 02      LD    A,$02         ; 
00DA: 3D         DEC   A             ; 
00DB: 32 00 93   LD    ($9300),A     ; 
00DE: 7B         LD    A,E           ; 
00DF: A7         AND   A             ; 
00E0: 28 09      JR    Z,$EB         ; 
00E2: 2A 02 93   LD    HL,($9302)    ; 
00E5: 7E         LD    A,(HL)        ; 
00E6: 32 01 93   LD    ($9301),A     ; 
00E9: 18 42      JR    $12D          ; 
00EB: 2A 02 93   LD    HL,($9302)    ; 
00EE: 3A 01 93   LD    A,($9301)     ; 
00F1: 77         LD    (HL),A        ; 
00F2: 18 39      JR    $12D          ; 
00F4: 4F         LD    C,A           ; 
00F5: 21 00 93   LD    HL,$9300      ; 
00F8: CB 41      BIT   0,C           ; 
00FA: 20 2D      JR    NZ,$129       ; 
00FC: 7E         LD    A,(HL)        ; 
00FD: CB 3F      SRL   A             ; 
00FF: 28 13      JR    Z,$114        ; 
0101: CB 59      BIT   3,C           ; 
0103: 20 0C      JR    NZ,$111       ; 
0105: 7E         LD    A,(HL)        ; 
0106: FE 05      CP    $05           ; 
0108: 30 03      JR    NC,$10D       ; 
010A: 34         INC   (HL)          ; 
010B: 18 D5      JR    $E2           ; 
010D: 36 05      LD    (HL),$05      ; 
010F: 18 D1      JR    $E2           ; 
0111: 35         DEC   (HL)          ; 
0112: 18 CE      JR    $E2           ; 
0114: 2A 02 93   LD    HL,($9302)    ; 
0117: CB 59      BIT   3,C           ; 
0119: 20 03      JR    NZ,$11E       ; 
011B: 2B         DEC   HL            ; 
011C: 18 01      JR    $11F          ; 
011E: 23         INC   HL            ; 
011F: 22 02 93   LD    ($9302),HL    ; 
0122: 3E 01      LD    A,$01         ; 
0124: 32 00 93   LD    ($9300),A     ; 
0127: 18 B9      JR    $E2           ; 
0129: 36 05      LD    (HL),$05      ; 
012B: 18 B5      JR    $E2           ; 
012D: 21 E2 C0   LD    HL,$C0E2      ; 
0130: 11 01 93   LD    DE,$9301      ; 
0133: 06 03      LD    B,$03         ; 
0135: 1A         LD    A,(DE)        ; 
0136: 1C         INC   E             ; 
0137: CD 51 01   CALL  $0151         ; 
013A: 10 F9      DJNZ  $135          ; 
013C: 21 E2 B0   LD    HL,$B0E2      ; 
013F: 3A 00 93   LD    A,($9300)     ; 
0142: 06 06      LD    B,$06         ; 
0144: A7         AND   A             ; 
0145: 0E 04      LD    C,$04         ; 
0147: 28 02      JR    Z,$14B        ; 
0149: 0E 0C      LD    C,$0C         ; 
014B: 71         LD    (HL),C        ; 
014C: 2D         DEC   L             ; 
014D: 3D         DEC   A             ; 
014E: 10 F4      DJNZ  $144          ; 
0150: C9         RET                 ; 
0151: 4F         LD    C,A           ; 
0152: E6 0F      AND   $0F           ; 
0154: 77         LD    (HL),A        ; 
0155: 2D         DEC   L             ; 
0156: 79         LD    A,C           ; 
0157: 07         RLCA                ; 
0158: 07         RLCA                ; 
0159: 07         RLCA                ; 
015A: 07         RLCA                ; 
015B: E6 0F      AND   $0F           ; 
015D: 77         LD    (HL),A        ; 
015E: 2D         DEC   L             ; 
015F: C9         RET                 ; 
0160: FD FB      EI                  ; 
0162: F7         RST   $30           ; 
0163: EF         RST   $28           ; 
0164: FE 3A      CP    $3A           ; 
0166: 09         ADD   HL,BC         ; 
0167: 04         INC   B             ; 
0168: 32 72 85   LD    ($8572),A     ; 
016B: 3A FB 15   LD    A,($15FB)     ; 
016E: 32 73 85   LD    ($8573),A     ; 
0171: 31 80 97   LD    SP,$9780      ; 
0174: 21 00 10   LD    HL,$1000      ; 
0177: 11 00 A4   LD    DE,$A400      ; 
017A: 01 20 00   LD    BC,$0020      ; 
017D: ED B0      LDIR                ; 
017F: 21 B6 01   LD    HL,$01B6      ; 
0182: 11 C0 82   LD    DE,$82C0      ; 
0185: 01 40 00   LD    BC,$0040      ; 
0188: ED B0      LDIR                ; 
018A: 21 02 80   LD    HL,$8002      ; 
018D: 7E         LD    A,(HL)        ; 
018E: 3D         DEC   A             ; 
018F: 20 FC      JR    NZ,$18D       ; 
0191: 77         LD    (HL),A        ; 
0192: 32 0A 80   LD    ($800A),A     ; 
0195: 3A 16 80   LD    A,($8016)     ; 
0198: CB 7F      BIT   7,A           ; 
019A: 28 EE      JR    Z,$18A        ; 
019C: DD 21 C0 82 LD    IX,$82C0      ; 
01A0: 06 20      LD    B,$20         ; 
01A2: C5         PUSH  BC            ; 
01A3: CD AF 01   CALL  $01AF         ; 
01A6: C1         POP   BC            ; 
01A7: DD 23      INC   IX            ; 
01A9: DD 23      INC   IX            ; 
01AB: 10 F5      DJNZ  $1A2          ; 
01AD: 18 DB      JR    $18A          ; 
01AF: DD 6E 00   LD    L,(IX+$00)    ; 
01B2: DD 66 01   LD    H,(IX+$01)    ; 
01B5: E9         JP    (HL)          ; 
01B6: F6 01      OR    $01           ; 
01B8: 18 02      JR    $1BC          ; 
01BA: 8F         ADC   A,A           ; 
01BB: 06 8B      LD    B,$8B         ; 
01BD: 07         RLCA                ; 
01BE: 27         DAA                 ; 
01BF: 02         LD    (BC),A        ; 
01C0: 64         LD    H,H           ; 
01C1: 02         LD    (BC),A        ; 
01C2: CD 07 1F   CALL  $1F07         ; 
01C5: 00         NOP                 ; 
01C6: 1F         RRA                 ; 
01C7: 00         NOP                 ; 
01C8: 1F         RRA                 ; 
01C9: 00         NOP                 ; 
01CA: 1F         RRA                 ; 
01CB: 00         NOP                 ; 
01CC: 1F         RRA                 ; 
01CD: 00         NOP                 ; 
01CE: 1F         RRA                 ; 
01CF: 00         NOP                 ; 
01D0: 1F         RRA                 ; 
01D1: 00         NOP                 ; 
01D2: 1F         RRA                 ; 
01D3: 00         NOP                 ; 
01D4: 1F         RRA                 ; 
01D5: 00         NOP                 ; 
01D6: 1F         RRA                 ; 
01D7: 00         NOP                 ; 
01D8: 1F         RRA                 ; 
01D9: 00         NOP                 ; 
01DA: 1F         RRA                 ; 
01DB: 00         NOP                 ; 
01DC: 1F         RRA                 ; 
01DD: 00         NOP                 ; 
01DE: 1F         RRA                 ; 
01DF: 00         NOP                 ; 
01E0: 1F         RRA                 ; 
01E1: 00         NOP                 ; 
01E2: 1F         RRA                 ; 
01E3: 00         NOP                 ; 
01E4: 1F         RRA                 ; 
01E5: 00         NOP                 ; 
01E6: 1F         RRA                 ; 
01E7: 00         NOP                 ; 
01E8: 1F         RRA                 ; 
01E9: 00         NOP                 ; 
01EA: 1F         RRA                 ; 
01EB: 00         NOP                 ; 
01EC: 1F         RRA                 ; 
01ED: 00         NOP                 ; 
01EE: 1F         RRA                 ; 
01EF: 00         NOP                 ; 
01F0: 1F         RRA                 ; 
01F1: 00         NOP                 ; 
01F2: A6         AND   (HL)          ; 
01F3: 02         LD    (BC),A        ; 
01F4: 1E 03      LD    E,$03         ; 
01F6: 21 40 82   LD    HL,$8240      ; 
01F9: 11 C0 87   LD    DE,$87C0      ; 
01FC: 01 40 00   LD    BC,$0040      ; 
01FF: ED B0      LDIR                ; 
0201: 21 40 83   LD    HL,$8340      ; 
0204: 11 C0 97   LD    DE,$97C0      ; 
0207: 01 40 00   LD    BC,$0040      ; 
020A: ED B0      LDIR                ; 
020C: 21 40 81   LD    HL,$8140      ; 
020F: 11 C0 A7   LD    DE,$A7C0      ; 
0212: 01 40 00   LD    BC,$0040      ; 
0215: ED B0      LDIR                ; 
0217: C9         RET                 ; 
0218: 2A 0C 80   LD    HL,($800C)    ; 
021B: 7D         LD    A,L           ; 
021C: 6C         LD    L,H           ; 
021D: 26 D0      LD    H,$D0         ; 
021F: 77         LD    (HL),A        ; 
0220: 3A 0E 80   LD    A,($800E)     ; 
0223: 32 20 D0   LD    ($D020),A     ; 
0226: C9         RET                 ; 
0227: 3A 18 80   LD    A,($8018)     ; 
022A: 4F         LD    C,A           ; 
022B: 3A 29 80   LD    A,($8029)     ; 
022E: 47         LD    B,A           ; 
022F: 91         SUB   C             ; 
0230: C8         RET   Z             ; 
0231: 30 1B      JR    NC,$24E       ; 
0233: 79         LD    A,C           ; 
0234: 32 29 80   LD    ($8029),A     ; 
0237: FE A0      CP    $A0           ; 
0239: C8         RET   Z             ; 
023A: 90         SUB   B             ; 
023B: 27         DAA                 ; 
023C: 21 00 A0   LD    HL,$A000      ; 
023F: 86         ADD   A,(HL)        ; 
0240: 27         DAA                 ; 
0241: 77         LD    (HL),A        ; 
0242: 21 5D 02   LD    HL,$025D      ; 
0245: 11 80 80   LD    DE,$8080      ; 
0248: 01 07 00   LD    BC,$0007      ; 
024B: ED B0      LDIR                ; 
024D: C9         RET                 ; 
024E: 27         DAA                 ; 
024F: 3D         DEC   A             ; 
0250: 32 22 80   LD    ($8022),A     ; 
0253: 79         LD    A,C           ; 
0254: 32 29 80   LD    ($8029),A     ; 
0257: 3E 01      LD    A,$01         ; 
0259: 32 1B 80   LD    ($801B),A     ; 
025C: C9         RET                 ; 
025D: 30 10      JR    NC,$26F       ; 
025F: 00         NOP                 ; 
0260: 80         ADD   A,B           ; 
0261: FF         RST   $38           ; 
0262: 10 10      DJNZ  $274          ; 
0264: 3A 2A 80   LD    A,($802A)     ; 
0267: A7         AND   A             ; 
0268: C0         RET   NZ            ; 
0269: 3A 01 80   LD    A,($8001)     ; 
026C: 1F         RRA                 ; 
026D: E6 03      AND   $03           ; 
026F: C6 25      ADD   A,$25         ; 
0271: 21 4F 7C   LD    HL,$7C4F      ; 
0274: 06 13      LD    B,$13         ; 
0276: 77         LD    (HL),A        ; 
0277: 2C         INC   L             ; 
0278: 2C         INC   L             ; 
0279: 10 FB      DJNZ  $276          ; 
027B: 3A 01 80   LD    A,($8001)     ; 
027E: 0F         RRCA                ; 
027F: 0F         RRCA                ; 
0280: 0F         RRCA                ; 
0281: E6 07      AND   $07           ; 
0283: 4F         LD    C,A           ; 
0284: 21 96 02   LD    HL,$0296      ; 
0287: D7         RST   $10           ; 
0288: 7E         LD    A,(HL)        ; 
0289: 32 1C 80   LD    ($801C),A     ; 
028C: 79         LD    A,C           ; 
028D: 21 9E 02   LD    HL,$029E      ; 
0290: D7         RST   $10           ; 
0291: 7E         LD    A,(HL)        ; 
0292: 32 43 80   LD    ($8043),A     ; 
0295: C9         RET                 ; 
0296: 07         RLCA                ; 
0297: 08         EX    AF,AF'        ; 
0298: 09         ADD   HL,BC         ; 
0299: 0A         LD    A,(BC)        ; 
029A: 0B         DEC   BC            ; 
029B: 0A         LD    A,(BC)        ; 
029C: 09         ADD   HL,BC         ; 
029D: 08         EX    AF,AF'        ; 
029E: 10 11      DJNZ  $2B1          ; 
02A0: 12         LD    (DE),A        ; 
02A1: 13         INC   DE            ; 
02A2: 14         INC   D             ; 
02A3: 13         INC   DE            ; 
02A4: 12         LD    (DE),A        ; 
02A5: 11 3A 2A   LD    DE,$2A3A      ; 
02A8: 80         ADD   A,B           ; 
02A9: A7         AND   A             ; 
02AA: C0         RET   NZ            ; 
02AB: CD D4 02   CALL  $02D4         ; 
02AE: 3A 03 80   LD    A,($8003)     ; 
02B1: A7         AND   A             ; 
02B2: 3E 40      LD    A,$40         ; 
02B4: 28 02      JR    Z,$2B8        ; 
02B6: 3E 30      LD    A,$30         ; 
02B8: 2A 10 80   LD    HL,($8010)    ; 
02BB: CF         RST   $08           ; 
02BC: 29         ADD   HL,HL         ; 
02BD: 29         ADD   HL,HL         ; 
02BE: AF         XOR   A             ; 
02BF: 29         ADD   HL,HL         ; 
02C0: 17         RLA                 ; 
02C1: 6C         LD    L,H           ; 
02C2: 67         LD    H,A           ; 
02C3: 22 0C 80   LD    ($800C),HL    ; 
02C6: 3A 03 80   LD    A,($8003)     ; 
02C9: A7         AND   A             ; 
02CA: 3E 00      LD    A,$00         ; 
02CC: 28 02      JR    Z,$2D0        ; 
02CE: 3E 00      LD    A,$00         ; 
02D0: 32 0E 80   LD    ($800E),A     ; 
02D3: C9         RET                 ; 
02D4: 2A 10 80   LD    HL,($8010)    ; 
02D7: 4C         LD    C,H           ; 
02D8: 3A 14 80   LD    A,($8014)     ; 
02DB: CF         RST   $08           ; 
02DC: 22 10 80   LD    ($8010),HL    ; 
02DF: 3A 0F 80   LD    A,($800F)     ; 
02E2: A7         AND   A             ; 
02E3: C0         RET   NZ            ; 
02E4: 7C         LD    A,H           ; 
02E5: B9         CP    C             ; 
02E6: C8         RET   Z             ; 
02E7: FA EC 02   JP    M,$02EC       ; 
02EA: C6 40      ADD   A,$40         ; 
02EC: C6 F2      ADD   A,$F2         ; 
02EE: 6F         LD    L,A           ; 
02EF: 3A 03 80   LD    A,($8003)     ; 
02F2: A7         AND   A             ; 
02F3: 3A 13 80   LD    A,($8013)     ; 
02F6: 28 02      JR    Z,$2FA        ; 
02F8: C6 FE      ADD   A,$FE         ; 
02FA: C6 FF      ADD   A,$FF         ; 
02FC: 67         LD    H,A           ; 
02FD: 01 B8 20   LD    BC,$20B8      ; 
0300: 16 FE      LD    D,$FE         ; 
0302: 5D         LD    E,L           ; 
0303: 22 00 F0   LD    ($F000),HL    ; 
0306: EB         EX    DE,HL         ; 
0307: E5         PUSH  HL            ; 
0308: CD 38 00   CALL  $0038         ; 
030B: 3A 00 F0   LD    A,($F000)     ; 
030E: 77         LD    (HL),A        ; 
030F: 3E 10      LD    A,$10         ; 
0311: 84         ADD   A,H           ; 
0312: 67         LD    H,A           ; 
0313: 3A 01 F0   LD    A,($F001)     ; 
0316: 77         LD    (HL),A        ; 
0317: E1         POP   HL            ; 
0318: EB         EX    DE,HL         ; 
0319: 14         INC   D             ; 
031A: 24         INC   H             ; 
031B: 10 E5      DJNZ  $302          ; 
031D: C9         RET                 ; 
031E: 21 00 79   LD    HL,$7900      ; 
0321: 11 00 83   LD    DE,$8300      ; 
0324: 06 40      LD    B,$40         ; 
0326: E5         PUSH  HL            ; 
0327: CD 32 03   CALL  $0332         ; 
032A: E1         POP   HL            ; 
032B: 2C         INC   L             ; 
032C: 2C         INC   L             ; 
032D: 1C         INC   E             ; 
032E: 1C         INC   E             ; 
032F: 10 F5      DJNZ  $326          ; 
0331: C9         RET                 ; 
0332: 7E         LD    A,(HL)        ; 
0333: 3D         DEC   A             ; 
0334: C8         RET   Z             ; 
0335: E5         PUSH  HL            ; 
0336: 3C         INC   A             ; 
0337: 20 0C      JR    NZ,$345       ; 
0339: 4C         LD    C,H           ; 
033A: 24         INC   H             ; 
033B: 77         LD    (HL),A        ; 
033C: 2C         INC   L             ; 
033D: 77         LD    (HL),A        ; 
033E: 24         INC   H             ; 
033F: 77         LD    (HL),A        ; 
0340: 2D         DEC   L             ; 
0341: 77         LD    (HL),A        ; 
0342: 3C         INC   A             ; 
0343: 61         LD    H,C           ; 
0344: 77         LD    (HL),A        ; 
0345: 2C         INC   L             ; 
0346: 4E         LD    C,(HL)        ; 
0347: 79         LD    A,C           ; 
0348: 12         LD    (DE),A        ; 
0349: D5         PUSH  DE            ; 
034A: 24         INC   H             ; 
034B: 56         LD    D,(HL)        ; 
034C: 2D         DEC   L             ; 
034D: 5E         LD    E,(HL)        ; 
034E: EB         EX    DE,HL         ; 
034F: CD B3 03   CALL  $03B3         ; 
0352: FE 02      CP    $02           ; 
0354: 38 03      JR    C,$359        ; 
0356: 21 00 00   LD    HL,$0000      ; 
0359: CD 89 03   CALL  $0389         ; 
035C: E5         PUSH  HL            ; 
035D: EB         EX    DE,HL         ; 
035E: 24         INC   H             ; 
035F: 5E         LD    E,(HL)        ; 
0360: 2C         INC   L             ; 
0361: 56         LD    D,(HL)        ; 
0362: EB         EX    DE,HL         ; 
0363: CD B3 03   CALL  $03B3         ; 
0366: A7         AND   A             ; 
0367: 28 02      JR    Z,$36B        ; 
0369: 2E 00      LD    L,$00         ; 
036B: CD A2 03   CALL  $03A2         ; 
036E: D1         POP   DE            ; 
036F: E1         POP   HL            ; 
0370: 2C         INC   L             ; 
0371: 72         LD    (HL),D        ; 
0372: 25         DEC   H             ; 
0373: 73         LD    (HL),E        ; 
0374: 2D         DEC   L             ; 
0375: 77         LD    (HL),A        ; 
0376: 25         DEC   H             ; 
0377: EB         EX    DE,HL         ; 
0378: E1         POP   HL            ; 
0379: 4C         LD    C,H           ; 
037A: 24         INC   H             ; 
037B: 24         INC   H             ; 
037C: 24         INC   H             ; 
037D: 7E         LD    A,(HL)        ; 
037E: 12         LD    (DE),A        ; 
037F: 2C         INC   L             ; 
0380: 1C         INC   E             ; 
0381: 7E         LD    A,(HL)        ; 
0382: 12         LD    (DE),A        ; 
0383: 61         LD    H,C           ; 
0384: 2D         DEC   L             ; 
0385: 14         INC   D             ; 
0386: 14         INC   D             ; 
0387: 1D         DEC   E             ; 
0388: C9         RET                 ; 
0389: 3A 03 80   LD    A,($8003)     ; 
038C: A7         AND   A             ; 
038D: 28 0F      JR    Z,$39E        ; 
038F: 3E 48      LD    A,$48         ; 
0391: CB 41      BIT   0,C           ; 
0393: 20 02      JR    NZ,$397       ; 
0395: 3E 58      LD    A,$58         ; 
0397: 95         SUB   L             ; 
0398: 6F         LD    L,A           ; 
0399: 3E 01      LD    A,$01         ; 
039B: 9C         SBC   H             ; 
039C: 67         LD    H,A           ; 
039D: C9         RET                 ; 
039E: 3E 08      LD    A,$08         ; 
03A0: D7         RST   $10           ; 
03A1: C9         RET                 ; 
03A2: 3A 03 80   LD    A,($8003)     ; 
03A5: A7         AND   A             ; 
03A6: 3E EF      LD    A,$EF         ; 
03A8: 28 07      JR    Z,$3B1        ; 
03AA: 85         ADD   A,L           ; 
03AB: CB 49      BIT   1,C           ; 
03AD: C0         RET   NZ            ; 
03AE: C6 10      ADD   A,$10         ; 
03B0: C9         RET                 ; 
03B1: 95         SUB   L             ; 
03B2: C9         RET                 ; 
03B3: AF         XOR   A             ; 
03B4: 29         ADD   HL,HL         ; 
03B5: 17         RLA                 ; 
03B6: 29         ADD   HL,HL         ; 
03B7: 17         RLA                 ; 
03B8: 29         ADD   HL,HL         ; 
03B9: 17         RLA                 ; 
03BA: 6C         LD    L,H           ; 
03BB: 67         LD    H,A           ; 
03BC: C9         RET                 ; 
03BD: 0A         LD    A,(BC)        ; 
03BE: 03         INC   BC            ; 
03BF: 21 D8 04   LD    HL,$04D8      ; 
03C2: CF         RST   $08           ; 
03C3: 7E         LD    A,(HL)        ; 
03C4: 32 2B 80   LD    ($802B),A     ; 
03C7: 23         INC   HL            ; 
03C8: 7E         LD    A,(HL)        ; 
03C9: 32 2C 80   LD    ($802C),A     ; 
03CC: ED 43 85 81 LD    ($8185),BC    ; 
03D0: C9         RET                 ; 
03D1: 3A 16 80   LD    A,($8016)     ; 
03D4: 2F         CPL                 ; 
03D5: 07         RLCA                ; 
03D6: 07         RLCA                ; 
03D7: 07         RLCA                ; 
03D8: E6 03      AND   $03           ; 
03DA: 21 08 04   LD    HL,$0408      ; 
03DD: D7         RST   $10           ; 
03DE: 7E         LD    A,(HL)        ; 
03DF: 6F         LD    L,A           ; 
03E0: 3A 88 81   LD    A,($8188)     ; 
03E3: 85         ADD   A,L           ; 
03E4: FE 80      CP    $80           ; 
03E6: 38 02      JR    C,$3EA        ; 
03E8: D6 40      SUB   $40           ; 
03EA: 32 88 81   LD    ($8188),A     ; 
03ED: 18 D0      JR    $3BF          ; 
03EF: 21 88 81   LD    HL,$8188      ; 
03F2: 0A         LD    A,(BC)        ; 
03F3: 86         ADD   A,(HL)        ; 
03F4: 03         INC   BC            ; 
03F5: FE 80      CP    $80           ; 
03F7: 38 02      JR    C,$3FB        ; 
03F9: D6 40      SUB   $40           ; 
03FB: 18 C2      JR    $3BF          ; 
03FD: 21 00 00   LD    HL,$0000      ; 
0400: 22 2B 80   LD    ($802B),HL    ; 
0403: ED 43 85 81 LD    ($8185),BC    ; 
0407: C9         RET                 ; 
0408: 02         LD    (BC),A        ; 
0409: 00         NOP                 ; 
040A: 06 10      LD    B,$10         ; 
040C: ED 43 85 81 LD    ($8185),BC    ; 
0410: 2A 81 81   LD    HL,($8181)    ; 
0413: 3A 8B 81   LD    A,($818B)     ; 
0416: CD 2C 04   CALL  $042C         ; 
0419: 11 10 00   LD    DE,$0010      ; 
041C: A7         AND   A             ; 
041D: ED 52      SBC   HL,DE         ; 
041F: 19         ADD   HL,DE         ; 
0420: 38 02      JR    C,$424        ; 
0422: 2E 10      LD    L,$10         ; 
0424: 3A 88 81   LD    A,($8188)     ; 
0427: 85         ADD   A,L           ; 
0428: 32 88 81   LD    ($8188),A     ; 
042B: C9         RET                 ; 
042C: C5         PUSH  BC            ; 
042D: 4F         LD    C,A           ; 
042E: AF         XOR   A             ; 
042F: 06 10      LD    B,$10         ; 
0431: 29         ADD   HL,HL         ; 
0432: 17         RLA                 ; 
0433: 38 03      JR    C,$438        ; 
0435: B9         CP    C             ; 
0436: 38 02      JR    C,$43A        ; 
0438: 91         SUB   C             ; 
0439: 23         INC   HL            ; 
043A: 10 F5      DJNZ  $431          ; 
043C: C1         POP   BC            ; 
043D: C9         RET                 ; 
043E: 0A         LD    A,(BC)        ; 
043F: 32 A0 81   LD    ($81A0),A     ; 
0442: 03         INC   BC            ; 
0443: ED 43 85 81 LD    ($8185),BC    ; 
0447: C9         RET                 ; 
0448: 0A         LD    A,(BC)        ; 
0449: 32 A3 81   LD    ($81A3),A     ; 
044C: 03         INC   BC            ; 
044D: ED 43 85 81 LD    ($8185),BC    ; 
0451: C9         RET                 ; 
0452: 0A         LD    A,(BC)        ; 
0453: 32 A4 81   LD    ($81A4),A     ; 
0456: 03         INC   BC            ; 
0457: ED 43 85 81 LD    ($8185),BC    ; 
045B: C9         RET                 ; 
045C: 0A         LD    A,(BC)        ; 
045D: 32 A2 81   LD    ($81A2),A     ; 
0460: 03         INC   BC            ; 
0461: ED 43 85 81 LD    ($8185),BC    ; 
0465: C9         RET                 ; 
0466: 0A         LD    A,(BC)        ; 
0467: 32 A1 81   LD    ($81A1),A     ; 
046A: 03         INC   BC            ; 
046B: ED 43 85 81 LD    ($8185),BC    ; 
046F: C9         RET                 ; 
0470: 0A         LD    A,(BC)        ; 
0471: 32 A5 81   LD    ($81A5),A     ; 
0474: 03         INC   BC            ; 
0475: ED 43 85 81 LD    ($8185),BC    ; 
0479: C9         RET                 ; 
047A: 0A         LD    A,(BC)        ; 
047B: 32 A6 81   LD    ($81A6),A     ; 
047E: 03         INC   BC            ; 
047F: ED 43 85 81 LD    ($8185),BC    ; 
0483: C9         RET                 ; 
0484: 0A         LD    A,(BC)        ; 
0485: 32 A7 81   LD    ($81A7),A     ; 
0488: 03         INC   BC            ; 
0489: ED 43 85 81 LD    ($8185),BC    ; 
048D: C9         RET                 ; 
048E: 0A         LD    A,(BC)        ; 
048F: 32 B1 81   LD    ($81B1),A     ; 
0492: 03         INC   BC            ; 
0493: ED 43 85 81 LD    ($8185),BC    ; 
0497: C9         RET                 ; 
0498: 04         INC   B             ; 
0499: 0B         DEC   BC            ; 
049A: 05         DEC   B             ; 
049B: 0A         LD    A,(BC)        ; 
049C: 06 09      LD    B,$09         ; 
049E: 06 25      LD    B,$25         ; 
04A0: 06 5C      LD    B,$5C         ; 
04A2: 06 29      LD    B,$29         ; 
04A4: 06 5E      LD    B,$5E         ; 
04A6: 06 64      LD    B,$64         ; 
04A8: 06 66      LD    B,$66         ; 
04AA: 06 72      LD    B,$72         ; 
04AC: 04         INC   B             ; 
04AD: 30 04      JR    NC,$4B3       ; 
04AF: 31 05 30   LD    SP,$3005      ; 
04B2: 06 30      LD    B,$30         ; 
04B4: 06 3F      LD    B,$3F         ; 
04B6: 06 48      LD    B,$48         ; 
04B8: 06 4B      LD    B,$4B         ; 
04BA: 02         LD    (BC),A        ; 
04BB: 54         LD    D,H           ; 
04BC: 03         INC   BC            ; 
04BD: 54         LD    D,H           ; 
04BE: 04         INC   B             ; 
04BF: 54         LD    D,H           ; 
04C0: 02         LD    (BC),A        ; 
04C1: 58         LD    E,B           ; 
04C2: 03         INC   BC            ; 
04C3: 58         LD    E,B           ; 
04C4: 04         INC   B             ; 
04C5: 58         LD    E,B           ; 
04C6: 04         INC   B             ; 
04C7: 58         LD    E,B           ; 
04C8: 04         INC   B             ; 
04C9: 58         LD    E,B           ; 
04CA: 04         INC   B             ; 
04CB: 58         LD    E,B           ; 
04CC: 04         INC   B             ; 
04CD: 58         LD    E,B           ; 
04CE: 04         INC   B             ; 
04CF: 58         LD    E,B           ; 
04D0: 04         INC   B             ; 
04D1: 58         LD    E,B           ; 
04D2: 04         INC   B             ; 
04D3: 58         LD    E,B           ; 
04D4: 04         INC   B             ; 
04D5: 58         LD    E,B           ; 
04D6: 04         INC   B             ; 
04D7: 58         LD    E,B           ; 
04D8: 03         INC   BC            ; 
04D9: 01 03 01   LD    BC,$0103      ; 
04DC: 03         INC   BC            ; 
04DD: 01 04 01   LD    BC,$0104      ; 
04E0: 04         INC   B             ; 
04E1: 01 04 01   LD    BC,$0104      ; 
04E4: 05         DEC   B             ; 
04E5: 01 05 01   LD    BC,$0105      ; 
04E8: 05         DEC   B             ; 
04E9: 01 02 19   LD    BC,$1902      ; 
04EC: 02         LD    (BC),A        ; 
04ED: 19         ADD   HL,DE         ; 
04EE: 02         LD    (BC),A        ; 
04EF: 19         ADD   HL,DE         ; 
04F0: 04         INC   B             ; 
04F1: 01 04 01   LD    BC,$0104      ; 
04F4: 04         INC   B             ; 
04F5: 04         INC   B             ; 
04F6: 04         INC   B             ; 
04F7: 04         INC   B             ; 
04F8: 04         INC   B             ; 
04F9: 05         DEC   B             ; 
04FA: 04         INC   B             ; 
04FB: 05         DEC   B             ; 
04FC: 05         DEC   B             ; 
04FD: 05         DEC   B             ; 
04FE: 05         DEC   B             ; 
04FF: 05         DEC   B             ; 
0500: 06 05      LD    B,$05         ; 
0502: 06 05      LD    B,$05         ; 
0504: 03         INC   BC            ; 
0505: 19         ADD   HL,DE         ; 
0506: 03         INC   BC            ; 
0507: 19         ADD   HL,DE         ; 
0508: 04         INC   B             ; 
0509: 19         ADD   HL,DE         ; 
050A: 04         INC   B             ; 
050B: 19         ADD   HL,DE         ; 
050C: 05         DEC   B             ; 
050D: 19         ADD   HL,DE         ; 
050E: 05         DEC   B             ; 
050F: 19         ADD   HL,DE         ; 
0510: 03         INC   BC            ; 
0511: 27         DAA                 ; 
0512: 03         INC   BC            ; 
0513: 27         DAA                 ; 
0514: 04         INC   B             ; 
0515: 27         DAA                 ; 
0516: 04         INC   B             ; 
0517: 27         DAA                 ; 
0518: 05         DEC   B             ; 
0519: 27         DAA                 ; 
051A: 05         DEC   B             ; 
051B: 27         DAA                 ; 
051C: 03         INC   BC            ; 
051D: 1F         RRA                 ; 
051E: 03         INC   BC            ; 
051F: 1F         RRA                 ; 
0520: 04         INC   B             ; 
0521: 1F         RRA                 ; 
0522: 04         INC   B             ; 
0523: 1F         RRA                 ; 
0524: 05         DEC   B             ; 
0525: 1F         RRA                 ; 
0526: 05         DEC   B             ; 
0527: 1F         RRA                 ; 
0528: 03         INC   BC            ; 
0529: 13         INC   DE            ; 
052A: 03         INC   BC            ; 
052B: 13         INC   DE            ; 
052C: 04         INC   B             ; 
052D: 13         INC   DE            ; 
052E: 04         INC   B             ; 
052F: 13         INC   DE            ; 
0530: 05         DEC   B             ; 
0531: 13         INC   DE            ; 
0532: 05         DEC   B             ; 
0533: 13         INC   DE            ; 
0534: 03         INC   BC            ; 
0535: 36 03      LD    (HL),$03      ; 
0537: 36 03      LD    (HL),$03      ; 
0539: 37         SCF                 ; 
053A: 03         INC   BC            ; 
053B: 37         SCF                 ; 
053C: 04         INC   B             ; 
053D: 37         SCF                 ; 
053E: 04         INC   B             ; 
053F: 37         SCF                 ; 
0540: 03         INC   BC            ; 
0541: 2D         DEC   L             ; 
0542: 03         INC   BC            ; 
0543: 2D         DEC   L             ; 
0544: 04         INC   B             ; 
0545: 2D         DEC   L             ; 
0546: 04         INC   B             ; 
0547: 2D         DEC   L             ; 
0548: 05         DEC   B             ; 
0549: 2D         DEC   L             ; 
054A: 05         DEC   B             ; 
054B: 2D         DEC   L             ; 
054C: 04         INC   B             ; 
054D: 12         LD    (DE),A        ; 
054E: 04         INC   B             ; 
054F: 12         LD    (DE),A        ; 
0550: 04         INC   B             ; 
0551: 11 04 11   LD    DE,$1104      ; 
0554: 05         DEC   B             ; 
0555: 11 05 11   LD    DE,$1105      ; 
0558: 05         DEC   B             ; 
0559: 17         RLA                 ; 
055A: 05         DEC   B             ; 
055B: 17         RLA                 ; 
055C: 06 17      LD    B,$17         ; 
055E: 06 17      LD    B,$17         ; 
0560: 02         LD    (BC),A        ; 
0561: 3C         INC   A             ; 
0562: 03         INC   BC            ; 
0563: 3C         INC   A             ; 
0564: 03         INC   BC            ; 
0565: 3C         INC   A             ; 
0566: 04         INC   B             ; 
0567: 3C         INC   A             ; 
0568: 04         INC   B             ; 
0569: 3C         INC   A             ; 
056A: 05         DEC   B             ; 
056B: 3C         INC   A             ; 
056C: 05         DEC   B             ; 
056D: 19         ADD   HL,DE         ; 
056E: 05         DEC   B             ; 
056F: 19         ADD   HL,DE         ; 
0570: 06 19      LD    B,$19         ; 
0572: 06 19      LD    B,$19         ; 
0574: 02         LD    (BC),A        ; 
0575: 45         LD    B,L           ; 
0576: 03         INC   BC            ; 
0577: 45         LD    B,L           ; 
0578: 03         INC   BC            ; 
0579: 45         LD    B,L           ; 
057A: 04         INC   B             ; 
057B: 45         LD    B,L           ; 
057C: 04         INC   B             ; 
057D: 45         LD    B,L           ; 
057E: 05         DEC   B             ; 
057F: 45         LD    B,L           ; 
0580: 05         DEC   B             ; 
0581: 2D         DEC   L             ; 
0582: 05         DEC   B             ; 
0583: 2D         DEC   L             ; 
0584: 06 2D      LD    B,$2D         ; 
0586: 06 2D      LD    B,$2D         ; 
0588: 04         INC   B             ; 
0589: 27         DAA                 ; 
058A: 04         INC   B             ; 
058B: 27         DAA                 ; 
058C: 05         DEC   B             ; 
058D: 27         DAA                 ; 
058E: 05         DEC   B             ; 
058F: 27         DAA                 ; 
0590: 06 27      LD    B,$27         ; 
0592: 06 27      LD    B,$27         ; 
0594: 05         DEC   B             ; 
0595: 0D         DEC   C             ; 
0596: 05         DEC   B             ; 
0597: 0D         DEC   C             ; 
0598: 06 0D      LD    B,$0D         ; 
059A: 06 0D      LD    B,$0D         ; 
059C: 02         LD    (BC),A        ; 
059D: 6D         LD    L,L           ; 
059E: 03         INC   BC            ; 
059F: 6C         LD    L,H           ; 
05A0: 03         INC   BC            ; 
05A1: 6C         LD    L,H           ; 
05A2: 04         INC   B             ; 
05A3: 6C         LD    L,H           ; 
05A4: 04         INC   B             ; 
05A5: 6C         LD    L,H           ; 
05A6: 05         DEC   B             ; 
05A7: 6C         LD    L,H           ; 
05A8: 06 0D      LD    B,$0D         ; 
05AA: 06 0D      LD    B,$0D         ; 
05AC: 06 07      LD    B,$07         ; 
05AE: 06 07      LD    B,$07         ; 
05B0: 06 07      LD    B,$07         ; 
05B2: 06 07      LD    B,$07         ; 
05B4: 02         LD    (BC),A        ; 
05B5: 4E         LD    C,(HL)        ; 
05B6: 03         INC   BC            ; 
05B7: 4E         LD    C,(HL)        ; 
05B8: 03         INC   BC            ; 
05B9: 4E         LD    C,(HL)        ; 
05BA: 04         INC   B             ; 
05BB: 4E         LD    C,(HL)        ; 
05BC: 04         INC   B             ; 
05BD: 4E         LD    C,(HL)        ; 
05BE: 05         DEC   B             ; 
05BF: 4E         LD    C,(HL)        ; 
05C0: 06 07      LD    B,$07         ; 
05C2: 06 07      LD    B,$07         ; 
05C4: 06 07      LD    B,$07         ; 
05C6: 06 07      LD    B,$07         ; 
05C8: 01 54 02   LD    BC,$0254      ; 
05CB: 54         LD    D,H           ; 
05CC: 06 07      LD    B,$07         ; 
05CE: 06 07      LD    B,$07         ; 
05D0: 06 07      LD    B,$07         ; 
05D2: 06 07      LD    B,$07         ; 
05D4: 01 58 02   LD    BC,$0258      ; 
05D7: 58         LD    E,B           ; 
05D8: AF         XOR   A             ; 
05D9: 32 2D 80   LD    ($802D),A     ; 
05DC: ED 43 85 81 LD    ($8185),BC    ; 
05E0: C9         RET                 ; 
05E1: 26 7F      LD    H,$7F         ; 
05E3: 0A         LD    A,(BC)        ; 
05E4: 6F         LD    L,A           ; 
05E5: 0B         DEC   BC            ; 
05E6: 0A         LD    A,(BC)        ; 
05E7: 77         LD    (HL),A        ; 
05E8: 03         INC   BC            ; 
05E9: 03         INC   BC            ; 
05EA: 26 7B      LD    H,$7B         ; 
05EC: 0A         LD    A,(BC)        ; 
05ED: 0F         RRCA                ; 
05EE: 0F         RRCA                ; 
05EF: 0F         RRCA                ; 
05F0: 5F         LD    E,A           ; 
05F1: E6 E0      AND   $E0           ; 
05F3: 77         LD    (HL),A        ; 
05F4: 2C         INC   L             ; 
05F5: 7B         LD    A,E           ; 
05F6: E6 1F      AND   $1F           ; 
05F8: 77         LD    (HL),A        ; 
05F9: 03         INC   BC            ; 
05FA: 26 7D      LD    H,$7D         ; 
05FC: 0A         LD    A,(BC)        ; 
05FD: 77         LD    (HL),A        ; 
05FE: 03         INC   BC            ; 
05FF: 26 79      LD    H,$79         ; 
0601: CB FD      SET   7,L           ; 
0603: EB         EX    DE,HL         ; 
0604: 60         LD    H,B           ; 
0605: 69         LD    L,C           ; 
0606: CF         RST   $08           ; 
0607: 22 85 81   LD    ($8185),HL    ; 
060A: 21 80 93   LD    HL,$9380      ; 
060D: 3A 42 80   LD    A,($8042)     ; 
0610: 87         ADD   A,A           ; 
0611: 87         ADD   A,A           ; 
0612: 87         ADD   A,A           ; 
0613: D5         PUSH  DE            ; 
0614: EF         RST   $28           ; 
0615: D1         POP   DE            ; 
0616: EB         EX    DE,HL         ; 
0617: 72         LD    (HL),D        ; 
0618: 2D         DEC   L             ; 
0619: 73         LD    (HL),E        ; 
061A: 60         LD    H,B           ; 
061B: 69         LD    L,C           ; 
061C: 01 40 00   LD    BC,$0040      ; 
061F: ED B0      LDIR                ; 
0621: 3A 42 80   LD    A,($8042)     ; 
0624: 3C         INC   A             ; 
0625: FE 0C      CP    $0C           ; 
0627: 38 01      JR    C,$62A        ; 
0629: AF         XOR   A             ; 
062A: 32 42 80   LD    ($8042),A     ; 
062D: C9         RET                 ; 
062E: 3E 31      LD    A,$31         ; 
0630: 32 7E 7F   LD    ($7F7E),A     ; 
0633: 3C         INC   A             ; 
0634: 32 7C 7F   LD    ($7F7C),A     ; 
0637: AF         XOR   A             ; 
0638: 32 2E 80   LD    ($802E),A     ; 
063B: ED 43 85 81 LD    ($8185),BC    ; 
063F: C9         RET                 ; 
0640: 3E 01      LD    A,$01         ; 
0642: 32 2E 80   LD    ($802E),A     ; 
0645: ED 43 85 81 LD    ($8185),BC    ; 
0649: C9         RET                 ; 
064A: 21 1E 79   LD    HL,$791E      ; 
064D: 36 02      LD    (HL),$02      ; 
064F: 2C         INC   L             ; 
0650: 36 00      LD    (HL),$00      ; 
0652: 24         INC   H             ; 
0653: 36 F8      LD    (HL),$F8      ; 
0655: 24         INC   H             ; 
0656: 36 0E      LD    (HL),$0E      ; 
0658: 2D         DEC   L             ; 
0659: 36 80      LD    (HL),$80      ; 
065B: 24         INC   H             ; 
065C: 36 00      LD    (HL),$00      ; 
065E: ED 43 85 81 LD    ($8185),BC    ; 
0662: AF         XOR   A             ; 
0663: 32 2F 80   LD    ($802F),A     ; 
0666: 21 76 06   LD    HL,$0676      ; 
0669: 11 02 7F   LD    DE,$7F02      ; 
066C: 06 0F      LD    B,$0F         ; 
066E: 7E         LD    A,(HL)        ; 
066F: 12         LD    (DE),A        ; 
0670: 1C         INC   E             ; 
0671: 1C         INC   E             ; 
0672: 23         INC   HL            ; 
0673: 10 F9      DJNZ  $66E          ; 
0675: C9         RET                 ; 
0676: 41         LD    B,C           ; 
0677: 42         LD    B,D           ; 
0678: 43         LD    B,E           ; 
0679: 44         LD    B,H           ; 
067A: 45         LD    B,L           ; 
067B: 46         LD    B,(HL)        ; 
067C: 47         LD    B,A           ; 
067D: 48         LD    C,B           ; 
067E: 49         LD    C,C           ; 
067F: 52         LD    D,D           ; 
0680: 51         LD    D,C           ; 
0681: 50         LD    D,B           ; 
0682: 4F         LD    C,A           ; 
0683: 4A         LD    C,D           ; 
0684: 4B         LD    C,E           ; 
0685: ED 43 85 81 LD    ($8185),BC    ; 
0689: 3E 01      LD    A,$01         ; 
068B: 32 2F 80   LD    ($802F),A     ; 
068E: C9         RET                 ; 
068F: 2A 85 81   LD    HL,($8185)    ; 
0692: 3A 11 80   LD    A,($8011)     ; 
0695: BE         CP    (HL)          ; 
0696: C0         RET   NZ            ; 
0697: 23         INC   HL            ; 
0698: 4D         LD    C,L           ; 
0699: 44         LD    B,H           ; 
069A: 03         INC   BC            ; 
069B: 7E         LD    A,(HL)        ; 
069C: 21 A9 06   LD    HL,$06A9      ; 
069F: D7         RST   $10           ; 
06A0: 7E         LD    A,(HL)        ; 
06A1: 21 01 07   LD    HL,$0701      ; 
06A4: CF         RST   $08           ; 
06A5: 5E         LD    E,(HL)        ; 
06A6: 23         INC   HL            ; 
06A7: 56         LD    D,(HL)        ; 
06A8: EB         EX    DE,HL         ; 
06A9: E9         JP    (HL)          ; 
06AA: 00         NOP                 ; 
06AB: 02         LD    (BC),A        ; 
06AC: 03         INC   BC            ; 
06AD: 04         INC   B             ; 
06AE: 05         DEC   B             ; 
06AF: 00         NOP                 ; 
06B0: 00         NOP                 ; 
06B1: 00         NOP                 ; 
06B2: 00         NOP                 ; 
06B3: 00         NOP                 ; 
06B4: 00         NOP                 ; 
06B5: 00         NOP                 ; 
06B6: 00         NOP                 ; 
06B7: 00         NOP                 ; 
06B8: 00         NOP                 ; 
06B9: 00         NOP                 ; 
06BA: 00         NOP                 ; 
06BB: 00         NOP                 ; 
06BC: 00         NOP                 ; 
06BD: 00         NOP                 ; 
06BE: 00         NOP                 ; 
06BF: 00         NOP                 ; 
06C0: 00         NOP                 ; 
06C1: 00         NOP                 ; 
06C2: 0E 0E      LD    C,$0E         ; 
06C4: 01 00 01   LD    BC,$0100      ; 
06C7: 01 01 01   LD    BC,$0101      ; 
06CA: 01 06 07   LD    BC,$0706      ; 
06CD: 08         EX    AF,AF'        ; 
06CE: 09         ADD   HL,BC         ; 
06CF: 01 01 0A   LD    BC,$0A01      ; 
06D2: 0B         DEC   BC            ; 
06D3: 0C         INC   C             ; 
06D4: 0D         DEC   C             ; 
06D5: 01 01 0F   LD    BC,$0F01      ; 
06D8: 10 11      DJNZ  $6EB          ; 
06DA: 00         NOP                 ; 
06DB: 00         NOP                 ; 
06DC: 12         LD    (DE),A        ; 
06DD: 13         INC   DE            ; 
06DE: 01 01 01   LD    BC,$0101      ; 
06E1: 01 01 01   LD    BC,$0101      ; 
06E4: 01 01 01   LD    BC,$0101      ; 
06E7: 01 01 01   LD    BC,$0101      ; 
06EA: 01 01 01   LD    BC,$0101      ; 
06ED: 01 01 01   LD    BC,$0101      ; 
06F0: 01 01 01   LD    BC,$0101      ; 
06F3: 01 01 14   LD    BC,$1401      ; 
06F6: 15         DEC   D             ; 
06F7: 16 00      LD    D,$00         ; 
06F9: 00         NOP                 ; 
06FA: 00         NOP                 ; 
06FB: 00         NOP                 ; 
06FC: 01 00 00   LD    BC,$0000      ; 
06FF: 00         NOP                 ; 
0700: 17         RLA                 ; 
0701: 31 07 3F   LD    SP,$3F07      ; 
0704: 07         RLCA                ; 
0705: BD         CP    L             ; 
0706: 03         INC   BC            ; 
0707: D1         POP   DE            ; 
0708: 03         INC   BC            ; 
0709: EF         RST   $28           ; 
070A: 03         INC   BC            ; 
070B: FD 
070C: 03         INC   BC            ; 
070D: 5D         LD    E,L           ; 
070E: 07         RLCA                ; 
070F: D8         RET   C             ; 
0710: 05         DEC   B             ; 
0711: 3E 04      LD    A,$04         ; 
0713: 48         LD    C,B           ; 
0714: 04         INC   B             ; 
0715: 8E         ADC   A,(HL)        ; 
0716: 04         INC   B             ; 
0717: 52         LD    D,D           ; 
0718: 04         INC   B             ; 
0719: 5C         LD    E,H           ; 
071A: 04         INC   B             ; 
071B: 66         LD    H,(HL)        ; 
071C: 04         INC   B             ; 
071D: 67         LD    H,A           ; 
071E: 07         RLCA                ; 
071F: E1         POP   HL            ; 
0720: 05         DEC   B             ; 
0721: 70         LD    (HL),B        ; 
0722: 04         INC   B             ; 
0723: 7A         LD    A,D           ; 
0724: 04         INC   B             ; 
0725: 2E 06      LD    L,$06         ; 
0727: 40         LD    B,B           ; 
0728: 06 4A      LD    B,$4A         ; 
072A: 06 85      LD    B,$85         ; 
072C: 06 84      LD    B,$84         ; 
072E: 04         INC   B             ; 
072F: 0C         INC   C             ; 
0730: 04         INC   B             ; 
0731: 26 7F      LD    H,$7F         ; 
0733: 0A         LD    A,(BC)        ; 
0734: 6F         LD    L,A           ; 
0735: 0B         DEC   BC            ; 
0736: 0A         LD    A,(BC)        ; 
0737: 77         LD    (HL),A        ; 
0738: 03         INC   BC            ; 
0739: 03         INC   BC            ; 
073A: ED 43 85 81 LD    ($8185),BC    ; 
073E: C9         RET                 ; 
073F: 26 7F      LD    H,$7F         ; 
0741: 0A         LD    A,(BC)        ; 
0742: 6F         LD    L,A           ; 
0743: 0B         DEC   BC            ; 
0744: 0A         LD    A,(BC)        ; 
0745: 77         LD    (HL),A        ; 
0746: 03         INC   BC            ; 
0747: 03         INC   BC            ; 
0748: 26 7B      LD    H,$7B         ; 
074A: 0A         LD    A,(BC)        ; 
074B: 0F         RRCA                ; 
074C: 0F         RRCA                ; 
074D: 0F         RRCA                ; 
074E: 5F         LD    E,A           ; 
074F: E6 E0      AND   $E0           ; 
0751: 77         LD    (HL),A        ; 
0752: 2C         INC   L             ; 
0753: 7B         LD    A,E           ; 
0754: E6 1F      AND   $1F           ; 
0756: 77         LD    (HL),A        ; 
0757: 03         INC   BC            ; 
0758: ED 43 85 81 LD    ($8185),BC    ; 
075C: C9         RET                 ; 
075D: 0A         LD    A,(BC)        ; 
075E: 32 22 84   LD    ($8422),A     ; 
0761: 03         INC   BC            ; 
0762: ED 43 85 81 LD    ($8185),BC    ; 
0766: C9         RET                 ; 
0767: 26 7F      LD    H,$7F         ; 
0769: 0A         LD    A,(BC)        ; 
076A: 6F         LD    L,A           ; 
076B: 0B         DEC   BC            ; 
076C: 0A         LD    A,(BC)        ; 
076D: 77         LD    (HL),A        ; 
076E: 03         INC   BC            ; 
076F: 03         INC   BC            ; 
0770: 26 7B      LD    H,$7B         ; 
0772: 0A         LD    A,(BC)        ; 
0773: 0F         RRCA                ; 
0774: 0F         RRCA                ; 
0775: 0F         RRCA                ; 
0776: 5F         LD    E,A           ; 
0777: E6 E0      AND   $E0           ; 
0779: 77         LD    (HL),A        ; 
077A: 2C         INC   L             ; 
077B: 7B         LD    A,E           ; 
077C: E6 1F      AND   $1F           ; 
077E: 77         LD    (HL),A        ; 
077F: 03         INC   BC            ; 
0780: 2D         DEC   L             ; 
0781: 26 7E      LD    H,$7E         ; 
0783: 0A         LD    A,(BC)        ; 
0784: 77         LD    (HL),A        ; 
0785: 03         INC   BC            ; 
0786: ED 43 85 81 LD    ($8185),BC    ; 
078A: C9         RET                 ; 
078B: F7         RST   $30           ; 
078C: 3A 11 80   LD    A,($8011)     ; 
078F: FE 0E      CP    $0E           ; 
0791: C8         RET   Z             ; 
0792: F7         RST   $30           ; 
0793: 3A 11 80   LD    A,($8011)     ; 
0796: FE 0E      CP    $0E           ; 
0798: C0         RET   NZ            ; 
0799: 3A 87 81   LD    A,($8187)     ; 
079C: 3C         INC   A             ; 
079D: FE 10      CP    $10           ; 
079F: 20 02      JR    NZ,$7A3       ; 
07A1: 3E 06      LD    A,$06         ; 
07A3: 32 87 81   LD    ($8187),A     ; 
07A6: 4F         LD    C,A           ; 
07A7: 21 BD 07   LD    HL,$07BD      ; 
07AA: D7         RST   $10           ; 
07AB: 7E         LD    A,(HL)        ; 
07AC: 32 13 80   LD    ($8013),A     ; 
07AF: 79         LD    A,C           ; 
07B0: 21 00 10   LD    HL,$1000      ; 
07B3: CF         RST   $08           ; 
07B4: 5E         LD    E,(HL)        ; 
07B5: 23         INC   HL            ; 
07B6: 56         LD    D,(HL)        ; 
07B7: ED 53 85 81 LD    ($8185),DE    ; 
07BB: 18 CE      JR    $78B          ; 
07BD: 24         INC   H             ; 
07BE: 00         NOP                 ; 
07BF: 54         LD    D,H           ; 
07C0: 0E 40      LD    C,$40         ; 
07C2: 1A         LD    A,(DE)        ; 
07C3: 64         LD    H,H           ; 
07C4: 04         INC   B             ; 
07C5: 2A 5C 0E   LD    HL,($0E5C)    ; 
07C8: 04         INC   B             ; 
07C9: 38 54      JR    C,$81F        ; 
07CB: 1A         LD    A,(DE)        ; 
07CC: 00         NOP                 ; 
07CD: 3A AD 85   LD    A,($85AD)     ; 
07D0: FE 00      CP    $00           ; 
07D2: C8         RET   Z             ; 
07D3: 3A 01 80   LD    A,($8001)     ; 
07D6: 0F         RRCA                ; 
07D7: 0F         RRCA                ; 
07D8: 0F         RRCA                ; 
07D9: 0F         RRCA                ; 
07DA: E6 01      AND   $01           ; 
07DC: 47         LD    B,A           ; 
07DD: 21 00 18   LD    HL,$1800      ; 
07E0: 11 00 05   LD    DE,$0500      ; 
07E3: 3A 21 80   LD    A,($8021)     ; 
07E6: A7         AND   A             ; 
07E7: 28 01      JR    Z,$7EA        ; 
07E9: EB         EX    DE,HL         ; 
07EA: 4F         LD    C,A           ; 
07EB: CD 0F 08   CALL  $080F         ; 
07EE: EB         EX    DE,HL         ; 
07EF: 3A 22 80   LD    A,($8022)     ; 
07F2: A7         AND   A             ; 
07F3: 3E 06      LD    A,$06         ; 
07F5: 28 07      JR    Z,$7FE        ; 
07F7: 79         LD    A,C           ; 
07F8: EE 01      XOR   $01           ; 
07FA: 4F         LD    C,A           ; 
07FB: 79         LD    A,C           ; 
07FC: 87         ADD   A,A           ; 
07FD: 81         ADD   A,C           ; 
07FE: 11 1F 08   LD    DE,$081F      ; 
0801: EB         EX    DE,HL         ; 
0802: D7         RST   $10           ; 
0803: EB         EX    DE,HL         ; 
0804: 01 C0 03   LD    BC,$03C0      ; 
0807: 1A         LD    A,(DE)        ; 
0808: CD 28 08   CALL  $0828         ; 
080B: 13         INC   DE            ; 
080C: 10 F9      DJNZ  $807          ; 
080E: C9         RET                 ; 
080F: D5         PUSH  DE            ; 
0810: C5         PUSH  BC            ; 
0811: 3A 23 80   LD    A,($8023)     ; 
0814: A0         AND   B             ; 
0815: 28 02      JR    Z,$819        ; 
0817: 0E 02      LD    C,$02         ; 
0819: CD FB 07   CALL  $07FB         ; 
081C: C1         POP   BC            ; 
081D: D1         POP   DE            ; 
081E: C9         RET                 ; 
081F: 01 1E 19   LD    BC,$191E      ; 
0822: 02         LD    (BC),A        ; 
0823: 1E 19      LD    E,$19         ; 
0825: 24         INC   H             ; 
0826: 24         INC   H             ; 
0827: 24         INC   H             ; 
0828: E5         PUSH  HL            ; 
0829: F5         PUSH  AF            ; 
082A: CD 32 08   CALL  $0832         ; 
082D: F1         POP   AF            ; 
082E: 77         LD    (HL),A        ; 
082F: E1         POP   HL            ; 
0830: 25         DEC   H             ; 
0831: C9         RET                 ; 
0832: 3A 03 80   LD    A,($8003)     ; 
0835: 25         DEC   H             ; 
0836: A7         AND   A             ; 
0837: 3E 04      LD    A,$04         ; 
0839: 28 03      JR    Z,$83E        ; 
083B: 25         DEC   H             ; 
083C: 3E 18      LD    A,$18         ; 
083E: 85         ADD   A,L           ; 
083F: E6 3F      AND   $3F           ; 
0841: 6F         LD    L,A           ; 
0842: 3E 03      LD    A,$03         ; 
0844: 84         ADD   A,H           ; 
0845: 0F         RRCA                ; 
0846: 0F         RRCA                ; 
0847: 67         LD    H,A           ; 
0848: E6 C0      AND   $C0           ; 
084A: B5         OR    L             ; 
084B: 6F         LD    L,A           ; 
084C: 7C         LD    A,H           ; 
084D: E6 07      AND   $07           ; 
084F: 81         ADD   A,C           ; 
0850: 67         LD    H,A           ; 
0851: C9         RET                 ; 
0852: FF         RST   $38           ; 
0853: FF         RST   $38           ; 
0854: FF         RST   $38           ; 
0855: FF         RST   $38           ; 
0856: FF         RST   $38           ; 
0857: FF         RST   $38           ; 
0858: FF         RST   $38           ; 
0859: FF         RST   $38           ; 
085A: FF         RST   $38           ; 
085B: FF         RST   $38           ; 
085C: FF         RST   $38           ; 
085D: FF         RST   $38           ; 
085E: FF         RST   $38           ; 
085F: FF         RST   $38           ; 
0860: FF         RST   $38           ; 
0861: FF         RST   $38           ; 
0862: FF         RST   $38           ; 
0863: FF         RST   $38           ; 
0864: FF         RST   $38           ; 
0865: FF         RST   $38           ; 
0866: FF         RST   $38           ; 
0867: FF         RST   $38           ; 
0868: FF         RST   $38           ; 
0869: FF         RST   $38           ; 
086A: FF         RST   $38           ; 
086B: FF         RST   $38           ; 
086C: FF         RST   $38           ; 
086D: FF         RST   $38           ; 
086E: FF         RST   $38           ; 
086F: FF         RST   $38           ; 
0870: FF         RST   $38           ; 
0871: FF         RST   $38           ; 
0872: FF         RST   $38           ; 
0873: FF         RST   $38           ; 
0874: FF         RST   $38           ; 
0875: FF         RST   $38           ; 
0876: FF         RST   $38           ; 
0877: FF         RST   $38           ; 
0878: FF         RST   $38           ; 
0879: FF         RST   $38           ; 
087A: FF         RST   $38           ; 
087B: FF         RST   $38           ; 
087C: FF         RST   $38           ; 
087D: FF         RST   $38           ; 
087E: FF         RST   $38           ; 
087F: FF         RST   $38           ; 
0880: FF         RST   $38           ; 
0881: FF         RST   $38           ; 
0882: FF         RST   $38           ; 
0883: FF         RST   $38           ; 
0884: FF         RST   $38           ; 
0885: FF         RST   $38           ; 
0886: FF         RST   $38           ; 
0887: FF         RST   $38           ; 
0888: FF         RST   $38           ; 
0889: FF         RST   $38           ; 
088A: FF         RST   $38           ; 
088B: FF         RST   $38           ; 
088C: FF         RST   $38           ; 
088D: FF         RST   $38           ; 
088E: FF         RST   $38           ; 
088F: FF         RST   $38           ; 
0890: FF         RST   $38           ; 
0891: FF         RST   $38           ; 
0892: FF         RST   $38           ; 
0893: FF         RST   $38           ; 
0894: FF         RST   $38           ; 
0895: FF         RST   $38           ; 
0896: FF         RST   $38           ; 
0897: FF         RST   $38           ; 
0898: FF         RST   $38           ; 
0899: FF         RST   $38           ; 
089A: FF         RST   $38           ; 
089B: FF         RST   $38           ; 
089C: FF         RST   $38           ; 
089D: FF         RST   $38           ; 
089E: FF         RST   $38           ; 
089F: FF         RST   $38           ; 
08A0: FF         RST   $38           ; 
08A1: FF         RST   $38           ; 
08A2: FF         RST   $38           ; 
08A3: FF         RST   $38           ; 
08A4: FF         RST   $38           ; 
08A5: FF         RST   $38           ; 
08A6: FF         RST   $38           ; 
08A7: FF         RST   $38           ; 
08A8: FF         RST   $38           ; 
08A9: FF         RST   $38           ; 
08AA: FF         RST   $38           ; 
08AB: FF         RST   $38           ; 
08AC: FF         RST   $38           ; 
08AD: FF         RST   $38           ; 
08AE: FF         RST   $38           ; 
08AF: FF         RST   $38           ; 
08B0: FF         RST   $38           ; 
08B1: FF         RST   $38           ; 
08B2: FF         RST   $38           ; 
08B3: FF         RST   $38           ; 
08B4: FF         RST   $38           ; 
08B5: FF         RST   $38           ; 
08B6: FF         RST   $38           ; 
08B7: FF         RST   $38           ; 
08B8: FF         RST   $38           ; 
08B9: FF         RST   $38           ; 
08BA: FF         RST   $38           ; 
08BB: FF         RST   $38           ; 
08BC: FF         RST   $38           ; 
08BD: FF         RST   $38           ; 
08BE: FF         RST   $38           ; 
08BF: FF         RST   $38           ; 
08C0: FF         RST   $38           ; 
08C1: FF         RST   $38           ; 
08C2: FF         RST   $38           ; 
08C3: FF         RST   $38           ; 
08C4: FF         RST   $38           ; 
08C5: FF         RST   $38           ; 
08C6: FF         RST   $38           ; 
08C7: FF         RST   $38           ; 
08C8: FF         RST   $38           ; 
08C9: FF         RST   $38           ; 
08CA: FF         RST   $38           ; 
08CB: FF         RST   $38           ; 
08CC: FF         RST   $38           ; 
08CD: FF         RST   $38           ; 
08CE: FF         RST   $38           ; 
08CF: FF         RST   $38           ; 
08D0: FF         RST   $38           ; 
08D1: FF         RST   $38           ; 
08D2: FF         RST   $38           ; 
08D3: FF         RST   $38           ; 
08D4: FF         RST   $38           ; 
08D5: FF         RST   $38           ; 
08D6: FF         RST   $38           ; 
08D7: FF         RST   $38           ; 
08D8: FF         RST   $38           ; 
08D9: FF         RST   $38           ; 
08DA: FF         RST   $38           ; 
08DB: FF         RST   $38           ; 
08DC: FF         RST   $38           ; 
08DD: FF         RST   $38           ; 
08DE: FF         RST   $38           ; 
08DF: FF         RST   $38           ; 
08E0: FF         RST   $38           ; 
08E1: FF         RST   $38           ; 
08E2: FF         RST   $38           ; 
08E3: FF         RST   $38           ; 
08E4: FF         RST   $38           ; 
08E5: FF         RST   $38           ; 
08E6: FF         RST   $38           ; 
08E7: FF         RST   $38           ; 
08E8: FF         RST   $38           ; 
08E9: FF         RST   $38           ; 
08EA: FF         RST   $38           ; 
08EB: FF         RST   $38           ; 
08EC: FF         RST   $38           ; 
08ED: FF         RST   $38           ; 
08EE: FF         RST   $38           ; 
08EF: FF         RST   $38           ; 
08F0: FF         RST   $38           ; 
08F1: FF         RST   $38           ; 
08F2: FF         RST   $38           ; 
08F3: FF         RST   $38           ; 
08F4: FF         RST   $38           ; 
08F5: FF         RST   $38           ; 
08F6: FF         RST   $38           ; 
08F7: FF         RST   $38           ; 
08F8: FF         RST   $38           ; 
08F9: FF         RST   $38           ; 
08FA: FF         RST   $38           ; 
08FB: FF         RST   $38           ; 
08FC: FF         RST   $38           ; 
08FD: FF         RST   $38           ; 
08FE: FF         RST   $38           ; 
08FF: FF         RST   $38           ; 
0900: FF         RST   $38           ; 
0901: FF         RST   $38           ; 
0902: FF         RST   $38           ; 
0903: FF         RST   $38           ; 
0904: FF         RST   $38           ; 
0905: FF         RST   $38           ; 
0906: FF         RST   $38           ; 
0907: FF         RST   $38           ; 
0908: FF         RST   $38           ; 
0909: FF         RST   $38           ; 
090A: FF         RST   $38           ; 
090B: FF         RST   $38           ; 
090C: FF         RST   $38           ; 
090D: FF         RST   $38           ; 
090E: FF         RST   $38           ; 
090F: FF         RST   $38           ; 
0910: FF         RST   $38           ; 
0911: FF         RST   $38           ; 
0912: FF         RST   $38           ; 
0913: FF         RST   $38           ; 
0914: FF         RST   $38           ; 
0915: FF         RST   $38           ; 
0916: FF         RST   $38           ; 
0917: FF         RST   $38           ; 
0918: FF         RST   $38           ; 
0919: FF         RST   $38           ; 
091A: FF         RST   $38           ; 
091B: FF         RST   $38           ; 
091C: FF         RST   $38           ; 
091D: FF         RST   $38           ; 
091E: FF         RST   $38           ; 
091F: FF         RST   $38           ; 
0920: FF         RST   $38           ; 
0921: FF         RST   $38           ; 
0922: FF         RST   $38           ; 
0923: FF         RST   $38           ; 
0924: FF         RST   $38           ; 
0925: FF         RST   $38           ; 
0926: FF         RST   $38           ; 
0927: FF         RST   $38           ; 
0928: FF         RST   $38           ; 
0929: FF         RST   $38           ; 
092A: FF         RST   $38           ; 
092B: FF         RST   $38           ; 
092C: FF         RST   $38           ; 
092D: FF         RST   $38           ; 
092E: FF         RST   $38           ; 
092F: FF         RST   $38           ; 
0930: FF         RST   $38           ; 
0931: FF         RST   $38           ; 
0932: FF         RST   $38           ; 
0933: FF         RST   $38           ; 
0934: FF         RST   $38           ; 
0935: FF         RST   $38           ; 
0936: FF         RST   $38           ; 
0937: FF         RST   $38           ; 
0938: FF         RST   $38           ; 
0939: FF         RST   $38           ; 
093A: FF         RST   $38           ; 
093B: FF         RST   $38           ; 
093C: FF         RST   $38           ; 
093D: FF         RST   $38           ; 
093E: FF         RST   $38           ; 
093F: FF         RST   $38           ; 
0940: FF         RST   $38           ; 
0941: FF         RST   $38           ; 
0942: FF         RST   $38           ; 
0943: FF         RST   $38           ; 
0944: FF         RST   $38           ; 
0945: FF         RST   $38           ; 
0946: FF         RST   $38           ; 
0947: FF         RST   $38           ; 
0948: FF         RST   $38           ; 
0949: FF         RST   $38           ; 
094A: FF         RST   $38           ; 
094B: FF         RST   $38           ; 
094C: FF         RST   $38           ; 
094D: FF         RST   $38           ; 
094E: FF         RST   $38           ; 
094F: FF         RST   $38           ; 
0950: FF         RST   $38           ; 
0951: FF         RST   $38           ; 
0952: FF         RST   $38           ; 
0953: FF         RST   $38           ; 
0954: FF         RST   $38           ; 
0955: FF         RST   $38           ; 
0956: FF         RST   $38           ; 
0957: FF         RST   $38           ; 
0958: FF         RST   $38           ; 
0959: FF         RST   $38           ; 
095A: FF         RST   $38           ; 
095B: FF         RST   $38           ; 
095C: FF         RST   $38           ; 
095D: FF         RST   $38           ; 
095E: FF         RST   $38           ; 
095F: FF         RST   $38           ; 
0960: FF         RST   $38           ; 
0961: FF         RST   $38           ; 
0962: FF         RST   $38           ; 
0963: FF         RST   $38           ; 
0964: FF         RST   $38           ; 
0965: FF         RST   $38           ; 
0966: FF         RST   $38           ; 
0967: FF         RST   $38           ; 
0968: FF         RST   $38           ; 
0969: FF         RST   $38           ; 
096A: FF         RST   $38           ; 
096B: FF         RST   $38           ; 
096C: FF         RST   $38           ; 
096D: FF         RST   $38           ; 
096E: FF         RST   $38           ; 
096F: FF         RST   $38           ; 
0970: FF         RST   $38           ; 
0971: FF         RST   $38           ; 
0972: FF         RST   $38           ; 
0973: FF         RST   $38           ; 
0974: FF         RST   $38           ; 
0975: FF         RST   $38           ; 
0976: FF         RST   $38           ; 
0977: FF         RST   $38           ; 
0978: FF         RST   $38           ; 
0979: FF         RST   $38           ; 
097A: FF         RST   $38           ; 
097B: FF         RST   $38           ; 
097C: FF         RST   $38           ; 
097D: FF         RST   $38           ; 
097E: FF         RST   $38           ; 
097F: FF         RST   $38           ; 
0980: FF         RST   $38           ; 
0981: FF         RST   $38           ; 
0982: FF         RST   $38           ; 
0983: FF         RST   $38           ; 
0984: FF         RST   $38           ; 
0985: FF         RST   $38           ; 
0986: FF         RST   $38           ; 
0987: FF         RST   $38           ; 
0988: FF         RST   $38           ; 
0989: FF         RST   $38           ; 
098A: FF         RST   $38           ; 
098B: FF         RST   $38           ; 
098C: FF         RST   $38           ; 
098D: FF         RST   $38           ; 
098E: FF         RST   $38           ; 
098F: FF         RST   $38           ; 
0990: FF         RST   $38           ; 
0991: FF         RST   $38           ; 
0992: FF         RST   $38           ; 
0993: FF         RST   $38           ; 
0994: FF         RST   $38           ; 
0995: FF         RST   $38           ; 
0996: FF         RST   $38           ; 
0997: FF         RST   $38           ; 
0998: FF         RST   $38           ; 
0999: FF         RST   $38           ; 
099A: FF         RST   $38           ; 
099B: FF         RST   $38           ; 
099C: FF         RST   $38           ; 
099D: FF         RST   $38           ; 
099E: FF         RST   $38           ; 
099F: FF         RST   $38           ; 
09A0: FF         RST   $38           ; 
09A1: FF         RST   $38           ; 
09A2: FF         RST   $38           ; 
09A3: FF         RST   $38           ; 
09A4: FF         RST   $38           ; 
09A5: FF         RST   $38           ; 
09A6: FF         RST   $38           ; 
09A7: FF         RST   $38           ; 
09A8: FF         RST   $38           ; 
09A9: FF         RST   $38           ; 
09AA: FF         RST   $38           ; 
09AB: FF         RST   $38           ; 
09AC: FF         RST   $38           ; 
09AD: FF         RST   $38           ; 
09AE: FF         RST   $38           ; 
09AF: FF         RST   $38           ; 
09B0: FF         RST   $38           ; 
09B1: FF         RST   $38           ; 
09B2: FF         RST   $38           ; 
09B3: FF         RST   $38           ; 
09B4: FF         RST   $38           ; 
09B5: FF         RST   $38           ; 
09B6: FF         RST   $38           ; 
09B7: FF         RST   $38           ; 
09B8: FF         RST   $38           ; 
09B9: FF         RST   $38           ; 
09BA: FF         RST   $38           ; 
09BB: FF         RST   $38           ; 
09BC: FF         RST   $38           ; 
09BD: FF         RST   $38           ; 
09BE: FF         RST   $38           ; 
09BF: FF         RST   $38           ; 
09C0: FF         RST   $38           ; 
09C1: FF         RST   $38           ; 
09C2: FF         RST   $38           ; 
09C3: FF         RST   $38           ; 
09C4: FF         RST   $38           ; 
09C5: FF         RST   $38           ; 
09C6: FF         RST   $38           ; 
09C7: FF         RST   $38           ; 
09C8: FF         RST   $38           ; 
09C9: FF         RST   $38           ; 
09CA: FF         RST   $38           ; 
09CB: FF         RST   $38           ; 
09CC: FF         RST   $38           ; 
09CD: FF         RST   $38           ; 
09CE: FF         RST   $38           ; 
09CF: FF         RST   $38           ; 
09D0: FF         RST   $38           ; 
09D1: FF         RST   $38           ; 
09D2: FF         RST   $38           ; 
09D3: FF         RST   $38           ; 
09D4: FF         RST   $38           ; 
09D5: FF         RST   $38           ; 
09D6: FF         RST   $38           ; 
09D7: FF         RST   $38           ; 
09D8: FF         RST   $38           ; 
09D9: FF         RST   $38           ; 
09DA: FF         RST   $38           ; 
09DB: FF         RST   $38           ; 
09DC: FF         RST   $38           ; 
09DD: FF         RST   $38           ; 
09DE: FF         RST   $38           ; 
09DF: FF         RST   $38           ; 
09E0: FF         RST   $38           ; 
09E1: FF         RST   $38           ; 
09E2: FF         RST   $38           ; 
09E3: FF         RST   $38           ; 
09E4: FF         RST   $38           ; 
09E5: FF         RST   $38           ; 
09E6: FF         RST   $38           ; 
09E7: FF         RST   $38           ; 
09E8: FF         RST   $38           ; 
09E9: FF         RST   $38           ; 
09EA: FF         RST   $38           ; 
09EB: FF         RST   $38           ; 
09EC: FF         RST   $38           ; 
09ED: FF         RST   $38           ; 
09EE: FF         RST   $38           ; 
09EF: FF         RST   $38           ; 
09F0: FF         RST   $38           ; 
09F1: FF         RST   $38           ; 
09F2: FF         RST   $38           ; 
09F3: FF         RST   $38           ; 
09F4: FF         RST   $38           ; 
09F5: FF         RST   $38           ; 
09F6: FF         RST   $38           ; 
09F7: FF         RST   $38           ; 
09F8: FF         RST   $38           ; 
09F9: FF         RST   $38           ; 
09FA: FF         RST   $38           ; 
09FB: FF         RST   $38           ; 
09FC: FF         RST   $38           ; 
09FD: FF         RST   $38           ; 
09FE: FF         RST   $38           ; 
09FF: FF         RST   $38           ; 
0A00: FF         RST   $38           ; 
0A01: FF         RST   $38           ; 
0A02: FF         RST   $38           ; 
0A03: FF         RST   $38           ; 
0A04: FF         RST   $38           ; 
0A05: FF         RST   $38           ; 
0A06: FF         RST   $38           ; 
0A07: FF         RST   $38           ; 
0A08: FF         RST   $38           ; 
0A09: FF         RST   $38           ; 
0A0A: FF         RST   $38           ; 
0A0B: FF         RST   $38           ; 
0A0C: FF         RST   $38           ; 
0A0D: FF         RST   $38           ; 
0A0E: FF         RST   $38           ; 
0A0F: FF         RST   $38           ; 
0A10: FF         RST   $38           ; 
0A11: FF         RST   $38           ; 
0A12: FF         RST   $38           ; 
0A13: FF         RST   $38           ; 
0A14: FF         RST   $38           ; 
0A15: FF         RST   $38           ; 
0A16: FF         RST   $38           ; 
0A17: FF         RST   $38           ; 
0A18: FF         RST   $38           ; 
0A19: FF         RST   $38           ; 
0A1A: FF         RST   $38           ; 
0A1B: FF         RST   $38           ; 
0A1C: FF         RST   $38           ; 
0A1D: FF         RST   $38           ; 
0A1E: FF         RST   $38           ; 
0A1F: FF         RST   $38           ; 
0A20: FF         RST   $38           ; 
0A21: FF         RST   $38           ; 
0A22: FF         RST   $38           ; 
0A23: FF         RST   $38           ; 
0A24: FF         RST   $38           ; 
0A25: FF         RST   $38           ; 
0A26: FF         RST   $38           ; 
0A27: FF         RST   $38           ; 
0A28: FF         RST   $38           ; 
0A29: FF         RST   $38           ; 
0A2A: FF         RST   $38           ; 
0A2B: FF         RST   $38           ; 
0A2C: FF         RST   $38           ; 
0A2D: FF         RST   $38           ; 
0A2E: FF         RST   $38           ; 
0A2F: FF         RST   $38           ; 
0A30: FF         RST   $38           ; 
0A31: FF         RST   $38           ; 
0A32: FF         RST   $38           ; 
0A33: FF         RST   $38           ; 
0A34: FF         RST   $38           ; 
0A35: FF         RST   $38           ; 
0A36: FF         RST   $38           ; 
0A37: FF         RST   $38           ; 
0A38: FF         RST   $38           ; 
0A39: FF         RST   $38           ; 
0A3A: FF         RST   $38           ; 
0A3B: FF         RST   $38           ; 
0A3C: FF         RST   $38           ; 
0A3D: FF         RST   $38           ; 
0A3E: FF         RST   $38           ; 
0A3F: FF         RST   $38           ; 
0A40: FF         RST   $38           ; 
0A41: FF         RST   $38           ; 
0A42: FF         RST   $38           ; 
0A43: FF         RST   $38           ; 
0A44: FF         RST   $38           ; 
0A45: FF         RST   $38           ; 
0A46: FF         RST   $38           ; 
0A47: FF         RST   $38           ; 
0A48: FF         RST   $38           ; 
0A49: FF         RST   $38           ; 
0A4A: FF         RST   $38           ; 
0A4B: FF         RST   $38           ; 
0A4C: FF         RST   $38           ; 
0A4D: FF         RST   $38           ; 
0A4E: FF         RST   $38           ; 
0A4F: FF         RST   $38           ; 
0A50: FF         RST   $38           ; 
0A51: FF         RST   $38           ; 
0A52: FF         RST   $38           ; 
0A53: FF         RST   $38           ; 
0A54: FF         RST   $38           ; 
0A55: FF         RST   $38           ; 
0A56: FF         RST   $38           ; 
0A57: FF         RST   $38           ; 
0A58: FF         RST   $38           ; 
0A59: FF         RST   $38           ; 
0A5A: FF         RST   $38           ; 
0A5B: FF         RST   $38           ; 
0A5C: FF         RST   $38           ; 
0A5D: FF         RST   $38           ; 
0A5E: FF         RST   $38           ; 
0A5F: FF         RST   $38           ; 
0A60: FF         RST   $38           ; 
0A61: FF         RST   $38           ; 
0A62: FF         RST   $38           ; 
0A63: FF         RST   $38           ; 
0A64: FF         RST   $38           ; 
0A65: FF         RST   $38           ; 
0A66: FF         RST   $38           ; 
0A67: FF         RST   $38           ; 
0A68: FF         RST   $38           ; 
0A69: FF         RST   $38           ; 
0A6A: FF         RST   $38           ; 
0A6B: FF         RST   $38           ; 
0A6C: FF         RST   $38           ; 
0A6D: FF         RST   $38           ; 
0A6E: FF         RST   $38           ; 
0A6F: FF         RST   $38           ; 
0A70: FF         RST   $38           ; 
0A71: FF         RST   $38           ; 
0A72: FF         RST   $38           ; 
0A73: FF         RST   $38           ; 
0A74: FF         RST   $38           ; 
0A75: FF         RST   $38           ; 
0A76: FF         RST   $38           ; 
0A77: FF         RST   $38           ; 
0A78: FF         RST   $38           ; 
0A79: FF         RST   $38           ; 
0A7A: FF         RST   $38           ; 
0A7B: FF         RST   $38           ; 
0A7C: FF         RST   $38           ; 
0A7D: FF         RST   $38           ; 
0A7E: FF         RST   $38           ; 
0A7F: FF         RST   $38           ; 
0A80: FF         RST   $38           ; 
0A81: FF         RST   $38           ; 
0A82: FF         RST   $38           ; 
0A83: FF         RST   $38           ; 
0A84: FF         RST   $38           ; 
0A85: FF         RST   $38           ; 
0A86: FF         RST   $38           ; 
0A87: FF         RST   $38           ; 
0A88: FF         RST   $38           ; 
0A89: FF         RST   $38           ; 
0A8A: FF         RST   $38           ; 
0A8B: FF         RST   $38           ; 
0A8C: FF         RST   $38           ; 
0A8D: FF         RST   $38           ; 
0A8E: FF         RST   $38           ; 
0A8F: FF         RST   $38           ; 
0A90: FF         RST   $38           ; 
0A91: FF         RST   $38           ; 
0A92: FF         RST   $38           ; 
0A93: FF         RST   $38           ; 
0A94: FF         RST   $38           ; 
0A95: FF         RST   $38           ; 
0A96: FF         RST   $38           ; 
0A97: FF         RST   $38           ; 
0A98: FF         RST   $38           ; 
0A99: FF         RST   $38           ; 
0A9A: FF         RST   $38           ; 
0A9B: FF         RST   $38           ; 
0A9C: FF         RST   $38           ; 
0A9D: FF         RST   $38           ; 
0A9E: FF         RST   $38           ; 
0A9F: FF         RST   $38           ; 
0AA0: FF         RST   $38           ; 
0AA1: FF         RST   $38           ; 
0AA2: FF         RST   $38           ; 
0AA3: FF         RST   $38           ; 
0AA4: FF         RST   $38           ; 
0AA5: FF         RST   $38           ; 
0AA6: FF         RST   $38           ; 
0AA7: FF         RST   $38           ; 
0AA8: FF         RST   $38           ; 
0AA9: FF         RST   $38           ; 
0AAA: FF         RST   $38           ; 
0AAB: FF         RST   $38           ; 
0AAC: FF         RST   $38           ; 
0AAD: FF         RST   $38           ; 
0AAE: FF         RST   $38           ; 
0AAF: FF         RST   $38           ; 
0AB0: FF         RST   $38           ; 
0AB1: FF         RST   $38           ; 
0AB2: FF         RST   $38           ; 
0AB3: FF         RST   $38           ; 
0AB4: FF         RST   $38           ; 
0AB5: FF         RST   $38           ; 
0AB6: FF         RST   $38           ; 
0AB7: FF         RST   $38           ; 
0AB8: FF         RST   $38           ; 
0AB9: FF         RST   $38           ; 
0ABA: FF         RST   $38           ; 
0ABB: FF         RST   $38           ; 
0ABC: FF         RST   $38           ; 
0ABD: FF         RST   $38           ; 
0ABE: FF         RST   $38           ; 
0ABF: FF         RST   $38           ; 
0AC0: FF         RST   $38           ; 
0AC1: FF         RST   $38           ; 
0AC2: FF         RST   $38           ; 
0AC3: FF         RST   $38           ; 
0AC4: FF         RST   $38           ; 
0AC5: FF         RST   $38           ; 
0AC6: FF         RST   $38           ; 
0AC7: FF         RST   $38           ; 
0AC8: FF         RST   $38           ; 
0AC9: FF         RST   $38           ; 
0ACA: FF         RST   $38           ; 
0ACB: FF         RST   $38           ; 
0ACC: FF         RST   $38           ; 
0ACD: FF         RST   $38           ; 
0ACE: FF         RST   $38           ; 
0ACF: FF         RST   $38           ; 
0AD0: FF         RST   $38           ; 
0AD1: FF         RST   $38           ; 
0AD2: FF         RST   $38           ; 
0AD3: FF         RST   $38           ; 
0AD4: FF         RST   $38           ; 
0AD5: FF         RST   $38           ; 
0AD6: FF         RST   $38           ; 
0AD7: FF         RST   $38           ; 
0AD8: FF         RST   $38           ; 
0AD9: FF         RST   $38           ; 
0ADA: FF         RST   $38           ; 
0ADB: FF         RST   $38           ; 
0ADC: FF         RST   $38           ; 
0ADD: FF         RST   $38           ; 
0ADE: FF         RST   $38           ; 
0ADF: FF         RST   $38           ; 
0AE0: FF         RST   $38           ; 
0AE1: FF         RST   $38           ; 
0AE2: FF         RST   $38           ; 
0AE3: FF         RST   $38           ; 
0AE4: FF         RST   $38           ; 
0AE5: FF         RST   $38           ; 
0AE6: FF         RST   $38           ; 
0AE7: FF         RST   $38           ; 
0AE8: FF         RST   $38           ; 
0AE9: FF         RST   $38           ; 
0AEA: FF         RST   $38           ; 
0AEB: FF         RST   $38           ; 
0AEC: FF         RST   $38           ; 
0AED: FF         RST   $38           ; 
0AEE: FF         RST   $38           ; 
0AEF: FF         RST   $38           ; 
0AF0: FF         RST   $38           ; 
0AF1: FF         RST   $38           ; 
0AF2: FF         RST   $38           ; 
0AF3: FF         RST   $38           ; 
0AF4: FF         RST   $38           ; 
0AF5: FF         RST   $38           ; 
0AF6: FF         RST   $38           ; 
0AF7: FF         RST   $38           ; 
0AF8: FF         RST   $38           ; 
0AF9: FF         RST   $38           ; 
0AFA: FF         RST   $38           ; 
0AFB: FF         RST   $38           ; 
0AFC: FF         RST   $38           ; 
0AFD: FF         RST   $38           ; 
0AFE: FF         RST   $38           ; 
0AFF: FF         RST   $38           ; 
0B00: FF         RST   $38           ; 
0B01: FF         RST   $38           ; 
0B02: FF         RST   $38           ; 
0B03: FF         RST   $38           ; 
0B04: FF         RST   $38           ; 
0B05: FF         RST   $38           ; 
0B06: FF         RST   $38           ; 
0B07: FF         RST   $38           ; 
0B08: FF         RST   $38           ; 
0B09: FF         RST   $38           ; 
0B0A: FF         RST   $38           ; 
0B0B: FF         RST   $38           ; 
0B0C: FF         RST   $38           ; 
0B0D: FF         RST   $38           ; 
0B0E: FF         RST   $38           ; 
0B0F: FF         RST   $38           ; 
0B10: FF         RST   $38           ; 
0B11: FF         RST   $38           ; 
0B12: FF         RST   $38           ; 
0B13: FF         RST   $38           ; 
0B14: FF         RST   $38           ; 
0B15: FF         RST   $38           ; 
0B16: FF         RST   $38           ; 
0B17: FF         RST   $38           ; 
0B18: FF         RST   $38           ; 
0B19: FF         RST   $38           ; 
0B1A: FF         RST   $38           ; 
0B1B: FF         RST   $38           ; 
0B1C: FF         RST   $38           ; 
0B1D: FF         RST   $38           ; 
0B1E: FF         RST   $38           ; 
0B1F: FF         RST   $38           ; 
0B20: FF         RST   $38           ; 
0B21: FF         RST   $38           ; 
0B22: FF         RST   $38           ; 
0B23: FF         RST   $38           ; 
0B24: FF         RST   $38           ; 
0B25: FF         RST   $38           ; 
0B26: FF         RST   $38           ; 
0B27: FF         RST   $38           ; 
0B28: FF         RST   $38           ; 
0B29: FF         RST   $38           ; 
0B2A: FF         RST   $38           ; 
0B2B: FF         RST   $38           ; 
0B2C: FF         RST   $38           ; 
0B2D: FF         RST   $38           ; 
0B2E: FF         RST   $38           ; 
0B2F: FF         RST   $38           ; 
0B30: FF         RST   $38           ; 
0B31: FF         RST   $38           ; 
0B32: FF         RST   $38           ; 
0B33: FF         RST   $38           ; 
0B34: FF         RST   $38           ; 
0B35: FF         RST   $38           ; 
0B36: FF         RST   $38           ; 
0B37: FF         RST   $38           ; 
0B38: FF         RST   $38           ; 
0B39: FF         RST   $38           ; 
0B3A: FF         RST   $38           ; 
0B3B: FF         RST   $38           ; 
0B3C: FF         RST   $38           ; 
0B3D: FF         RST   $38           ; 
0B3E: FF         RST   $38           ; 
0B3F: FF         RST   $38           ; 
0B40: FF         RST   $38           ; 
0B41: FF         RST   $38           ; 
0B42: FF         RST   $38           ; 
0B43: FF         RST   $38           ; 
0B44: FF         RST   $38           ; 
0B45: FF         RST   $38           ; 
0B46: FF         RST   $38           ; 
0B47: FF         RST   $38           ; 
0B48: FF         RST   $38           ; 
0B49: FF         RST   $38           ; 
0B4A: FF         RST   $38           ; 
0B4B: FF         RST   $38           ; 
0B4C: FF         RST   $38           ; 
0B4D: FF         RST   $38           ; 
0B4E: FF         RST   $38           ; 
0B4F: FF         RST   $38           ; 
0B50: FF         RST   $38           ; 
0B51: FF         RST   $38           ; 
0B52: FF         RST   $38           ; 
0B53: FF         RST   $38           ; 
0B54: FF         RST   $38           ; 
0B55: FF         RST   $38           ; 
0B56: FF         RST   $38           ; 
0B57: FF         RST   $38           ; 
0B58: FF         RST   $38           ; 
0B59: FF         RST   $38           ; 
0B5A: FF         RST   $38           ; 
0B5B: FF         RST   $38           ; 
0B5C: FF         RST   $38           ; 
0B5D: FF         RST   $38           ; 
0B5E: FF         RST   $38           ; 
0B5F: FF         RST   $38           ; 
0B60: FF         RST   $38           ; 
0B61: FF         RST   $38           ; 
0B62: FF         RST   $38           ; 
0B63: FF         RST   $38           ; 
0B64: FF         RST   $38           ; 
0B65: FF         RST   $38           ; 
0B66: FF         RST   $38           ; 
0B67: FF         RST   $38           ; 
0B68: FF         RST   $38           ; 
0B69: FF         RST   $38           ; 
0B6A: FF         RST   $38           ; 
0B6B: FF         RST   $38           ; 
0B6C: FF         RST   $38           ; 
0B6D: FF         RST   $38           ; 
0B6E: FF         RST   $38           ; 
0B6F: FF         RST   $38           ; 
0B70: FF         RST   $38           ; 
0B71: FF         RST   $38           ; 
0B72: FF         RST   $38           ; 
0B73: FF         RST   $38           ; 
0B74: FF         RST   $38           ; 
0B75: FF         RST   $38           ; 
0B76: FF         RST   $38           ; 
0B77: FF         RST   $38           ; 
0B78: FF         RST   $38           ; 
0B79: FF         RST   $38           ; 
0B7A: FF         RST   $38           ; 
0B7B: FF         RST   $38           ; 
0B7C: FF         RST   $38           ; 
0B7D: FF         RST   $38           ; 
0B7E: FF         RST   $38           ; 
0B7F: FF         RST   $38           ; 
0B80: FF         RST   $38           ; 
0B81: FF         RST   $38           ; 
0B82: FF         RST   $38           ; 
0B83: FF         RST   $38           ; 
0B84: FF         RST   $38           ; 
0B85: FF         RST   $38           ; 
0B86: FF         RST   $38           ; 
0B87: FF         RST   $38           ; 
0B88: FF         RST   $38           ; 
0B89: FF         RST   $38           ; 
0B8A: FF         RST   $38           ; 
0B8B: FF         RST   $38           ; 
0B8C: FF         RST   $38           ; 
0B8D: FF         RST   $38           ; 
0B8E: FF         RST   $38           ; 
0B8F: FF         RST   $38           ; 
0B90: FF         RST   $38           ; 
0B91: FF         RST   $38           ; 
0B92: FF         RST   $38           ; 
0B93: FF         RST   $38           ; 
0B94: FF         RST   $38           ; 
0B95: FF         RST   $38           ; 
0B96: FF         RST   $38           ; 
0B97: FF         RST   $38           ; 
0B98: FF         RST   $38           ; 
0B99: FF         RST   $38           ; 
0B9A: FF         RST   $38           ; 
0B9B: FF         RST   $38           ; 
0B9C: FF         RST   $38           ; 
0B9D: FF         RST   $38           ; 
0B9E: FF         RST   $38           ; 
0B9F: FF         RST   $38           ; 
0BA0: FF         RST   $38           ; 
0BA1: FF         RST   $38           ; 
0BA2: FF         RST   $38           ; 
0BA3: FF         RST   $38           ; 
0BA4: FF         RST   $38           ; 
0BA5: FF         RST   $38           ; 
0BA6: FF         RST   $38           ; 
0BA7: FF         RST   $38           ; 
0BA8: FF         RST   $38           ; 
0BA9: FF         RST   $38           ; 
0BAA: FF         RST   $38           ; 
0BAB: FF         RST   $38           ; 
0BAC: FF         RST   $38           ; 
0BAD: FF         RST   $38           ; 
0BAE: FF         RST   $38           ; 
0BAF: FF         RST   $38           ; 
0BB0: FF         RST   $38           ; 
0BB1: FF         RST   $38           ; 
0BB2: FF         RST   $38           ; 
0BB3: FF         RST   $38           ; 
0BB4: FF         RST   $38           ; 
0BB5: FF         RST   $38           ; 
0BB6: FF         RST   $38           ; 
0BB7: FF         RST   $38           ; 
0BB8: FF         RST   $38           ; 
0BB9: FF         RST   $38           ; 
0BBA: FF         RST   $38           ; 
0BBB: FF         RST   $38           ; 
0BBC: FF         RST   $38           ; 
0BBD: FF         RST   $38           ; 
0BBE: FF         RST   $38           ; 
0BBF: FF         RST   $38           ; 
0BC0: FF         RST   $38           ; 
0BC1: FF         RST   $38           ; 
0BC2: FF         RST   $38           ; 
0BC3: FF         RST   $38           ; 
0BC4: FF         RST   $38           ; 
0BC5: FF         RST   $38           ; 
0BC6: FF         RST   $38           ; 
0BC7: FF         RST   $38           ; 
0BC8: FF         RST   $38           ; 
0BC9: FF         RST   $38           ; 
0BCA: FF         RST   $38           ; 
0BCB: FF         RST   $38           ; 
0BCC: FF         RST   $38           ; 
0BCD: FF         RST   $38           ; 
0BCE: FF         RST   $38           ; 
0BCF: FF         RST   $38           ; 
0BD0: FF         RST   $38           ; 
0BD1: FF         RST   $38           ; 
0BD2: FF         RST   $38           ; 
0BD3: FF         RST   $38           ; 
0BD4: FF         RST   $38           ; 
0BD5: FF         RST   $38           ; 
0BD6: FF         RST   $38           ; 
0BD7: FF         RST   $38           ; 
0BD8: FF         RST   $38           ; 
0BD9: FF         RST   $38           ; 
0BDA: FF         RST   $38           ; 
0BDB: FF         RST   $38           ; 
0BDC: FF         RST   $38           ; 
0BDD: FF         RST   $38           ; 
0BDE: FF         RST   $38           ; 
0BDF: FF         RST   $38           ; 
0BE0: FF         RST   $38           ; 
0BE1: FF         RST   $38           ; 
0BE2: FF         RST   $38           ; 
0BE3: FF         RST   $38           ; 
0BE4: FF         RST   $38           ; 
0BE5: FF         RST   $38           ; 
0BE6: FF         RST   $38           ; 
0BE7: FF         RST   $38           ; 
0BE8: FF         RST   $38           ; 
0BE9: FF         RST   $38           ; 
0BEA: FF         RST   $38           ; 
0BEB: FF         RST   $38           ; 
0BEC: FF         RST   $38           ; 
0BED: FF         RST   $38           ; 
0BEE: FF         RST   $38           ; 
0BEF: FF         RST   $38           ; 
0BF0: FF         RST   $38           ; 
0BF1: FF         RST   $38           ; 
0BF2: FF         RST   $38           ; 
0BF3: FF         RST   $38           ; 
0BF4: FF         RST   $38           ; 
0BF5: FF         RST   $38           ; 
0BF6: FF         RST   $38           ; 
0BF7: FF         RST   $38           ; 
0BF8: FF         RST   $38           ; 
0BF9: FF         RST   $38           ; 
0BFA: FF         RST   $38           ; 
0BFB: FF         RST   $38           ; 
0BFC: FF         RST   $38           ; 
0BFD: FF         RST   $38           ; 
0BFE: FF         RST   $38           ; 
0BFF: FF         RST   $38           ; 
0C00: FF         RST   $38           ; 
0C01: FF         RST   $38           ; 
0C02: FF         RST   $38           ; 
0C03: FF         RST   $38           ; 
0C04: FF         RST   $38           ; 
0C05: FF         RST   $38           ; 
0C06: FF         RST   $38           ; 
0C07: FF         RST   $38           ; 
0C08: FF         RST   $38           ; 
0C09: FF         RST   $38           ; 
0C0A: FF         RST   $38           ; 
0C0B: FF         RST   $38           ; 
0C0C: FF         RST   $38           ; 
0C0D: FF         RST   $38           ; 
0C0E: FF         RST   $38           ; 
0C0F: FF         RST   $38           ; 
0C10: FF         RST   $38           ; 
0C11: FF         RST   $38           ; 
0C12: FF         RST   $38           ; 
0C13: FF         RST   $38           ; 
0C14: FF         RST   $38           ; 
0C15: FF         RST   $38           ; 
0C16: FF         RST   $38           ; 
0C17: FF         RST   $38           ; 
0C18: FF         RST   $38           ; 
0C19: FF         RST   $38           ; 
0C1A: FF         RST   $38           ; 
0C1B: FF         RST   $38           ; 
0C1C: FF         RST   $38           ; 
0C1D: FF         RST   $38           ; 
0C1E: FF         RST   $38           ; 
0C1F: FF         RST   $38           ; 
0C20: FF         RST   $38           ; 
0C21: FF         RST   $38           ; 
0C22: FF         RST   $38           ; 
0C23: FF         RST   $38           ; 
0C24: FF         RST   $38           ; 
0C25: FF         RST   $38           ; 
0C26: FF         RST   $38           ; 
0C27: FF         RST   $38           ; 
0C28: FF         RST   $38           ; 
0C29: FF         RST   $38           ; 
0C2A: FF         RST   $38           ; 
0C2B: FF         RST   $38           ; 
0C2C: FF         RST   $38           ; 
0C2D: FF         RST   $38           ; 
0C2E: FF         RST   $38           ; 
0C2F: FF         RST   $38           ; 
0C30: FF         RST   $38           ; 
0C31: FF         RST   $38           ; 
0C32: FF         RST   $38           ; 
0C33: FF         RST   $38           ; 
0C34: FF         RST   $38           ; 
0C35: FF         RST   $38           ; 
0C36: FF         RST   $38           ; 
0C37: FF         RST   $38           ; 
0C38: FF         RST   $38           ; 
0C39: FF         RST   $38           ; 
0C3A: FF         RST   $38           ; 
0C3B: FF         RST   $38           ; 
0C3C: FF         RST   $38           ; 
0C3D: FF         RST   $38           ; 
0C3E: FF         RST   $38           ; 
0C3F: FF         RST   $38           ; 
0C40: FF         RST   $38           ; 
0C41: FF         RST   $38           ; 
0C42: FF         RST   $38           ; 
0C43: FF         RST   $38           ; 
0C44: FF         RST   $38           ; 
0C45: FF         RST   $38           ; 
0C46: FF         RST   $38           ; 
0C47: FF         RST   $38           ; 
0C48: FF         RST   $38           ; 
0C49: FF         RST   $38           ; 
0C4A: FF         RST   $38           ; 
0C4B: FF         RST   $38           ; 
0C4C: FF         RST   $38           ; 
0C4D: FF         RST   $38           ; 
0C4E: FF         RST   $38           ; 
0C4F: FF         RST   $38           ; 
0C50: FF         RST   $38           ; 
0C51: FF         RST   $38           ; 
0C52: FF         RST   $38           ; 
0C53: FF         RST   $38           ; 
0C54: FF         RST   $38           ; 
0C55: FF         RST   $38           ; 
0C56: FF         RST   $38           ; 
0C57: FF         RST   $38           ; 
0C58: FF         RST   $38           ; 
0C59: FF         RST   $38           ; 
0C5A: FF         RST   $38           ; 
0C5B: FF         RST   $38           ; 
0C5C: FF         RST   $38           ; 
0C5D: FF         RST   $38           ; 
0C5E: FF         RST   $38           ; 
0C5F: FF         RST   $38           ; 
0C60: FF         RST   $38           ; 
0C61: FF         RST   $38           ; 
0C62: FF         RST   $38           ; 
0C63: FF         RST   $38           ; 
0C64: FF         RST   $38           ; 
0C65: FF         RST   $38           ; 
0C66: FF         RST   $38           ; 
0C67: FF         RST   $38           ; 
0C68: FF         RST   $38           ; 
0C69: FF         RST   $38           ; 
0C6A: FF         RST   $38           ; 
0C6B: FF         RST   $38           ; 
0C6C: FF         RST   $38           ; 
0C6D: FF         RST   $38           ; 
0C6E: FF         RST   $38           ; 
0C6F: FF         RST   $38           ; 
0C70: FF         RST   $38           ; 
0C71: FF         RST   $38           ; 
0C72: FF         RST   $38           ; 
0C73: FF         RST   $38           ; 
0C74: FF         RST   $38           ; 
0C75: FF         RST   $38           ; 
0C76: FF         RST   $38           ; 
0C77: FF         RST   $38           ; 
0C78: FF         RST   $38           ; 
0C79: FF         RST   $38           ; 
0C7A: FF         RST   $38           ; 
0C7B: FF         RST   $38           ; 
0C7C: FF         RST   $38           ; 
0C7D: FF         RST   $38           ; 
0C7E: FF         RST   $38           ; 
0C7F: FF         RST   $38           ; 
0C80: FF         RST   $38           ; 
0C81: FF         RST   $38           ; 
0C82: FF         RST   $38           ; 
0C83: FF         RST   $38           ; 
0C84: FF         RST   $38           ; 
0C85: FF         RST   $38           ; 
0C86: FF         RST   $38           ; 
0C87: FF         RST   $38           ; 
0C88: FF         RST   $38           ; 
0C89: FF         RST   $38           ; 
0C8A: FF         RST   $38           ; 
0C8B: FF         RST   $38           ; 
0C8C: FF         RST   $38           ; 
0C8D: FF         RST   $38           ; 
0C8E: FF         RST   $38           ; 
0C8F: FF         RST   $38           ; 
0C90: FF         RST   $38           ; 
0C91: FF         RST   $38           ; 
0C92: FF         RST   $38           ; 
0C93: FF         RST   $38           ; 
0C94: FF         RST   $38           ; 
0C95: FF         RST   $38           ; 
0C96: FF         RST   $38           ; 
0C97: FF         RST   $38           ; 
0C98: FF         RST   $38           ; 
0C99: FF         RST   $38           ; 
0C9A: FF         RST   $38           ; 
0C9B: FF         RST   $38           ; 
0C9C: FF         RST   $38           ; 
0C9D: FF         RST   $38           ; 
0C9E: FF         RST   $38           ; 
0C9F: FF         RST   $38           ; 
0CA0: FF         RST   $38           ; 
0CA1: FF         RST   $38           ; 
0CA2: FF         RST   $38           ; 
0CA3: FF         RST   $38           ; 
0CA4: FF         RST   $38           ; 
0CA5: FF         RST   $38           ; 
0CA6: FF         RST   $38           ; 
0CA7: FF         RST   $38           ; 
0CA8: FF         RST   $38           ; 
0CA9: FF         RST   $38           ; 
0CAA: FF         RST   $38           ; 
0CAB: FF         RST   $38           ; 
0CAC: FF         RST   $38           ; 
0CAD: FF         RST   $38           ; 
0CAE: FF         RST   $38           ; 
0CAF: FF         RST   $38           ; 
0CB0: FF         RST   $38           ; 
0CB1: FF         RST   $38           ; 
0CB2: FF         RST   $38           ; 
0CB3: FF         RST   $38           ; 
0CB4: FF         RST   $38           ; 
0CB5: FF         RST   $38           ; 
0CB6: FF         RST   $38           ; 
0CB7: FF         RST   $38           ; 
0CB8: FF         RST   $38           ; 
0CB9: FF         RST   $38           ; 
0CBA: FF         RST   $38           ; 
0CBB: FF         RST   $38           ; 
0CBC: FF         RST   $38           ; 
0CBD: FF         RST   $38           ; 
0CBE: FF         RST   $38           ; 
0CBF: FF         RST   $38           ; 
0CC0: FF         RST   $38           ; 
0CC1: FF         RST   $38           ; 
0CC2: FF         RST   $38           ; 
0CC3: FF         RST   $38           ; 
0CC4: FF         RST   $38           ; 
0CC5: FF         RST   $38           ; 
0CC6: FF         RST   $38           ; 
0CC7: FF         RST   $38           ; 
0CC8: FF         RST   $38           ; 
0CC9: FF         RST   $38           ; 
0CCA: FF         RST   $38           ; 
0CCB: FF         RST   $38           ; 
0CCC: FF         RST   $38           ; 
0CCD: FF         RST   $38           ; 
0CCE: FF         RST   $38           ; 
0CCF: FF         RST   $38           ; 
0CD0: FF         RST   $38           ; 
0CD1: FF         RST   $38           ; 
0CD2: FF         RST   $38           ; 
0CD3: FF         RST   $38           ; 
0CD4: FF         RST   $38           ; 
0CD5: FF         RST   $38           ; 
0CD6: FF         RST   $38           ; 
0CD7: FF         RST   $38           ; 
0CD8: FF         RST   $38           ; 
0CD9: FF         RST   $38           ; 
0CDA: FF         RST   $38           ; 
0CDB: FF         RST   $38           ; 
0CDC: FF         RST   $38           ; 
0CDD: FF         RST   $38           ; 
0CDE: FF         RST   $38           ; 
0CDF: FF         RST   $38           ; 
0CE0: FF         RST   $38           ; 
0CE1: FF         RST   $38           ; 
0CE2: FF         RST   $38           ; 
0CE3: FF         RST   $38           ; 
0CE4: FF         RST   $38           ; 
0CE5: FF         RST   $38           ; 
0CE6: FF         RST   $38           ; 
0CE7: FF         RST   $38           ; 
0CE8: FF         RST   $38           ; 
0CE9: FF         RST   $38           ; 
0CEA: FF         RST   $38           ; 
0CEB: FF         RST   $38           ; 
0CEC: FF         RST   $38           ; 
0CED: FF         RST   $38           ; 
0CEE: FF         RST   $38           ; 
0CEF: FF         RST   $38           ; 
0CF0: FF         RST   $38           ; 
0CF1: FF         RST   $38           ; 
0CF2: FF         RST   $38           ; 
0CF3: FF         RST   $38           ; 
0CF4: FF         RST   $38           ; 
0CF5: FF         RST   $38           ; 
0CF6: FF         RST   $38           ; 
0CF7: FF         RST   $38           ; 
0CF8: FF         RST   $38           ; 
0CF9: FF         RST   $38           ; 
0CFA: FF         RST   $38           ; 
0CFB: FF         RST   $38           ; 
0CFC: FF         RST   $38           ; 
0CFD: FF         RST   $38           ; 
0CFE: FF         RST   $38           ; 
0CFF: FF         RST   $38           ; 
0D00: FF         RST   $38           ; 
0D01: FF         RST   $38           ; 
0D02: FF         RST   $38           ; 
0D03: FF         RST   $38           ; 
0D04: FF         RST   $38           ; 
0D05: FF         RST   $38           ; 
0D06: FF         RST   $38           ; 
0D07: FF         RST   $38           ; 
0D08: FF         RST   $38           ; 
0D09: FF         RST   $38           ; 
0D0A: FF         RST   $38           ; 
0D0B: FF         RST   $38           ; 
0D0C: FF         RST   $38           ; 
0D0D: FF         RST   $38           ; 
0D0E: FF         RST   $38           ; 
0D0F: FF         RST   $38           ; 
0D10: FF         RST   $38           ; 
0D11: FF         RST   $38           ; 
0D12: FF         RST   $38           ; 
0D13: FF         RST   $38           ; 
0D14: FF         RST   $38           ; 
0D15: FF         RST   $38           ; 
0D16: FF         RST   $38           ; 
0D17: FF         RST   $38           ; 
0D18: FF         RST   $38           ; 
0D19: FF         RST   $38           ; 
0D1A: FF         RST   $38           ; 
0D1B: FF         RST   $38           ; 
0D1C: FF         RST   $38           ; 
0D1D: FF         RST   $38           ; 
0D1E: FF         RST   $38           ; 
0D1F: FF         RST   $38           ; 
0D20: FF         RST   $38           ; 
0D21: FF         RST   $38           ; 
0D22: FF         RST   $38           ; 
0D23: FF         RST   $38           ; 
0D24: FF         RST   $38           ; 
0D25: FF         RST   $38           ; 
0D26: FF         RST   $38           ; 
0D27: FF         RST   $38           ; 
0D28: FF         RST   $38           ; 
0D29: FF         RST   $38           ; 
0D2A: FF         RST   $38           ; 
0D2B: FF         RST   $38           ; 
0D2C: FF         RST   $38           ; 
0D2D: FF         RST   $38           ; 
0D2E: FF         RST   $38           ; 
0D2F: FF         RST   $38           ; 
0D30: FF         RST   $38           ; 
0D31: FF         RST   $38           ; 
0D32: FF         RST   $38           ; 
0D33: FF         RST   $38           ; 
0D34: FF         RST   $38           ; 
0D35: FF         RST   $38           ; 
0D36: FF         RST   $38           ; 
0D37: FF         RST   $38           ; 
0D38: FF         RST   $38           ; 
0D39: FF         RST   $38           ; 
0D3A: FF         RST   $38           ; 
0D3B: FF         RST   $38           ; 
0D3C: FF         RST   $38           ; 
0D3D: FF         RST   $38           ; 
0D3E: FF         RST   $38           ; 
0D3F: FF         RST   $38           ; 
0D40: FF         RST   $38           ; 
0D41: FF         RST   $38           ; 
0D42: FF         RST   $38           ; 
0D43: FF         RST   $38           ; 
0D44: FF         RST   $38           ; 
0D45: FF         RST   $38           ; 
0D46: FF         RST   $38           ; 
0D47: FF         RST   $38           ; 
0D48: FF         RST   $38           ; 
0D49: FF         RST   $38           ; 
0D4A: FF         RST   $38           ; 
0D4B: FF         RST   $38           ; 
0D4C: FF         RST   $38           ; 
0D4D: FF         RST   $38           ; 
0D4E: FF         RST   $38           ; 
0D4F: FF         RST   $38           ; 
0D50: FF         RST   $38           ; 
0D51: FF         RST   $38           ; 
0D52: FF         RST   $38           ; 
0D53: FF         RST   $38           ; 
0D54: FF         RST   $38           ; 
0D55: FF         RST   $38           ; 
0D56: FF         RST   $38           ; 
0D57: FF         RST   $38           ; 
0D58: FF         RST   $38           ; 
0D59: FF         RST   $38           ; 
0D5A: FF         RST   $38           ; 
0D5B: FF         RST   $38           ; 
0D5C: FF         RST   $38           ; 
0D5D: FF         RST   $38           ; 
0D5E: FF         RST   $38           ; 
0D5F: FF         RST   $38           ; 
0D60: FF         RST   $38           ; 
0D61: FF         RST   $38           ; 
0D62: FF         RST   $38           ; 
0D63: FF         RST   $38           ; 
0D64: FF         RST   $38           ; 
0D65: FF         RST   $38           ; 
0D66: FF         RST   $38           ; 
0D67: FF         RST   $38           ; 
0D68: FF         RST   $38           ; 
0D69: FF         RST   $38           ; 
0D6A: FF         RST   $38           ; 
0D6B: FF         RST   $38           ; 
0D6C: FF         RST   $38           ; 
0D6D: FF         RST   $38           ; 
0D6E: FF         RST   $38           ; 
0D6F: FF         RST   $38           ; 
0D70: FF         RST   $38           ; 
0D71: FF         RST   $38           ; 
0D72: FF         RST   $38           ; 
0D73: FF         RST   $38           ; 
0D74: FF         RST   $38           ; 
0D75: FF         RST   $38           ; 
0D76: FF         RST   $38           ; 
0D77: FF         RST   $38           ; 
0D78: FF         RST   $38           ; 
0D79: FF         RST   $38           ; 
0D7A: FF         RST   $38           ; 
0D7B: FF         RST   $38           ; 
0D7C: FF         RST   $38           ; 
0D7D: FF         RST   $38           ; 
0D7E: FF         RST   $38           ; 
0D7F: FF         RST   $38           ; 
0D80: FF         RST   $38           ; 
0D81: FF         RST   $38           ; 
0D82: FF         RST   $38           ; 
0D83: FF         RST   $38           ; 
0D84: FF         RST   $38           ; 
0D85: FF         RST   $38           ; 
0D86: FF         RST   $38           ; 
0D87: FF         RST   $38           ; 
0D88: FF         RST   $38           ; 
0D89: FF         RST   $38           ; 
0D8A: FF         RST   $38           ; 
0D8B: FF         RST   $38           ; 
0D8C: FF         RST   $38           ; 
0D8D: FF         RST   $38           ; 
0D8E: FF         RST   $38           ; 
0D8F: FF         RST   $38           ; 
0D90: FF         RST   $38           ; 
0D91: FF         RST   $38           ; 
0D92: FF         RST   $38           ; 
0D93: FF         RST   $38           ; 
0D94: FF         RST   $38           ; 
0D95: FF         RST   $38           ; 
0D96: FF         RST   $38           ; 
0D97: FF         RST   $38           ; 
0D98: FF         RST   $38           ; 
0D99: FF         RST   $38           ; 
0D9A: FF         RST   $38           ; 
0D9B: FF         RST   $38           ; 
0D9C: FF         RST   $38           ; 
0D9D: FF         RST   $38           ; 
0D9E: FF         RST   $38           ; 
0D9F: FF         RST   $38           ; 
0DA0: FF         RST   $38           ; 
0DA1: FF         RST   $38           ; 
0DA2: FF         RST   $38           ; 
0DA3: FF         RST   $38           ; 
0DA4: FF         RST   $38           ; 
0DA5: FF         RST   $38           ; 
0DA6: FF         RST   $38           ; 
0DA7: FF         RST   $38           ; 
0DA8: FF         RST   $38           ; 
0DA9: FF         RST   $38           ; 
0DAA: FF         RST   $38           ; 
0DAB: FF         RST   $38           ; 
0DAC: FF         RST   $38           ; 
0DAD: FF         RST   $38           ; 
0DAE: FF         RST   $38           ; 
0DAF: FF         RST   $38           ; 
0DB0: FF         RST   $38           ; 
0DB1: FF         RST   $38           ; 
0DB2: FF         RST   $38           ; 
0DB3: FF         RST   $38           ; 
0DB4: FF         RST   $38           ; 
0DB5: FF         RST   $38           ; 
0DB6: FF         RST   $38           ; 
0DB7: FF         RST   $38           ; 
0DB8: FF         RST   $38           ; 
0DB9: FF         RST   $38           ; 
0DBA: FF         RST   $38           ; 
0DBB: FF         RST   $38           ; 
0DBC: FF         RST   $38           ; 
0DBD: FF         RST   $38           ; 
0DBE: FF         RST   $38           ; 
0DBF: FF         RST   $38           ; 
0DC0: FF         RST   $38           ; 
0DC1: FF         RST   $38           ; 
0DC2: FF         RST   $38           ; 
0DC3: FF         RST   $38           ; 
0DC4: FF         RST   $38           ; 
0DC5: FF         RST   $38           ; 
0DC6: FF         RST   $38           ; 
0DC7: FF         RST   $38           ; 
0DC8: FF         RST   $38           ; 
0DC9: FF         RST   $38           ; 
0DCA: FF         RST   $38           ; 
0DCB: FF         RST   $38           ; 
0DCC: FF         RST   $38           ; 
0DCD: FF         RST   $38           ; 
0DCE: FF         RST   $38           ; 
0DCF: FF         RST   $38           ; 
0DD0: FF         RST   $38           ; 
0DD1: FF         RST   $38           ; 
0DD2: FF         RST   $38           ; 
0DD3: FF         RST   $38           ; 
0DD4: FF         RST   $38           ; 
0DD5: FF         RST   $38           ; 
0DD6: FF         RST   $38           ; 
0DD7: FF         RST   $38           ; 
0DD8: FF         RST   $38           ; 
0DD9: FF         RST   $38           ; 
0DDA: FF         RST   $38           ; 
0DDB: FF         RST   $38           ; 
0DDC: FF         RST   $38           ; 
0DDD: FF         RST   $38           ; 
0DDE: FF         RST   $38           ; 
0DDF: FF         RST   $38           ; 
0DE0: FF         RST   $38           ; 
0DE1: FF         RST   $38           ; 
0DE2: FF         RST   $38           ; 
0DE3: FF         RST   $38           ; 
0DE4: FF         RST   $38           ; 
0DE5: FF         RST   $38           ; 
0DE6: FF         RST   $38           ; 
0DE7: FF         RST   $38           ; 
0DE8: FF         RST   $38           ; 
0DE9: FF         RST   $38           ; 
0DEA: FF         RST   $38           ; 
0DEB: FF         RST   $38           ; 
0DEC: FF         RST   $38           ; 
0DED: FF         RST   $38           ; 
0DEE: FF         RST   $38           ; 
0DEF: FF         RST   $38           ; 
0DF0: FF         RST   $38           ; 
0DF1: FF         RST   $38           ; 
0DF2: FF         RST   $38           ; 
0DF3: FF         RST   $38           ; 
0DF4: FF         RST   $38           ; 
0DF5: FF         RST   $38           ; 
0DF6: FF         RST   $38           ; 
0DF7: FF         RST   $38           ; 
0DF8: FF         RST   $38           ; 
0DF9: FF         RST   $38           ; 
0DFA: FF         RST   $38           ; 
0DFB: FF         RST   $38           ; 
0DFC: FF         RST   $38           ; 
0DFD: FF         RST   $38           ; 
0DFE: FF         RST   $38           ; 
0DFF: FF         RST   $38           ; 
0E00: FF         RST   $38           ; 
0E01: FF         RST   $38           ; 
0E02: FF         RST   $38           ; 
0E03: FF         RST   $38           ; 
0E04: FF         RST   $38           ; 
0E05: FF         RST   $38           ; 
0E06: FF         RST   $38           ; 
0E07: FF         RST   $38           ; 
0E08: FF         RST   $38           ; 
0E09: FF         RST   $38           ; 
0E0A: FF         RST   $38           ; 
0E0B: FF         RST   $38           ; 
0E0C: FF         RST   $38           ; 
0E0D: FF         RST   $38           ; 
0E0E: FF         RST   $38           ; 
0E0F: FF         RST   $38           ; 
0E10: FF         RST   $38           ; 
0E11: FF         RST   $38           ; 
0E12: FF         RST   $38           ; 
0E13: FF         RST   $38           ; 
0E14: FF         RST   $38           ; 
0E15: FF         RST   $38           ; 
0E16: FF         RST   $38           ; 
0E17: FF         RST   $38           ; 
0E18: FF         RST   $38           ; 
0E19: FF         RST   $38           ; 
0E1A: FF         RST   $38           ; 
0E1B: FF         RST   $38           ; 
0E1C: FF         RST   $38           ; 
0E1D: FF         RST   $38           ; 
0E1E: FF         RST   $38           ; 
0E1F: FF         RST   $38           ; 
0E20: FF         RST   $38           ; 
0E21: FF         RST   $38           ; 
0E22: FF         RST   $38           ; 
0E23: FF         RST   $38           ; 
0E24: FF         RST   $38           ; 
0E25: FF         RST   $38           ; 
0E26: FF         RST   $38           ; 
0E27: FF         RST   $38           ; 
0E28: FF         RST   $38           ; 
0E29: FF         RST   $38           ; 
0E2A: FF         RST   $38           ; 
0E2B: FF         RST   $38           ; 
0E2C: FF         RST   $38           ; 
0E2D: FF         RST   $38           ; 
0E2E: FF         RST   $38           ; 
0E2F: FF         RST   $38           ; 
0E30: FF         RST   $38           ; 
0E31: FF         RST   $38           ; 
0E32: FF         RST   $38           ; 
0E33: FF         RST   $38           ; 
0E34: FF         RST   $38           ; 
0E35: FF         RST   $38           ; 
0E36: FF         RST   $38           ; 
0E37: FF         RST   $38           ; 
0E38: FF         RST   $38           ; 
0E39: FF         RST   $38           ; 
0E3A: FF         RST   $38           ; 
0E3B: FF         RST   $38           ; 
0E3C: FF         RST   $38           ; 
0E3D: FF         RST   $38           ; 
0E3E: FF         RST   $38           ; 
0E3F: FF         RST   $38           ; 
0E40: FF         RST   $38           ; 
0E41: FF         RST   $38           ; 
0E42: FF         RST   $38           ; 
0E43: FF         RST   $38           ; 
0E44: FF         RST   $38           ; 
0E45: FF         RST   $38           ; 
0E46: FF         RST   $38           ; 
0E47: FF         RST   $38           ; 
0E48: FF         RST   $38           ; 
0E49: FF         RST   $38           ; 
0E4A: FF         RST   $38           ; 
0E4B: FF         RST   $38           ; 
0E4C: FF         RST   $38           ; 
0E4D: FF         RST   $38           ; 
0E4E: FF         RST   $38           ; 
0E4F: FF         RST   $38           ; 
0E50: FF         RST   $38           ; 
0E51: FF         RST   $38           ; 
0E52: FF         RST   $38           ; 
0E53: FF         RST   $38           ; 
0E54: FF         RST   $38           ; 
0E55: FF         RST   $38           ; 
0E56: FF         RST   $38           ; 
0E57: FF         RST   $38           ; 
0E58: FF         RST   $38           ; 
0E59: FF         RST   $38           ; 
0E5A: FF         RST   $38           ; 
0E5B: FF         RST   $38           ; 
0E5C: FF         RST   $38           ; 
0E5D: FF         RST   $38           ; 
0E5E: FF         RST   $38           ; 
0E5F: FF         RST   $38           ; 
0E60: FF         RST   $38           ; 
0E61: FF         RST   $38           ; 
0E62: FF         RST   $38           ; 
0E63: FF         RST   $38           ; 
0E64: FF         RST   $38           ; 
0E65: FF         RST   $38           ; 
0E66: FF         RST   $38           ; 
0E67: FF         RST   $38           ; 
0E68: FF         RST   $38           ; 
0E69: FF         RST   $38           ; 
0E6A: FF         RST   $38           ; 
0E6B: FF         RST   $38           ; 
0E6C: FF         RST   $38           ; 
0E6D: FF         RST   $38           ; 
0E6E: FF         RST   $38           ; 
0E6F: FF         RST   $38           ; 
0E70: FF         RST   $38           ; 
0E71: FF         RST   $38           ; 
0E72: FF         RST   $38           ; 
0E73: FF         RST   $38           ; 
0E74: FF         RST   $38           ; 
0E75: FF         RST   $38           ; 
0E76: FF         RST   $38           ; 
0E77: FF         RST   $38           ; 
0E78: FF         RST   $38           ; 
0E79: FF         RST   $38           ; 
0E7A: FF         RST   $38           ; 
0E7B: FF         RST   $38           ; 
0E7C: FF         RST   $38           ; 
0E7D: FF         RST   $38           ; 
0E7E: FF         RST   $38           ; 
0E7F: FF         RST   $38           ; 
0E80: FF         RST   $38           ; 
0E81: FF         RST   $38           ; 
0E82: FF         RST   $38           ; 
0E83: FF         RST   $38           ; 
0E84: FF         RST   $38           ; 
0E85: FF         RST   $38           ; 
0E86: FF         RST   $38           ; 
0E87: FF         RST   $38           ; 
0E88: FF         RST   $38           ; 
0E89: FF         RST   $38           ; 
0E8A: FF         RST   $38           ; 
0E8B: FF         RST   $38           ; 
0E8C: FF         RST   $38           ; 
0E8D: FF         RST   $38           ; 
0E8E: FF         RST   $38           ; 
0E8F: FF         RST   $38           ; 
0E90: FF         RST   $38           ; 
0E91: FF         RST   $38           ; 
0E92: FF         RST   $38           ; 
0E93: FF         RST   $38           ; 
0E94: FF         RST   $38           ; 
0E95: FF         RST   $38           ; 
0E96: FF         RST   $38           ; 
0E97: FF         RST   $38           ; 
0E98: FF         RST   $38           ; 
0E99: FF         RST   $38           ; 
0E9A: FF         RST   $38           ; 
0E9B: FF         RST   $38           ; 
0E9C: FF         RST   $38           ; 
0E9D: FF         RST   $38           ; 
0E9E: FF         RST   $38           ; 
0E9F: FF         RST   $38           ; 
0EA0: FF         RST   $38           ; 
0EA1: FF         RST   $38           ; 
0EA2: FF         RST   $38           ; 
0EA3: FF         RST   $38           ; 
0EA4: FF         RST   $38           ; 
0EA5: FF         RST   $38           ; 
0EA6: FF         RST   $38           ; 
0EA7: FF         RST   $38           ; 
0EA8: FF         RST   $38           ; 
0EA9: FF         RST   $38           ; 
0EAA: FF         RST   $38           ; 
0EAB: FF         RST   $38           ; 
0EAC: FF         RST   $38           ; 
0EAD: FF         RST   $38           ; 
0EAE: FF         RST   $38           ; 
0EAF: FF         RST   $38           ; 
0EB0: FF         RST   $38           ; 
0EB1: FF         RST   $38           ; 
0EB2: FF         RST   $38           ; 
0EB3: FF         RST   $38           ; 
0EB4: FF         RST   $38           ; 
0EB5: FF         RST   $38           ; 
0EB6: FF         RST   $38           ; 
0EB7: FF         RST   $38           ; 
0EB8: FF         RST   $38           ; 
0EB9: FF         RST   $38           ; 
0EBA: FF         RST   $38           ; 
0EBB: FF         RST   $38           ; 
0EBC: FF         RST   $38           ; 
0EBD: FF         RST   $38           ; 
0EBE: FF         RST   $38           ; 
0EBF: FF         RST   $38           ; 
0EC0: FF         RST   $38           ; 
0EC1: FF         RST   $38           ; 
0EC2: FF         RST   $38           ; 
0EC3: FF         RST   $38           ; 
0EC4: FF         RST   $38           ; 
0EC5: FF         RST   $38           ; 
0EC6: FF         RST   $38           ; 
0EC7: FF         RST   $38           ; 
0EC8: FF         RST   $38           ; 
0EC9: FF         RST   $38           ; 
0ECA: FF         RST   $38           ; 
0ECB: FF         RST   $38           ; 
0ECC: FF         RST   $38           ; 
0ECD: FF         RST   $38           ; 
0ECE: FF         RST   $38           ; 
0ECF: FF         RST   $38           ; 
0ED0: FF         RST   $38           ; 
0ED1: FF         RST   $38           ; 
0ED2: FF         RST   $38           ; 
0ED3: FF         RST   $38           ; 
0ED4: FF         RST   $38           ; 
0ED5: FF         RST   $38           ; 
0ED6: FF         RST   $38           ; 
0ED7: FF         RST   $38           ; 
0ED8: FF         RST   $38           ; 
0ED9: FF         RST   $38           ; 
0EDA: FF         RST   $38           ; 
0EDB: FF         RST   $38           ; 
0EDC: FF         RST   $38           ; 
0EDD: FF         RST   $38           ; 
0EDE: FF         RST   $38           ; 
0EDF: FF         RST   $38           ; 
0EE0: FF         RST   $38           ; 
0EE1: FF         RST   $38           ; 
0EE2: FF         RST   $38           ; 
0EE3: FF         RST   $38           ; 
0EE4: FF         RST   $38           ; 
0EE5: FF         RST   $38           ; 
0EE6: FF         RST   $38           ; 
0EE7: FF         RST   $38           ; 
0EE8: FF         RST   $38           ; 
0EE9: FF         RST   $38           ; 
0EEA: FF         RST   $38           ; 
0EEB: FF         RST   $38           ; 
0EEC: FF         RST   $38           ; 
0EED: FF         RST   $38           ; 
0EEE: FF         RST   $38           ; 
0EEF: FF         RST   $38           ; 
0EF0: FF         RST   $38           ; 
0EF1: FF         RST   $38           ; 
0EF2: FF         RST   $38           ; 
0EF3: FF         RST   $38           ; 
0EF4: FF         RST   $38           ; 
0EF5: FF         RST   $38           ; 
0EF6: FF         RST   $38           ; 
0EF7: FF         RST   $38           ; 
0EF8: FF         RST   $38           ; 
0EF9: FF         RST   $38           ; 
0EFA: FF         RST   $38           ; 
0EFB: FF         RST   $38           ; 
0EFC: FF         RST   $38           ; 
0EFD: FF         RST   $38           ; 
0EFE: FF         RST   $38           ; 
0EFF: FF         RST   $38           ; 
0F00: FF         RST   $38           ; 
0F01: FF         RST   $38           ; 
0F02: FF         RST   $38           ; 
0F03: FF         RST   $38           ; 
0F04: FF         RST   $38           ; 
0F05: FF         RST   $38           ; 
0F06: FF         RST   $38           ; 
0F07: FF         RST   $38           ; 
0F08: FF         RST   $38           ; 
0F09: FF         RST   $38           ; 
0F0A: FF         RST   $38           ; 
0F0B: FF         RST   $38           ; 
0F0C: FF         RST   $38           ; 
0F0D: FF         RST   $38           ; 
0F0E: FF         RST   $38           ; 
0F0F: FF         RST   $38           ; 
0F10: FF         RST   $38           ; 
0F11: FF         RST   $38           ; 
0F12: FF         RST   $38           ; 
0F13: FF         RST   $38           ; 
0F14: FF         RST   $38           ; 
0F15: FF         RST   $38           ; 
0F16: FF         RST   $38           ; 
0F17: FF         RST   $38           ; 
0F18: FF         RST   $38           ; 
0F19: FF         RST   $38           ; 
0F1A: FF         RST   $38           ; 
0F1B: FF         RST   $38           ; 
0F1C: FF         RST   $38           ; 
0F1D: FF         RST   $38           ; 
0F1E: FF         RST   $38           ; 
0F1F: FF         RST   $38           ; 
0F20: FF         RST   $38           ; 
0F21: FF         RST   $38           ; 
0F22: FF         RST   $38           ; 
0F23: FF         RST   $38           ; 
0F24: FF         RST   $38           ; 
0F25: FF         RST   $38           ; 
0F26: FF         RST   $38           ; 
0F27: FF         RST   $38           ; 
0F28: FF         RST   $38           ; 
0F29: FF         RST   $38           ; 
0F2A: FF         RST   $38           ; 
0F2B: FF         RST   $38           ; 
0F2C: FF         RST   $38           ; 
0F2D: FF         RST   $38           ; 
0F2E: FF         RST   $38           ; 
0F2F: FF         RST   $38           ; 
0F30: FF         RST   $38           ; 
0F31: FF         RST   $38           ; 
0F32: FF         RST   $38           ; 
0F33: FF         RST   $38           ; 
0F34: FF         RST   $38           ; 
0F35: FF         RST   $38           ; 
0F36: FF         RST   $38           ; 
0F37: FF         RST   $38           ; 
0F38: FF         RST   $38           ; 
0F39: FF         RST   $38           ; 
0F3A: FF         RST   $38           ; 
0F3B: FF         RST   $38           ; 
0F3C: FF         RST   $38           ; 
0F3D: FF         RST   $38           ; 
0F3E: FF         RST   $38           ; 
0F3F: FF         RST   $38           ; 
0F40: FF         RST   $38           ; 
0F41: FF         RST   $38           ; 
0F42: FF         RST   $38           ; 
0F43: FF         RST   $38           ; 
0F44: FF         RST   $38           ; 
0F45: FF         RST   $38           ; 
0F46: FF         RST   $38           ; 
0F47: FF         RST   $38           ; 
0F48: FF         RST   $38           ; 
0F49: FF         RST   $38           ; 
0F4A: FF         RST   $38           ; 
0F4B: FF         RST   $38           ; 
0F4C: FF         RST   $38           ; 
0F4D: FF         RST   $38           ; 
0F4E: FF         RST   $38           ; 
0F4F: FF         RST   $38           ; 
0F50: FF         RST   $38           ; 
0F51: FF         RST   $38           ; 
0F52: FF         RST   $38           ; 
0F53: FF         RST   $38           ; 
0F54: FF         RST   $38           ; 
0F55: FF         RST   $38           ; 
0F56: FF         RST   $38           ; 
0F57: FF         RST   $38           ; 
0F58: FF         RST   $38           ; 
0F59: FF         RST   $38           ; 
0F5A: FF         RST   $38           ; 
0F5B: FF         RST   $38           ; 
0F5C: FF         RST   $38           ; 
0F5D: FF         RST   $38           ; 
0F5E: FF         RST   $38           ; 
0F5F: FF         RST   $38           ; 
0F60: FF         RST   $38           ; 
0F61: FF         RST   $38           ; 
0F62: FF         RST   $38           ; 
0F63: FF         RST   $38           ; 
0F64: FF         RST   $38           ; 
0F65: FF         RST   $38           ; 
0F66: FF         RST   $38           ; 
0F67: FF         RST   $38           ; 
0F68: FF         RST   $38           ; 
0F69: FF         RST   $38           ; 
0F6A: FF         RST   $38           ; 
0F6B: FF         RST   $38           ; 
0F6C: FF         RST   $38           ; 
0F6D: FF         RST   $38           ; 
0F6E: FF         RST   $38           ; 
0F6F: FF         RST   $38           ; 
0F70: FF         RST   $38           ; 
0F71: FF         RST   $38           ; 
0F72: FF         RST   $38           ; 
0F73: FF         RST   $38           ; 
0F74: FF         RST   $38           ; 
0F75: FF         RST   $38           ; 
0F76: FF         RST   $38           ; 
0F77: FF         RST   $38           ; 
0F78: FF         RST   $38           ; 
0F79: FF         RST   $38           ; 
0F7A: FF         RST   $38           ; 
0F7B: FF         RST   $38           ; 
0F7C: FF         RST   $38           ; 
0F7D: FF         RST   $38           ; 
0F7E: FF         RST   $38           ; 
0F7F: FF         RST   $38           ; 
0F80: FF         RST   $38           ; 
0F81: FF         RST   $38           ; 
0F82: FF         RST   $38           ; 
0F83: FF         RST   $38           ; 
0F84: FF         RST   $38           ; 
0F85: FF         RST   $38           ; 
0F86: FF         RST   $38           ; 
0F87: FF         RST   $38           ; 
0F88: FF         RST   $38           ; 
0F89: FF         RST   $38           ; 
0F8A: FF         RST   $38           ; 
0F8B: FF         RST   $38           ; 
0F8C: FF         RST   $38           ; 
0F8D: FF         RST   $38           ; 
0F8E: FF         RST   $38           ; 
0F8F: FF         RST   $38           ; 
0F90: FF         RST   $38           ; 
0F91: FF         RST   $38           ; 
0F92: FF         RST   $38           ; 
0F93: FF         RST   $38           ; 
0F94: FF         RST   $38           ; 
0F95: FF         RST   $38           ; 
0F96: FF         RST   $38           ; 
0F97: FF         RST   $38           ; 
0F98: FF         RST   $38           ; 
0F99: FF         RST   $38           ; 
0F9A: FF         RST   $38           ; 
0F9B: FF         RST   $38           ; 
0F9C: FF         RST   $38           ; 
0F9D: FF         RST   $38           ; 
0F9E: FF         RST   $38           ; 
0F9F: FF         RST   $38           ; 
0FA0: FF         RST   $38           ; 
0FA1: FF         RST   $38           ; 
0FA2: FF         RST   $38           ; 
0FA3: FF         RST   $38           ; 
0FA4: FF         RST   $38           ; 
0FA5: FF         RST   $38           ; 
0FA6: FF         RST   $38           ; 
0FA7: FF         RST   $38           ; 
0FA8: FF         RST   $38           ; 
0FA9: FF         RST   $38           ; 
0FAA: FF         RST   $38           ; 
0FAB: FF         RST   $38           ; 
0FAC: FF         RST   $38           ; 
0FAD: FF         RST   $38           ; 
0FAE: FF         RST   $38           ; 
0FAF: FF         RST   $38           ; 
0FB0: FF         RST   $38           ; 
0FB1: FF         RST   $38           ; 
0FB2: FF         RST   $38           ; 
0FB3: FF         RST   $38           ; 
0FB4: FF         RST   $38           ; 
0FB5: FF         RST   $38           ; 
0FB6: FF         RST   $38           ; 
0FB7: FF         RST   $38           ; 
0FB8: FF         RST   $38           ; 
0FB9: FF         RST   $38           ; 
0FBA: FF         RST   $38           ; 
0FBB: FF         RST   $38           ; 
0FBC: FF         RST   $38           ; 
0FBD: FF         RST   $38           ; 
0FBE: FF         RST   $38           ; 
0FBF: FF         RST   $38           ; 
0FC0: FF         RST   $38           ; 
0FC1: FF         RST   $38           ; 
0FC2: FF         RST   $38           ; 
0FC3: FF         RST   $38           ; 
0FC4: FF         RST   $38           ; 
0FC5: FF         RST   $38           ; 
0FC6: FF         RST   $38           ; 
0FC7: FF         RST   $38           ; 
0FC8: FF         RST   $38           ; 
0FC9: FF         RST   $38           ; 
0FCA: FF         RST   $38           ; 
0FCB: FF         RST   $38           ; 
0FCC: FF         RST   $38           ; 
0FCD: FF         RST   $38           ; 
0FCE: FF         RST   $38           ; 
0FCF: FF         RST   $38           ; 
0FD0: FF         RST   $38           ; 
0FD1: FF         RST   $38           ; 
0FD2: FF         RST   $38           ; 
0FD3: FF         RST   $38           ; 
0FD4: FF         RST   $38           ; 
0FD5: FF         RST   $38           ; 
0FD6: FF         RST   $38           ; 
0FD7: FF         RST   $38           ; 
0FD8: FF         RST   $38           ; 
0FD9: FF         RST   $38           ; 
0FDA: FF         RST   $38           ; 
0FDB: FF         RST   $38           ; 
0FDC: FF         RST   $38           ; 
0FDD: FF         RST   $38           ; 
0FDE: FF         RST   $38           ; 
0FDF: FF         RST   $38           ; 
0FE0: FF         RST   $38           ; 
0FE1: FF         RST   $38           ; 
0FE2: FF         RST   $38           ; 
0FE3: FF         RST   $38           ; 
0FE4: FF         RST   $38           ; 
0FE5: FF         RST   $38           ; 
0FE6: FF         RST   $38           ; 
0FE7: FF         RST   $38           ; 
0FE8: FF         RST   $38           ; 
0FE9: FF         RST   $38           ; 
0FEA: FF         RST   $38           ; 
0FEB: FF         RST   $38           ; 
0FEC: FF         RST   $38           ; 
0FED: FF         RST   $38           ; 
0FEE: FF         RST   $38           ; 
0FEF: FF         RST   $38           ; 
0FF0: FF         RST   $38           ; 
0FF1: FF         RST   $38           ; 
0FF2: FF         RST   $38           ; 
0FF3: FF         RST   $38           ; 
0FF4: FF         RST   $38           ; 
0FF5: FF         RST   $38           ; 
0FF6: FF         RST   $38           ; 
0FF7: FF         RST   $38           ; 
0FF8: FF         RST   $38           ; 
0FF9: FF         RST   $38           ; 
0FFA: FF         RST   $38           ; 
0FFB: FF         RST   $38           ; 
0FFC: FF         RST   $38           ; 
0FFD: FF         RST   $38           ; 
0FFE: FF         RST   $38           ; 
0FFF: 96         SUB   (HL)          ; 
1000: 20 10      JR    NZ,$1012      ; 
1002: C8         RET   Z             ; 
1003: 10 AF      DJNZ  $FB4          ; 
1005: 11 3D 12   LD    DE,$123D      ; 
1008: CD 12 A8   CALL  $A812         ; 
100B: 13         INC   DE            ; 
100C: 73         LD    (HL),E        ; 
100D: 14         INC   D             ; 
100E: 3F         CCF                 ; 
100F: 15         DEC   D             ; 
1010: 9C         SBC   H             ; 
1011: 16 E8      LD    D,$E8         ; 
1013: 16 42      LD    D,$42         ; 
1015: 18 24      JR    $103B         ; 
1017: 19         ADD   HL,DE         ; 
1018: 7A         LD    A,D           ; 
1019: 1A         LD    A,(DE)        ; 
101A: 29         ADD   HL,HL         ; 
101B: 1B         DEC   DE            ; 
101C: 77         LD    (HL),A        ; 
101D: 1B         DEC   DE            ; 
101E: F0         RET   P             ; 
101F: 1C         INC   E             ; 
1020: 0C         INC   C             ; 
1021: 53         LD    D,E           ; 
1022: 00         NOP                 ; 
1023: 0C         INC   C             ; 
1024: FF         RST   $38           ; 
1025: 24         INC   H             ; 
1026: 0F         RRCA                ; 
1027: FF         RST   $38           ; 
1028: 25         DEC   H             ; 
1029: FF         RST   $38           ; 
102A: FF         RST   $38           ; 
102B: 28 12      JR    Z,$103F       ; 
102D: FF         RST   $38           ; 
102E: 29         ADD   HL,HL         ; 
102F: 1F         RRA                 ; 
1030: FE 2A      CP    $2A           ; 
1032: 07         RLCA                ; 
1033: FE 2F      CP    $2F           ; 
1035: 1F         RRA                 ; 
1036: FE 30      CP    $30           ; 
1038: 1F         RRA                 ; 
1039: FE 2B      CP    $2B           ; 
103B: 07         RLCA                ; 
103C: FD 
103D: 03         INC   BC            ; 
103E: EB         EX    DE,HL         ; 
103F: 03         INC   BC            ; 
1040: D7         RST   $10           ; 
1041: 03         INC   BC            ; 
1042: D6 1E      SUB   $1E           ; 
1044: 04         INC   B             ; 
1045: 80         ADD   A,B           ; 
1046: D6 1F      SUB   $1F           ; 
1048: 06 70      LD    B,$70         ; 
104A: C3 05 B7   JP    $B705         ; 
104D: 03         INC   BC            ; 
104E: B6         OR    (HL)          ; 
104F: 1E 08      LD    E,$08         ; 
1051: 80         ADD   A,B           ; 
1052: B6         OR    (HL)          ; 
1053: 26 0A      LD    H,$0A         ; 
1055: 70         LD    (HL),B        ; 
1056: AB         XOR   E             ; 
1057: 1E 0C      LD    E,$0C         ; 
1059: 58         LD    E,B           ; 
105A: A9         XOR   C             ; 
105B: 26 0E      LD    H,$0E         ; 
105D: 58         LD    E,B           ; 
105E: A1         AND   C             ; 
105F: 1F         RRA                 ; 
1060: 10 40      DJNZ  $10A2         ; 
1062: 9F         SBC   A             ; 
1063: 26 12      LD    H,$12         ; 
1065: 50         LD    D,B           ; 
1066: 9F         SBC   A             ; 
1067: 05         DEC   B             ; 
1068: 9B         SBC   E             ; 
1069: 57         LD    D,A           ; 
106A: 9B         SBC   E             ; 
106B: 57         LD    D,A           ; 
106C: 93         SUB   E             ; 
106D: 03         INC   BC            ; 
106E: 83         ADD   A,E           ; 
106F: 03         INC   BC            ; 
1070: 7A         LD    A,D           ; 
1071: 26 14      LD    H,$14         ; 
1073: 70         LD    (HL),B        ; 
1074: 78         LD    A,B           ; 
1075: 1F         RRA                 ; 
1076: 16 70      LD    D,$70         ; 
1078: 73         LD    (HL),E        ; 
1079: 03         INC   BC            ; 
107A: 69         LD    L,C           ; 
107B: 1D         DEC   E             ; 
107C: 18 20      JR    $109E         ; 
107E: 61         LD    H,C           ; 
107F: 2C         INC   L             ; 
1080: 1A         LD    A,(DE)        ; 
1081: 5A         LD    E,D           ; 
1082: 60         LD    H,B           ; 
1083: 25         DEC   H             ; 
1084: 1F         RRA                 ; 
1085: 5F         LD    E,A           ; 
1086: 57         LD    D,A           ; 
1087: 5F         LD    E,A           ; 
1088: 57         LD    D,A           ; 
1089: 5E         LD    E,(HL)        ; 
108A: 2C         INC   L             ; 
108B: 1C         INC   E             ; 
108C: 5A         LD    E,D           ; 
108D: 5B         LD    E,E           ; 
108E: 2C         INC   L             ; 
108F: 1E 5A      LD    E,$5A         ; 
1091: 5B         LD    E,E           ; 
1092: 03         INC   BC            ; 
1093: 53         LD    D,E           ; 
1094: 03         INC   BC            ; 
1095: 47         LD    B,A           ; 
1096: 03         INC   BC            ; 
1097: 44         LD    B,H           ; 
1098: 54         LD    D,H           ; 
1099: 00         NOP                 ; 
109A: 3C         INC   A             ; 
109B: 1E 04      LD    E,$04         ; 
109D: 60         LD    H,B           ; 
109E: 3C         INC   A             ; 
109F: 26 06      LD    H,$06         ; 
10A1: 70         LD    (HL),B        ; 
10A2: 3B         DEC   SP            ; 
10A3: 02         LD    (BC),A        ; 
10A4: 03         INC   BC            ; 
10A5: 27         DAA                 ; 
10A6: 1F         RRA                 ; 
10A7: 08         EX    AF,AF'        ; 
10A8: 28 25      JR    Z,$10CF       ; 
10AA: 26 0A      LD    H,$0A         ; 
10AC: 38 23      JR    C,$10D1       ; 
10AE: 1F         RRA                 ; 
10AF: 0C         INC   C             ; 
10B0: 48         LD    C,B           ; 
10B1: 23         INC   HL            ; 
10B2: 26 0E      LD    H,$0E         ; 
10B4: C0         RET   NZ            ; 
10B5: 21 26 10   LD    HL,$1026      ; 
10B8: 58         LD    E,B           ; 
10B9: 1F         RRA                 ; 
10BA: 1F         RRA                 ; 
10BB: 12         LD    (DE),A        ; 
10BC: 68         LD    L,B           ; 
10BD: 17         RLA                 ; 
10BE: 05         DEC   B             ; 
10BF: 17         RLA                 ; 
10C0: 1D         DEC   E             ; 
10C1: 14         INC   D             ; 
10C2: D0         RET   NC            ; 
10C3: 15         DEC   D             ; 
10C4: 2D         DEC   L             ; 
10C5: 16 68      LD    D,$68         ; 
10C7: 0D         DEC   C             ; 
10C8: FF         RST   $38           ; 
10C9: 02         LD    (BC),A        ; 
10CA: 01 EF 05   LD    BC,$05EF      ; 
10CD: E7         RST   $20           ; 
10CE: 2E 04      LD    L,$04         ; 
10D0: 9C         SBC   H             ; 
10D1: 03         INC   BC            ; 
10D2: 40         LD    B,B           ; 
10D3: 00         NOP                 ; 
10D4: 38 1C      JR    C,$10F2       ; 
10D6: FF         RST   $38           ; 
10D7: 18 DD      JR    $10B6         ; 
10D9: 26 06      LD    H,$06         ; 
10DB: 70         LD    (HL),B        ; 
10DC: DD 
10DD: 1E 08      LD    E,$08         ; 
10DF: 60         LD    H,B           ; 
10E0: D3 1F      OUT   ($1F),A       ; 
10E2: 0A         LD    A,(BC)        ; 
10E3: D0         RET   NC            ; 
10E4: D3 26      OUT   ($26),A       ; 
10E6: 0C         INC   C             ; 
10E7: C0         RET   NZ            ; 
10E8: C9         RET                 ; 
10E9: 26 0E      LD    H,$0E         ; 
10EB: 70         LD    (HL),B        ; 
10EC: C9         RET                 ; 
10ED: 26 10      LD    H,$10         ; 
10EF: 60         LD    H,B           ; 
10F0: C3 03 BB   JP    $BB03         ; 
10F3: 2E 12      LD    L,$12         ; 
10F5: 94         SUB   H             ; 
10F6: 03         INC   BC            ; 
10F7: 68         LD    L,B           ; 
10F8: 00         NOP                 ; 
10F9: 20 02      JR    NZ,$10FD      ; 
10FB: FF         RST   $38           ; 
10FC: 00         NOP                 ; 
10FD: B3         OR    E             ; 
10FE: 26 14      LD    H,$14         ; 
1100: 68         LD    L,B           ; 
1101: B3         OR    E             ; 
1102: 05         DEC   B             ; 
1103: A7         AND   A             ; 
1104: 2E 16      LD    L,$16         ; 
1106: 94         SUB   H             ; 
1107: 03         INC   BC            ; 
1108: 58         LD    E,B           ; 
1109: 00         NOP                 ; 
110A: C0         RET   NZ            ; 
110B: 18 FF      JR    $110C         ; 
110D: 00         NOP                 ; 
110E: A3         AND   E             ; 
110F: 26 18      LD    H,$18         ; 
1111: 70         LD    (HL),B        ; 
1112: A3         AND   E             ; 
1113: 1F         RRA                 ; 
1114: 1A         LD    A,(DE)        ; 
1115: 60         LD    H,B           ; 
1116: A3         AND   E             ; 
1117: 03         INC   BC            ; 
1118: 95         SUB   L             ; 
1119: 26 1C      LD    H,$1C         ; 
111B: 68         LD    L,B           ; 
111C: 93         SUB   E             ; 
111D: 03         INC   BC            ; 
111E: 83         ADD   A,E           ; 
111F: 05         DEC   B             ; 
1120: 79         LD    A,C           ; 
1121: 1F         RRA                 ; 
1122: 1E D0      LD    E,$D0         ; 
1124: 6F         LD    L,A           ; 
1125: 26 04      LD    H,$04         ; 
1127: 70         LD    (HL),B        ; 
1128: 6F         LD    L,A           ; 
1129: 1F         RRA                 ; 
112A: 06 60      LD    B,$60         ; 
112C: 6D         LD    L,L           ; 
112D: 1F         RRA                 ; 
112E: 08         EX    AF,AF'        ; 
112F: 70         LD    (HL),B        ; 
1130: 6D         LD    L,L           ; 
1131: 26 0A      LD    H,$0A         ; 
1133: 60         LD    H,B           ; 
1134: 67         LD    H,A           ; 
1135: 1D         DEC   E             ; 
1136: 0C         INC   C             ; 
1137: 20 67      JR    NZ,$11A0      ; 
1139: 2E 0E      LD    L,$0E         ; 
113B: D8         RET   C             ; 
113C: 04         INC   B             ; 
113D: 48         LD    C,B           ; 
113E: 1C         INC   E             ; 
113F: 50         LD    D,B           ; 
1140: 00         NOP                 ; 
1141: 20 1C      JR    NZ,$115F      ; 
1143: FF         RST   $38           ; 
1144: 00         NOP                 ; 
1145: 5B         LD    E,E           ; 
1146: 03         INC   BC            ; 
1147: 4B         LD    C,E           ; 
1148: 05         DEC   B             ; 
1149: 47         LD    B,A           ; 
114A: 2E 10      LD    L,$10         ; 
114C: A4         AND   H             ; 
114D: 04         INC   B             ; 
114E: 08         EX    AF,AF'        ; 
114F: 00         NOP                 ; 
1150: 50         LD    D,B           ; 
1151: 08         EX    AF,AF'        ; 
1152: 60         LD    H,B           ; 
1153: 00         NOP                 ; 
1154: C0         RET   NZ            ; 
1155: 02         LD    (BC),A        ; 
1156: 44         LD    B,H           ; 
1157: 2E 12      LD    L,$12         ; 
1159: 34         INC   (HL)          ; 
115A: 03         INC   BC            ; 
115B: 78         LD    A,B           ; 
115C: 00         NOP                 ; 
115D: A8         XOR   B             ; 
115E: 04         INC   B             ; 
115F: C0         RET   NZ            ; 
1160: 06 3E      LD    B,$3E         ; 
1162: 1D         DEC   E             ; 
1163: 14         INC   D             ; 
1164: 70         LD    (HL),B        ; 
1165: 39         ADD   HL,SP         ; 
1166: 1F         RRA                 ; 
1167: 16 D0      LD    D,$D0         ; 
1169: 39         ADD   HL,SP         ; 
116A: 26 18      LD    H,$18         ; 
116C: C0         RET   NZ            ; 
116D: 33         INC   SP            ; 
116E: 03         INC   BC            ; 
116F: 27         DAA                 ; 
1170: 1E 1A      LD    E,$1A         ; 
1172: 90         SUB   B             ; 
1173: 25         DEC   H             ; 
1174: 1F         RRA                 ; 
1175: 1C         INC   E             ; 
1176: 80         ADD   A,B           ; 
1177: 25         DEC   H             ; 
1178: 2E 1E      LD    L,$1E         ; 
117A: 60         LD    H,B           ; 
117B: 02         LD    (BC),A        ; 
117C: 90         SUB   B             ; 
117D: 04         INC   B             ; 
117E: C0         RET   NZ            ; 
117F: 08         EX    AF,AF'        ; 
1180: 23         INC   HL            ; 
1181: 1E 04      LD    E,$04         ; 
1183: 70         LD    (HL),B        ; 
1184: 23         INC   HL            ; 
1185: 05         DEC   B             ; 
1186: 21 1F 06   LD    HL,$061F      ; 
1189: 60         LD    H,B           ; 
118A: 1F         RRA                 ; 
118B: 1E 08      LD    E,$08         ; 
118D: 50         LD    D,B           ; 
118E: 1C         INC   E             ; 
118F: 28 18      JR    Z,$11A9       ; 
1191: 1B         DEC   DE            ; 
1192: 02         LD    (BC),A        ; 
1193: 01 17 26   LD    BC,$2617      ; 
1196: 0A         LD    A,(BC)        ; 
1197: A0         AND   B             ; 
1198: 17         RLA                 ; 
1199: 26 0C      LD    H,$0C         ; 
119B: 90         SUB   B             ; 
119C: 15         DEC   D             ; 
119D: 05         DEC   B             ; 
119E: 13         INC   DE            ; 
119F: 1F         RRA                 ; 
11A0: 0E B0      LD    C,$B0         ; 
11A2: 13         INC   DE            ; 
11A3: 1B         DEC   DE            ; 
11A4: 10 A0      DJNZ  $1146         ; 
11A6: 13         INC   DE            ; 
11A7: 1B         DEC   DE            ; 
11A8: 12         LD    (DE),A        ; 
11A9: 90         SUB   B             ; 
11AA: 13         INC   DE            ; 
11AB: 1F         RRA                 ; 
11AC: 14         INC   D             ; 
11AD: 80         ADD   A,B           ; 
11AE: 0D         DEC   C             ; 
11AF: FF         RST   $38           ; 
11B0: 22 04 FF   LD    ($FF04),HL    ; 
11B3: 28 14      JR    Z,$11C9       ; 
11B5: EF         RST   $28           ; 
11B6: 1F         RRA                 ; 
11B7: 16 40      LD    D,$40         ; 
11B9: E4 22 02   CALL  PO,$0222      ; 
11BC: BD         CP    L             ; 
11BD: 26 18      LD    H,$18         ; 
11BF: A0         AND   B             ; 
11C0: BB         CP    E             ; 
11C1: 1F         RRA                 ; 
11C2: 1A         LD    A,(DE)        ; 
11C3: A0         AND   B             ; 
11C4: B8         CP    B             ; 
11C5: 22 02 A3   LD    ($A302),HL    ; 
11C8: 20 1C      JR    NZ,$11E6      ; 
11CA: C0         RET   NZ            ; 
11CB: 9F         SBC   A             ; 
11CC: 1D         DEC   E             ; 
11CD: 04         INC   B             ; 
11CE: E0         RET   PO            ; 
11CF: 93         SUB   E             ; 
11D0: 0F         RRCA                ; 
11D1: 74         LD    (HL),H        ; 
11D2: 91         SUB   C             ; 
11D3: 26 06      LD    H,$06         ; 
11D5: 80         ADD   A,B           ; 
11D6: 8F         ADC   A,A           ; 
11D7: 1E 08      LD    E,$08         ; 
11D9: 80         ADD   A,B           ; 
11DA: 8C         ADC   A,H           ; 
11DB: 54         LD    D,H           ; 
11DC: 00         NOP                 ; 
11DD: 87         ADD   A,A           ; 
11DE: 1E 0A      LD    E,$0A         ; 
11E0: 90         SUB   B             ; 
11E1: 87         ADD   A,A           ; 
11E2: 1F         RRA                 ; 
11E3: 0C         INC   C             ; 
11E4: 80         ADD   A,B           ; 
11E5: 83         ADD   A,E           ; 
11E6: 23         INC   HL            ; 
11E7: 83         ADD   A,E           ; 
11E8: 57         LD    D,A           ; 
11E9: 7B         LD    A,E           ; 
11EA: 03         INC   BC            ; 
11EB: 6B         LD    L,E           ; 
11EC: 1F         RRA                 ; 
11ED: 0E D0      LD    C,$D0         ; 
11EF: 6B         LD    L,E           ; 
11F0: 26 10      LD    H,$10         ; 
11F2: A0         AND   B             ; 
11F3: 63         LD    H,E           ; 
11F4: 05         DEC   B             ; 
11F5: 63         LD    H,E           ; 
11F6: 26 12      LD    H,$12         ; 
11F8: 60         LD    H,B           ; 
11F9: 5B         LD    E,E           ; 
11FA: 1F         RRA                 ; 
11FB: 14         INC   D             ; 
11FC: 60         LD    H,B           ; 
11FD: 57         LD    D,A           ; 
11FE: 36 16      LD    (HL),$16      ; 
1200: 78         LD    A,B           ; 
1201: 57         LD    D,A           ; 
1202: 03         INC   BC            ; 
1203: 4B         LD    C,E           ; 
1204: 57         LD    D,A           ; 
1205: 49         LD    C,C           ; 
1206: 1F         RRA                 ; 
1207: 18 D0      JR    $11D9         ; 
1209: 49         LD    C,C           ; 
120A: 26 1A      LD    H,$1A         ; 
120C: A0         AND   B             ; 
120D: 43         LD    B,E           ; 
120E: 03         INC   BC            ; 
120F: 36 1E      LD    (HL),$1E      ; 
1211: 1C         INC   E             ; 
1212: C0         RET   NZ            ; 
1213: 36 26      LD    (HL),$26      ; 
1215: 1E A8      LD    E,$A8         ; 
1217: 36 1F      LD    (HL),$1F      ; 
1219: 04         INC   B             ; 
121A: 90         SUB   B             ; 
121B: 36 1E      LD    (HL),$1E      ; 
121D: 06 78      LD    B,$78         ; 
121F: 2C         INC   L             ; 
1220: 1F         RRA                 ; 
1221: 08         EX    AF,AF'        ; 
1222: 90         SUB   B             ; 
1223: 2B         DEC   HL            ; 
1224: 05         DEC   B             ; 
1225: 1F         RRA                 ; 
1226: 1F         RRA                 ; 
1227: 0A         LD    A,(BC)        ; 
1228: 80         ADD   A,B           ; 
1229: 1F         RRA                 ; 
122A: 26 0C      LD    H,$0C         ; 
122C: 60         LD    H,B           ; 
122D: 1F         RRA                 ; 
122E: 1F         RRA                 ; 
122F: 0E 40      LD    C,$40         ; 
1231: 18 24      JR    $1257         ; 
1233: 03         INC   BC            ; 
1234: 17         RLA                 ; 
1235: 21 10 60   LD    HL,$6010      ; 
1238: 17         RLA                 ; 
1239: 1D         DEC   E             ; 
123A: 14         INC   D             ; 
123B: 20 0D      JR    NZ,$124A      ; 
123D: FF         RST   $38           ; 
123E: 02         LD    (BC),A        ; 
123F: 01 F0 05   LD    BC,$05F0      ; 
1242: ED 
1243: 2E 16      LD    L,$16         ; 
1245: 9C         SBC   H             ; 
1246: 03         INC   BC            ; 
1247: A0         AND   B             ; 
1248: 00         NOP                 ; 
1249: 80         ADD   A,B           ; 
124A: 10 80      DJNZ  $11CC         ; 
124C: 00         NOP                 ; 
124D: E3         EX    (SP),HL       ; 
124E: 2E 18      LD    L,$18         ; 
1250: 2C         INC   L             ; 
1251: 02         LD    (BC),A        ; 
1252: 90         SUB   B             ; 
1253: 00         NOP                 ; 
1254: 80         ADD   A,B           ; 
1255: 1C         INC   E             ; 
1256: DB 1E      IN    A,($1E)       ; 
1258: 1A         LD    A,(DE)        ; 
1259: 60         LD    H,B           ; 
125A: DB 1F      IN    A,($1F)       ; 
125C: 1C         INC   E             ; 
125D: 50         LD    D,B           ; 
125E: D1         POP   DE            ; 
125F: 2E 1E      LD    L,$1E         ; 
1261: 7C         LD    A,H           ; 
1262: 03         INC   BC            ; 
1263: 38 00      JR    C,$1265       ; 
1265: 80         ADD   A,B           ; 
1266: 02         LD    (BC),A        ; 
1267: C0         RET   NZ            ; 
1268: 00         NOP                 ; 
1269: CB 03      RLC   E             ; 
126B: C5         PUSH  BC            ; 
126C: 26 04      LD    H,$04         ; 
126E: B0         OR    B             ; 
126F: C5         PUSH  BC            ; 
1270: 1F         RRA                 ; 
1271: 06 A0      LD    B,$A0         ; 
1273: C5         PUSH  BC            ; 
1274: 1D         DEC   E             ; 
1275: 08         EX    AF,AF'        ; 
1276: 60         LD    H,B           ; 
1277: BD         CP    L             ; 
1278: 2E 0A      LD    L,$0A         ; 
127A: 24         INC   H             ; 
127B: 03         INC   BC            ; 
127C: 48         LD    C,B           ; 
127D: 00         NOP                 ; 
127E: 28 02      JR    Z,$1282       ; 
1280: FF         RST   $38           ; 
1281: 00         NOP                 ; 
1282: BB         CP    E             ; 
1283: 05         DEC   B             ; 
1284: AF         XOR   A             ; 
1285: 1F         RRA                 ; 
1286: 0C         INC   C             ; 
1287: 50         LD    D,B           ; 
1288: AD         XOR   L             ; 
1289: 1F         RRA                 ; 
128A: 0E 40      LD    C,$40         ; 
128C: AA         XOR   D             ; 
128D: 26 10      LD    H,$10         ; 
128F: 50         LD    D,B           ; 
1290: A7         AND   A             ; 
1291: 26 12      LD    H,$12         ; 
1293: 40         LD    B,B           ; 
1294: A7         AND   A             ; 
1295: 2E 14      LD    L,$14         ; 
1297: 24         INC   H             ; 
1298: 04         INC   B             ; 
1299: 60         LD    H,B           ; 
129A: 00         NOP                 ; 
129B: D8         RET   C             ; 
129C: 10 28      DJNZ  $12C6         ; 
129E: 08         EX    AF,AF'        ; 
129F: FF         RST   $38           ; 
12A0: 02         LD    (BC),A        ; 
12A1: 9F         SBC   A             ; 
12A2: 03         INC   BC            ; 
12A3: 8B         ADC   A,E           ; 
12A4: 05         DEC   B             ; 
12A5: 87         ADD   A,A           ; 
12A6: 22 01 83   LD    ($8301),HL    ; 
12A9: 23         INC   HL            ; 
12AA: 73         LD    (HL),E        ; 
12AB: 02         LD    (BC),A        ; 
12AC: 45         LD    B,L           ; 
12AD: 73         LD    (HL),E        ; 
12AE: 4E         LD    C,(HL)        ; 
12AF: 2F         CPL                 ; 
12B0: 73         LD    (HL),E        ; 
12B1: 4C         LD    C,H           ; 
12B2: 63         LD    H,E           ; 
12B3: 05         DEC   B             ; 
12B4: 5F         LD    E,A           ; 
12B5: 02         LD    (BC),A        ; 
12B6: 45         LD    B,L           ; 
12B7: 4F         LD    C,A           ; 
12B8: 05         DEC   B             ; 
12B9: 3F         CCF                 ; 
12BA: 22 04 33   LD    ($3304),HL    ; 
12BD: 23         INC   HL            ; 
12BE: 31 23 2B   LD    SP,$2B23      ; 
12C1: 23         INC   HL            ; 
12C2: 2B         DEC   HL            ; 
12C3: 57         LD    D,A           ; 
12C4: 28 03      JR    Z,$12C9       ; 
12C6: 20 4D      JR    NZ,$1315      ; 
12C8: 20 03      JR    NZ,$12CD      ; 
12CA: 10 03      DJNZ  $12CF         ; 
12CC: 0D         DEC   C             ; 
12CD: FF         RST   $38           ; 
12CE: 24         INC   H             ; 
12CF: 07         RLCA                ; 
12D0: FF         RST   $38           ; 
12D1: 2F         CPL                 ; 
12D2: 0F         RRCA                ; 
12D3: FE 30      CP    $30           ; 
12D5: 0F         RRCA                ; 
12D6: FE 28      CP    $28           ; 
12D8: 1C         INC   E             ; 
12D9: FD 
12DA: 03         INC   BC            ; 
12DB: EF         RST   $28           ; 
12DC: 03         INC   BC            ; 
12DD: E3         EX    (SP),HL       ; 
12DE: 57         LD    D,A           ; 
12DF: E3         EX    (SP),HL       ; 
12E0: 05         DEC   B             ; 
12E1: DD 
12E2: 1F         RRA                 ; 
12E3: 04         INC   B             ; 
12E4: A0         AND   B             ; 
12E5: DD 
12E6: 1E 06      LD    E,$06         ; 
12E8: 90         SUB   B             ; 
12E9: DB 21      IN    A,($21)       ; 
12EB: 08         EX    AF,AF'        ; 
12EC: 70         LD    (HL),B        ; 
12ED: DB 1E      IN    A,($1E)       ; 
12EF: 0C         INC   C             ; 
12F0: A0         AND   B             ; 
12F1: DB 1F      IN    A,($1F)       ; 
12F3: 0E 90      LD    C,$90         ; 
12F5: D1         POP   DE            ; 
12F6: 3D         DEC   A             ; 
12F7: 10 C0      DJNZ  $12B9         ; 
12F9: CB 03      RLC   E             ; 
12FB: BF         CP    A             ; 
12FC: 3E 12      LD    A,$12         ; 
12FE: A0         AND   B             ; 
12FF: BB         CP    E             ; 
1300: 03         INC   BC            ; 
1301: BB         CP    E             ; 
1302: 3E 14      LD    A,$14         ; 
1304: 60         LD    H,B           ; 
1305: B7         OR    A             ; 
1306: 3E 16      LD    A,$16         ; 
1308: A0         AND   B             ; 
1309: B3         OR    E             ; 
130A: 03         INC   BC            ; 
130B: B3         OR    E             ; 
130C: 3F         CCF                 ; 
130D: 18 60      JR    $136F         ; 
130F: AF         XOR   A             ; 
1310: 3F         CCF                 ; 
1311: 1A         LD    A,(DE)        ; 
1312: 20 A7      JR    NZ,$12BB      ; 
1314: 05         DEC   B             ; 
1315: A5         AND   L             ; 
1316: 21 1C 68   LD    HL,$681C      ; 
1319: 9B         SBC   E             ; 
131A: 3E 04      LD    A,$04         ; 
131C: 40         LD    B,B           ; 
131D: 97         SUB   A             ; 
131E: 3E 06      LD    A,$06         ; 
1320: 80         ADD   A,B           ; 
1321: 95         SUB   L             ; 
1322: 3E 08      LD    A,$08         ; 
1324: A0         AND   B             ; 
1325: 93         SUB   E             ; 
1326: 3E 0A      LD    A,$0A         ; 
1328: C0         RET   NZ            ; 
1329: 93         SUB   E             ; 
132A: 03         INC   BC            ; 
132B: 7B         LD    A,E           ; 
132C: 05         DEC   B             ; 
132D: 7B         LD    A,E           ; 
132E: 54         LD    D,H           ; 
132F: 00         NOP                 ; 
1330: 71         LD    (HL),C        ; 
1331: 2E 0C      LD    L,$0C         ; 
1333: 60         LD    H,B           ; 
1334: 0C         INC   C             ; 
1335: 30 00      JR    NC,$1337      ; 
1337: 30 10      JR    NC,$1349      ; 
1339: 30 18      JR    NC,$1353      ; 
133B: 30 08      JR    NC,$1345      ; 
133D: 30 00      JR    NC,$133F      ; 
133F: 30 10      JR    NC,$1351      ; 
1341: 30 18      JR    NC,$135B      ; 
1343: 30 08      JR    NC,$134D      ; 
1345: 30 00      JR    NC,$1347      ; 
1347: 30 10      JR    NC,$1359      ; 
1349: 30 18      JR    NC,$1363      ; 
134B: 30 08      JR    NC,$1355      ; 
134D: 71         LD    (HL),C        ; 
134E: 1D         DEC   E             ; 
134F: 0E 20      LD    C,$20         ; 
1351: 70         LD    (HL),B        ; 
1352: 25         DEC   H             ; 
1353: 0F         RRCA                ; 
1354: 70         LD    (HL),B        ; 
1355: 24         INC   H             ; 
1356: 0F         RRCA                ; 
1357: 6B         LD    L,E           ; 
1358: 1E 10      LD    E,$10         ; 
135A: 80         ADD   A,B           ; 
135B: 69         LD    L,C           ; 
135C: 26 12      LD    H,$12         ; 
135E: 80         ADD   A,B           ; 
135F: 67         LD    H,A           ; 
1360: 1E 14      LD    E,$14         ; 
1362: 80         ADD   A,B           ; 
1363: 65         LD    H,L           ; 
1364: 26 16      LD    H,$16         ; 
1366: 80         ADD   A,B           ; 
1367: 63         LD    H,E           ; 
1368: 03         INC   BC            ; 
1369: 4B         LD    C,E           ; 
136A: 05         DEC   B             ; 
136B: 4B         LD    C,E           ; 
136C: 1F         RRA                 ; 
136D: 18 C0      JR    $132F         ; 
136F: 3F         CCF                 ; 
1370: 03         INC   BC            ; 
1371: 35         DEC   (HL)          ; 
1372: 1F         RRA                 ; 
1373: 1A         LD    A,(DE)        ; 
1374: 80         ADD   A,B           ; 
1375: 32 2E 1C   LD    ($1C2E),A     ; 
1378: D8         RET   C             ; 
1379: 03         INC   BC            ; 
137A: C0         RET   NZ            ; 
137B: 18 18      JR    $1395         ; 
137D: 10 C0      DJNZ  $133F         ; 
137F: 08         EX    AF,AF'        ; 
1380: 31 1D 1E   LD    SP,$1E1D      ; 
1383: 40         LD    B,B           ; 
1384: 2F         CPL                 ; 
1385: 05         DEC   B             ; 
1386: 23         INC   HL            ; 
1387: 2E 04      LD    L,$04         ; 
1389: C0         RET   NZ            ; 
138A: 01 C0 18   LD    BC,$18C0      ; 
138D: 20 2E      JR    NZ,$13BD      ; 
138F: 06 20      LD    B,$20         ; 
1391: 01 C0 08   LD    BC,$08C0      ; 
1394: 1D         DEC   E             ; 
1395: 2E 08      LD    L,$08         ; 
1397: C0         RET   NZ            ; 
1398: 01 C0 18   LD    BC,$18C0      ; 
139B: 17         RLA                 ; 
139C: 1F         RRA                 ; 
139D: 0A         LD    A,(BC)        ; 
139E: C0         RET   NZ            ; 
139F: 17         RLA                 ; 
13A0: 21 0C 80   LD    HL,$800C      ; 
13A3: 17         RLA                 ; 
13A4: 1F         RRA                 ; 
13A5: 10 40      DJNZ  $13E7         ; 
13A7: 0D         DEC   C             ; 
13A8: FF         RST   $38           ; 
13A9: 24         INC   H             ; 
13AA: 07         RLCA                ; 
13AB: F3         DI                  ; 
13AC: 26 04      LD    H,$04         ; 
13AE: C0         RET   NZ            ; 
13AF: F3         DI                  ; 
13B0: 1E 06      LD    E,$06         ; 
13B2: B0         OR    B             ; 
13B3: EB         EX    DE,HL         ; 
13B4: 2E 08      LD    L,$08         ; 
13B6: 3C         INC   A             ; 
13B7: 03         INC   BC            ; 
13B8: C0         RET   NZ            ; 
13B9: 00         NOP                 ; 
13BA: C0         RET   NZ            ; 
13BB: 10 C0      DJNZ  $137D         ; 
13BD: 00         NOP                 ; 
13BE: DB 2E      IN    A,($2E)       ; 
13C0: 0A         LD    A,(BC)        ; 
13C1: 34         INC   (HL)          ; 
13C2: 02         LD    (BC),A        ; 
13C3: 20 02      JR    NZ,$13C7      ; 
13C5: FF         RST   $38           ; 
13C6: 00         NOP                 ; 
13C7: D7         RST   $10           ; 
13C8: 1F         RRA                 ; 
13C9: 0C         INC   C             ; 
13CA: C0         RET   NZ            ; 
13CB: D5         PUSH  DE            ; 
13CC: 26 0E      LD    H,$0E         ; 
13CE: D0         RET   NC            ; 
13CF: D5         PUSH  DE            ; 
13D0: 30 FF      JR    NC,$13D1      ; 
13D2: CB 2E      SRA   (HL)          ; 
13D4: 10 1C      DJNZ  $13F2         ; 
13D6: 03         INC   BC            ; 
13D7: 98         SBC   B             ; 
13D8: 00         NOP                 ; 
13D9: 80         ADD   A,B           ; 
13DA: 02         LD    (BC),A        ; 
13DB: 40         LD    B,B           ; 
13DC: 00         NOP                 ; 
13DD: BB         CP    E             ; 
13DE: 2E 12      LD    L,$12         ; 
13E0: 1C         INC   E             ; 
13E1: 01 FF 00   LD    BC,$00FF      ; 
13E4: B6         OR    (HL)          ; 
13E5: 1E 14      LD    E,$14         ; 
13E7: C0         RET   NZ            ; 
13E8: B6         OR    (HL)          ; 
13E9: 26 16      LD    H,$16         ; 
13EB: D0         RET   NC            ; 
13EC: B4         OR    H             ; 
13ED: 30 0F      JR    NC,$13FE      ; 
13EF: AA         XOR   D             ; 
13F0: 1F         RRA                 ; 
13F1: 18 B0      JR    $13A3         ; 
13F3: AA         XOR   D             ; 
13F4: 1F         RRA                 ; 
13F5: 1A         LD    A,(DE)        ; 
13F6: A0         AND   B             ; 
13F7: 9F         SBC   A             ; 
13F8: 21 1C A0   LD    HL,$A01C      ; 
13FB: 9B         SBC   E             ; 
13FC: 03         INC   BC            ; 
13FD: 8B         ADC   A,E           ; 
13FE: 1D         DEC   E             ; 
13FF: 04         INC   B             ; 
1400: 30 83      JR    NC,$1385      ; 
1402: 05         DEC   B             ; 
1403: 77         LD    (HL),A        ; 
1404: 2D         DEC   L             ; 
1405: 06 C0      LD    B,$C0         ; 
1407: 6F         LD    L,A           ; 
1408: 3A 10 48   LD    A,($4810)     ; 
140B: 6B         LD    L,E           ; 
140C: 38 12      JR    C,$1420       ; 
140E: 60         LD    H,B           ; 
140F: 6B         LD    L,E           ; 
1410: 38 14      JR    C,$1426       ; 
1412: 30 67      JR    NC,$147B      ; 
1414: 38 16      JR    C,$142C       ; 
1416: 48         LD    C,B           ; 
1417: 5F         LD    E,A           ; 
1418: 1F         RRA                 ; 
1419: 18 80      JR    $139B         ; 
141B: 5D         LD    E,L           ; 
141C: 26 1A      LD    H,$1A         ; 
141E: 70         LD    (HL),B        ; 
141F: 56         LD    D,(HL)        ; 
1420: 2E 1C      LD    L,$1C         ; 
1422: 14         INC   D             ; 
1423: 0B         DEC   BC            ; 
1424: 40         LD    B,B           ; 
1425: 00         NOP                 ; 
1426: 38 04      JR    C,$142C       ; 
1428: 50         LD    D,B           ; 
1429: 06 38      LD    B,$38         ; 
142B: 04         INC   B             ; 
142C: 3C         INC   A             ; 
142D: 08         EX    AF,AF'        ; 
142E: 30 04      JR    NC,$1434      ; 
1430: 20 00      JR    NZ,$1432      ; 
1432: 20 10      JR    NZ,$1444      ; 
1434: 20 00      JR    NZ,$1436      ; 
1436: 20 10      JR    NZ,$1448      ; 
1438: 20 00      JR    NZ,$143A      ; 
143A: 55         LD    D,L           ; 
143B: 26 1E      LD    H,$1E         ; 
143D: 70         LD    (HL),B        ; 
143E: 4F         LD    C,A           ; 
143F: 26 04      LD    H,$04         ; 
1441: 80         ADD   A,B           ; 
1442: 4F         LD    C,A           ; 
1443: 1D         DEC   E             ; 
1444: 06 D0      LD    B,$D0         ; 
1446: 48         LD    C,B           ; 
1447: 2E 08      LD    L,$08         ; 
1449: D8         RET   C             ; 
144A: 03         INC   BC            ; 
144B: 08         EX    AF,AF'        ; 
144C: 00         NOP                 ; 
144D: 58         LD    E,B           ; 
144E: 18 FF      JR    $144F         ; 
1450: 00         NOP                 ; 
1451: 41         LD    B,C           ; 
1452: 2E 0A      LD    L,$0A         ; 
1454: 48         LD    C,B           ; 
1455: 02         LD    (BC),A        ; 
1456: 78         LD    A,B           ; 
1457: 00         NOP                 ; 
1458: FF         RST   $38           ; 
1459: 08         EX    AF,AF'        ; 
145A: 33         INC   SP            ; 
145B: 1F         RRA                 ; 
145C: 0C         INC   C             ; 
145D: 70         LD    (HL),B        ; 
145E: 27         DAA                 ; 
145F: 26 0E      LD    H,$0E         ; 
1461: 70         LD    (HL),B        ; 
1462: 25         DEC   H             ; 
1463: 26 10      LD    H,$10         ; 
1465: 90         SUB   B             ; 
1466: 23         INC   HL            ; 
1467: 26 12      LD    H,$12         ; 
1469: B0         OR    B             ; 
146A: 17         RLA                 ; 
146B: 21 14 C0   LD    HL,$C014      ; 
146E: 17         RLA                 ; 
146F: 21 18 A0   LD    HL,$A018      ; 
1472: 0D         DEC   C             ; 
1473: FF         RST   $38           ; 
1474: 22 08 F1   LD    ($F108),HL    ; 
1477: 1F         RRA                 ; 
1478: 04         INC   B             ; 
1479: 80         ADD   A,B           ; 
147A: EF         RST   $28           ; 
147B: 1E 06      LD    E,$06         ; 
147D: 80         ADD   A,B           ; 
147E: ED 
147F: 22 03 CA   LD    ($CA03),HL    ; 
1482: 30 3F      JR    NC,$14C3      ; 
1484: C9         RET                 ; 
1485: 2E 08      LD    L,$08         ; 
1487: 70         LD    (HL),B        ; 
1488: 06 60      LD    B,$60         ; 
148A: 0C         INC   C             ; 
148B: 60         LD    H,B           ; 
148C: 10 60      DJNZ  $14EE         ; 
148E: 14         INC   D             ; 
148F: 60         LD    H,B           ; 
1490: 1C         INC   E             ; 
1491: 60         LD    H,B           ; 
1492: 00         NOP                 ; 
1493: 60         LD    H,B           ; 
1494: 04         INC   B             ; 
1495: C6 2E      ADD   A,$2E         ; 
1497: 0A         LD    A,(BC)        ; 
1498: 58         LD    E,B           ; 
1499: 06 30      LD    B,$30         ; 
149B: 04         INC   B             ; 
149C: 60         LD    H,B           ; 
149D: 0C         INC   C             ; 
149E: 60         LD    H,B           ; 
149F: 10 60      DJNZ  $1501         ; 
14A1: 14         INC   D             ; 
14A2: 60         LD    H,B           ; 
14A3: 1C         INC   E             ; 
14A4: 60         LD    H,B           ; 
14A5: 00         NOP                 ; 
14A6: C3 2E 0C   JP    $0C2E         ; 
14A9: 40         LD    B,B           ; 
14AA: 06 60      LD    B,$60         ; 
14AC: 04         INC   B             ; 
14AD: 60         LD    H,B           ; 
14AE: 0C         INC   C             ; 
14AF: 60         LD    H,B           ; 
14B0: 10 60      DJNZ  $1512         ; 
14B2: 14         INC   D             ; 
14B3: 60         LD    H,B           ; 
14B4: 1C         INC   E             ; 
14B5: 60         LD    H,B           ; 
14B6: 00         NOP                 ; 
14B7: C0         RET   NZ            ; 
14B8: 2E 0E      LD    L,$0E         ; 
14BA: 40         LD    B,B           ; 
14BB: 06 30      LD    B,$30         ; 
14BD: 00         NOP                 ; 
14BE: 60         LD    H,B           ; 
14BF: 04         INC   B             ; 
14C0: 60         LD    H,B           ; 
14C1: 0C         INC   C             ; 
14C2: 60         LD    H,B           ; 
14C3: 10 60      DJNZ  $1525         ; 
14C5: 14         INC   D             ; 
14C6: 60         LD    H,B           ; 
14C7: 1C         INC   E             ; 
14C8: BD         CP    L             ; 
14C9: 2E 10      LD    L,$10         ; 
14CB: 40         LD    B,B           ; 
14CC: 06 60      LD    B,$60         ; 
14CE: 00         NOP                 ; 
14CF: 60         LD    H,B           ; 
14D0: 04         INC   B             ; 
14D1: 60         LD    H,B           ; 
14D2: 0C         INC   C             ; 
14D3: 60         LD    H,B           ; 
14D4: 10 60      DJNZ  $1536         ; 
14D6: 14         INC   D             ; 
14D7: 60         LD    H,B           ; 
14D8: 1C         INC   E             ; 
14D9: BA         CP    D             ; 
14DA: 2E 12      LD    L,$12         ; 
14DC: 58         LD    E,B           ; 
14DD: 07         RLCA                ; 
14DE: 30 1C      JR    NC,$14FC      ; 
14E0: 60         LD    H,B           ; 
14E1: 00         NOP                 ; 
14E2: 60         LD    H,B           ; 
14E3: 04         INC   B             ; 
14E4: 60         LD    H,B           ; 
14E5: 0C         INC   C             ; 
14E6: 60         LD    H,B           ; 
14E7: 10 60      DJNZ  $1549         ; 
14E9: 14         INC   D             ; 
14EA: 60         LD    H,B           ; 
14EB: 1C         INC   E             ; 
14EC: A7         AND   A             ; 
14ED: 2F         CPL                 ; 
14EE: 07         RLCA                ; 
14EF: A1         AND   C             ; 
14F0: 1E 14      LD    E,$14         ; 
14F2: 70         LD    (HL),B        ; 
14F3: 9F         SBC   A             ; 
14F4: 26 16      LD    H,$16         ; 
14F6: 60         LD    H,B           ; 
14F7: 9E         SBC   (HL)          ; 
14F8: 22 02 9D   LD    ($9D02),HL    ; 
14FB: 1F         RRA                 ; 
14FC: 18 50      JR    $154E         ; 
14FE: 9B         SBC   E             ; 
14FF: 1E 1A      LD    E,$1A         ; 
1501: 40         LD    B,B           ; 
1502: 83         ADD   A,E           ; 
1503: 10 74      DJNZ  $1579         ; 
1505: 81         ADD   A,C           ; 
1506: 26 1C      LD    H,$1C         ; 
1508: 40         LD    B,B           ; 
1509: 7B         LD    A,E           ; 
150A: 1D         DEC   E             ; 
150B: 1E D8      LD    E,$D8         ; 
150D: 6C         LD    L,H           ; 
150E: 23         INC   HL            ; 
150F: 6B         LD    L,E           ; 
1510: 1E 04      LD    E,$04         ; 
1512: B0         OR    B             ; 
1513: 6B         LD    L,E           ; 
1514: 1F         RRA                 ; 
1515: 06 80      LD    B,$80         ; 
1517: 6B         LD    L,E           ; 
1518: 1E 08      LD    E,$08         ; 
151A: 50         LD    D,B           ; 
151B: 6B         LD    L,E           ; 
151C: 1F         RRA                 ; 
151D: 0A         LD    A,(BC)        ; 
151E: 20 66      JR    NZ,$1586      ; 
1520: 54         LD    D,H           ; 
1521: 00         NOP                 ; 
1522: 4F         LD    C,A           ; 
1523: 22 10 36   LD    ($3610),HL    ; 
1526: 1F         RRA                 ; 
1527: 0C         INC   C             ; 
1528: 48         LD    C,B           ; 
1529: 36 1F      LD    (HL),$1F      ; 
152B: 0E 20      LD    C,$20         ; 
152D: 2B         DEC   HL            ; 
152E: 3B         DEC   SP            ; 
152F: 10 C0      DJNZ  $14F1         ; 
1531: 27         DAA                 ; 
1532: 3C         INC   A             ; 
1533: 12         LD    (DE),A        ; 
1534: A0         AND   B             ; 
1535: 17         RLA                 ; 
1536: 11 76 11   LD    DE,$1176      ; 
1539: 1D         DEC   E             ; 
153A: 14         INC   D             ; 
153B: 20 0F      JR    NZ,$154C      ; 
153D: 23         INC   HL            ; 
153E: 0D         DEC   C             ; 
153F: F3         DI                  ; 
1540: 03         INC   BC            ; 
1541: F3         DI                  ; 
1542: 30 FF      JR    NC,$1543      ; 
1544: F3         DI                  ; 
1545: 57         LD    D,A           ; 
1546: EE 2E      XOR   $2E           ; 
1548: 04         INC   B             ; 
1549: 14         INC   D             ; 
154A: 05         DEC   B             ; 
154B: 08         EX    AF,AF'        ; 
154C: 00         NOP                 ; 
154D: A0         AND   B             ; 
154E: 08         EX    AF,AF'        ; 
154F: 30 0C      JR    NC,$155D      ; 
1551: FF         RST   $38           ; 
1552: 10 FF      DJNZ  $1553         ; 
1554: 00         NOP                 ; 
1555: EA 05 E5   JP    PE,$E505      ; 
1558: 26 06      LD    H,$06         ; 
155A: 30 E5      JR    NC,$1541      ; 
155C: 26 08      LD    H,$08         ; 
155E: C8         RET   Z             ; 
155F: E2 1F 0A   JP    PO,$0A1F      ; 
1562: 48         LD    C,B           ; 
1563: E2 1F 0C   JP    PO,$0C1F      ; 
1566: B0         OR    B             ; 
1567: DF         RST   $18           ; 
1568: 26 0E      LD    H,$0E         ; 
156A: 60         LD    H,B           ; 
156B: DF         RST   $18           ; 
156C: 26 10      LD    H,$10         ; 
156E: 98         SBC   B             ; 
156F: CC 1E 12   CALL  Z,$121E       ; 
1572: 40         LD    B,B           ; 
1573: C8         RET   Z             ; 
1574: 26 14      LD    H,$14         ; 
1576: 60         LD    H,B           ; 
1577: C8         RET   Z             ; 
1578: 26 16      LD    H,$16         ; 
157A: 20 C7      JR    NZ,$1543      ; 
157C: 21 18 48   LD    HL,$4818      ; 
157F: C3 1E 1C   JP    $1C1E         ; 
1582: 40         LD    B,B           ; 
1583: BB         CP    E             ; 
1584: 57         LD    D,A           ; 
1585: B3         OR    E             ; 
1586: 1F         RRA                 ; 
1587: 1E 48      LD    E,$48         ; 
1589: A8         XOR   B             ; 
158A: 03         INC   BC            ; 
158B: A5         AND   L             ; 
158C: 2E 04      LD    L,$04         ; 
158E: A0         AND   B             ; 
158F: 02         LD    (BC),A        ; 
1590: B0         OR    B             ; 
1591: 02         LD    (BC),A        ; 
1592: 80         ADD   A,B           ; 
1593: 00         NOP                 ; 
1594: A5         AND   L             ; 
1595: 2E 06      LD    L,$06         ; 
1597: 74         LD    (HL),H        ; 
1598: 04         INC   B             ; 
1599: 78         LD    A,B           ; 
159A: 00         NOP                 ; 
159B: 50         LD    D,B           ; 
159C: 18 50      JR    $15EE         ; 
159E: 08         EX    AF,AF'        ; 
159F: 80         ADD   A,B           ; 
15A0: 00         NOP                 ; 
15A1: A5         AND   L             ; 
15A2: 2E 08      LD    L,$08         ; 
15A4: 14         INC   D             ; 
15A5: 04         INC   B             ; 
15A6: 78         LD    A,B           ; 
15A7: 00         NOP                 ; 
15A8: 50         LD    D,B           ; 
15A9: 08         EX    AF,AF'        ; 
15AA: 50         LD    D,B           ; 
15AB: 18 80      JR    $152D         ; 
15AD: 00         NOP                 ; 
15AE: 9B         SBC   E             ; 
15AF: 05         DEC   B             ; 
15B0: 93         SUB   E             ; 
15B1: 2E 0A      LD    L,$0A         ; 
15B3: 7C         LD    A,H           ; 
15B4: 05         DEC   B             ; 
15B5: A0         AND   B             ; 
15B6: 00         NOP                 ; 
15B7: F0         RET   P             ; 
15B8: 10 30      DJNZ  $15EA         ; 
15BA: 0F         RRCA                ; 
15BB: 30 1F      JR    NC,$15DC      ; 
15BD: 80         ADD   A,B           ; 
15BE: 00         NOP                 ; 
15BF: 93         SUB   E             ; 
15C0: 1F         RRA                 ; 
15C1: 0C         INC   C             ; 
15C2: 50         LD    D,B           ; 
15C3: 93         SUB   E             ; 
15C4: 26 0E      LD    H,$0E         ; 
15C6: 40         LD    B,B           ; 
15C7: 93         SUB   E             ; 
15C8: 2E 10      LD    L,$10         ; 
15CA: 14         INC   D             ; 
15CB: 03         INC   BC            ; 
15CC: AC         XOR   H             ; 
15CD: 00         NOP                 ; 
15CE: FF         RST   $38           ; 
15CF: 10 80      DJNZ  $1551         ; 
15D1: 00         NOP                 ; 
15D2: 83         ADD   A,E           ; 
15D3: 03         INC   BC            ; 
15D4: 7F         LD    A,A           ; 
15D5: 2E 12      LD    L,$12         ; 
15D7: 84         ADD   A,H           ; 
15D8: 07         RLCA                ; 
15D9: 50         LD    D,B           ; 
15DA: 00         NOP                 ; 
15DB: C0         RET   NZ            ; 
15DC: 10 50      DJNZ  $162E         ; 
15DE: 10 28      DJNZ  $1608         ; 
15E0: 0B         DEC   BC            ; 
15E1: 50         LD    D,B           ; 
15E2: 10 70      DJNZ  $1654         ; 
15E4: 0C         INC   C             ; 
15E5: 60         LD    H,B           ; 
15E6: 0D         DEC   C             ; 
15E7: 77         LD    (HL),A        ; 
15E8: 1D         DEC   E             ; 
15E9: 14         INC   D             ; 
15EA: D0         RET   NC            ; 
15EB: 73         LD    (HL),E        ; 
15EC: 05         DEC   B             ; 
15ED: 73         LD    (HL),E        ; 
15EE: 26 04      LD    H,$04         ; 
15F0: 58         LD    E,B           ; 
15F1: 73         LD    (HL),E        ; 
15F2: 1F         RRA                 ; 
15F3: 06 48      LD    B,$48         ; 
15F5: 6D         LD    L,L           ; 
15F6: 2E 16      LD    L,$16         ; 
15F8: 14         INC   D             ; 
15F9: 01 80 00   LD    BC,$0080      ; 
15FC: 6A         LD    L,D           ; 
15FD: 2E 18      LD    L,$18         ; 
15FF: 14         INC   D             ; 
1600: 01 80 00   LD    BC,$0080      ; 
1603: 67         LD    H,A           ; 
1604: 2E 1A      LD    L,$1A         ; 
1606: 14         INC   D             ; 
1607: 01 80 00   LD    BC,$0080      ; 
160A: 64         LD    H,H           ; 
160B: 35         DEC   (HL)          ; 
160C: 1C         INC   E             ; 
160D: 14         INC   D             ; 
160E: 61         LD    H,C           ; 
160F: 35         DEC   (HL)          ; 
1610: 1E 14      LD    E,$14         ; 
1612: 47         LD    B,A           ; 
1613: 2E 08      LD    L,$08         ; 
1615: 80         ADD   A,B           ; 
1616: 06 08      LD    B,$08         ; 
1618: 00         NOP                 ; 
1619: 58         LD    E,B           ; 
161A: 08         EX    AF,AF'        ; 
161B: 60         LD    H,B           ; 
161C: 00         NOP                 ; 
161D: 60         LD    H,B           ; 
161E: 02         LD    (BC),A        ; 
161F: 80         ADD   A,B           ; 
1620: 00         NOP                 ; 
1621: 60         LD    H,B           ; 
1622: 04         INC   B             ; 
1623: 47         LD    B,A           ; 
1624: 2E 0A      LD    L,$0A         ; 
1626: 68         LD    L,B           ; 
1627: 08         EX    AF,AF'        ; 
1628: 08         EX    AF,AF'        ; 
1629: 00         NOP                 ; 
162A: 88         ADC   A,B           ; 
162B: 08         EX    AF,AF'        ; 
162C: 60         LD    H,B           ; 
162D: 00         NOP                 ; 
162E: 60         LD    H,B           ; 
162F: 1C         INC   E             ; 
1630: 38 00      JR    C,$1632       ; 
1632: 18 12      JR    $1646         ; 
1634: A8         XOR   B             ; 
1635: 14         INC   D             ; 
1636: 80         ADD   A,B           ; 
1637: 00         NOP                 ; 
1638: 47         LD    B,A           ; 
1639: 2E 0C      LD    L,$0C         ; 
163B: 50         LD    D,B           ; 
163C: 03         INC   BC            ; 
163D: 08         EX    AF,AF'        ; 
163E: 00         NOP                 ; 
163F: 78         LD    A,B           ; 
1640: 18 80      JR    $15C2         ; 
1642: 00         NOP                 ; 
1643: 37         SCF                 ; 
1644: 1B         DEC   DE            ; 
1645: 0E B8      LD    C,$B8         ; 
1647: 37         SCF                 ; 
1648: 1B         DEC   DE            ; 
1649: 10 48      DJNZ  $1693         ; 
164B: 27         DAA                 ; 
164C: 2E 12      LD    L,$12         ; 
164E: 50         LD    D,B           ; 
164F: 02         LD    (BC),A        ; 
1650: 68         LD    L,B           ; 
1651: 04         INC   B             ; 
1652: E0         RET   PO            ; 
1653: 08         EX    AF,AF'        ; 
1654: 24         INC   H             ; 
1655: 2E 14      LD    L,$14         ; 
1657: 38 02      JR    C,$165B       ; 
1659: 98         SBC   B             ; 
165A: 04         INC   B             ; 
165B: E0         RET   PO            ; 
165C: 08         EX    AF,AF'        ; 
165D: 21 2E 16   LD    HL,$162E      ; 
1660: 20 02      JR    NZ,$1664      ; 
1662: C8         RET   Z             ; 
1663: 04         INC   B             ; 
1664: E0         RET   PO            ; 
1665: 08         EX    AF,AF'        ; 
1666: 1F         RRA                 ; 
1667: 2E 18      LD    L,$18         ; 
1669: 90         SUB   B             ; 
166A: 03         INC   BC            ; 
166B: 08         EX    AF,AF'        ; 
166C: 1C         INC   E             ; 
166D: E0         RET   PO            ; 
166E: 00         NOP                 ; 
166F: D0         RET   NC            ; 
1670: 08         EX    AF,AF'        ; 
1671: 1C         INC   E             ; 
1672: 2E 1A      LD    L,$1A         ; 
1674: A8         XOR   B             ; 
1675: 03         INC   BC            ; 
1676: 38 1C      JR    C,$1694       ; 
1678: E0         RET   PO            ; 
1679: 00         NOP                 ; 
167A: D0         RET   NC            ; 
167B: 08         EX    AF,AF'        ; 
167C: 19         ADD   HL,DE         ; 
167D: 2E 1C      LD    L,$1C         ; 
167F: C0         RET   NZ            ; 
1680: 03         INC   BC            ; 
1681: 68         LD    L,B           ; 
1682: 1C         INC   E             ; 
1683: E0         RET   PO            ; 
1684: 00         NOP                 ; 
1685: D0         RET   NC            ; 
1686: 08         EX    AF,AF'        ; 
1687: 19         ADD   HL,DE         ; 
1688: 1F         RRA                 ; 
1689: 1E 88      LD    E,$88         ; 
168B: 19         ADD   HL,DE         ; 
168C: 1F         RRA                 ; 
168D: 04         INC   B             ; 
168E: 68         LD    L,B           ; 
168F: 19         ADD   HL,DE         ; 
1690: 1F         RRA                 ; 
1691: 06 48      LD    B,$48         ; 
1693: 13         INC   DE            ; 
1694: 1B         DEC   DE            ; 
1695: 08         EX    AF,AF'        ; 
1696: 88         ADC   A,B           ; 
1697: 13         INC   DE            ; 
1698: 1B         DEC   DE            ; 
1699: 0C         INC   C             ; 
169A: 48         LD    C,B           ; 
169B: 0D         DEC   C             ; 
169C: FB         EI                  ; 
169D: 02         LD    (BC),A        ; 
169E: 1F         RRA                 ; 
169F: F5         PUSH  AF            ; 
16A0: 1D         DEC   E             ; 
16A1: 10 A0      DJNZ  $1643         ; 
16A3: F3         DI                  ; 
16A4: 1D         DEC   E             ; 
16A5: 12         LD    (DE),A        ; 
16A6: 80         ADD   A,B           ; 
16A7: F1         POP   AF            ; 
16A8: 1D         DEC   E             ; 
16A9: 14         INC   D             ; 
16AA: 60         LD    H,B           ; 
16AB: EF         RST   $28           ; 
16AC: 1D         DEC   E             ; 
16AD: 16 40      LD    D,$40         ; 
16AF: EB         EX    DE,HL         ; 
16B0: 05         DEC   B             ; 
16B1: E3         EX    (SP),HL       ; 
16B2: 02         LD    (BC),A        ; 
16B3: 38 D5      JR    C,$168A       ; 
16B5: 21 18 50   LD    HL,$5018      ; 
16B8: D3 05      OUT   ($05),A       ; 
16BA: D1         POP   DE            ; 
16BB: 57         LD    D,A           ; 
16BC: CF         RST   $08           ; 
16BD: 03         INC   BC            ; 
16BE: C7         RST   $00           ; 
16BF: 03         INC   BC            ; 
16C0: C3 02 6F   JP    $6F02         ; 
16C3: BF         CP    A             ; 
16C4: 05         DEC   B             ; 
16C5: B3         OR    E             ; 
16C6: 33         INC   SP            ; 
16C7: 9F         SBC   A             ; 
16C8: 34         INC   (HL)          ; 
16C9: 87         ADD   A,A           ; 
16CA: 18 76      JR    $1742         ; 
16CC: 85         ADD   A,L           ; 
16CD: 4E         LD    C,(HL)        ; 
16CE: 0F         RRCA                ; 
16CF: 83         ADD   A,E           ; 
16D0: 4C         LD    C,H           ; 
16D1: 73         LD    (HL),E        ; 
16D2: 02         LD    (BC),A        ; 
16D3: 45         LD    B,L           ; 
16D4: 63         LD    H,E           ; 
16D5: 05         DEC   B             ; 
16D6: 63         LD    H,E           ; 
16D7: 57         LD    D,A           ; 
16D8: 5B         LD    E,E           ; 
16D9: 02         LD    (BC),A        ; 
16DA: 65         LD    H,L           ; 
16DB: 4B         LD    C,E           ; 
16DC: 05         DEC   B             ; 
16DD: 3F         CCF                 ; 
16DE: 03         INC   BC            ; 
16DF: 2F         CPL                 ; 
16E0: 03         INC   BC            ; 
16E1: 20 4D      JR    NZ,$1730      ; 
16E3: 1F         RRA                 ; 
16E4: 03         INC   BC            ; 
16E5: 10 05      DJNZ  $16EC         ; 
16E7: 0D         DEC   C             ; 
16E8: FF         RST   $38           ; 
16E9: 03         INC   BC            ; 
16EA: FF         RST   $38           ; 
16EB: 30 3F      JR    NC,$172C      ; 
16ED: F7         RST   $30           ; 
16EE: 05         DEC   B             ; 
16EF: F3         DI                  ; 
16F0: 57         LD    D,A           ; 
16F1: EF         RST   $28           ; 
16F2: 03         INC   BC            ; 
16F3: E3         EX    (SP),HL       ; 
16F4: 05         DEC   B             ; 
16F5: DB 03      IN    A,($03)       ; 
16F7: CF         RST   $08           ; 
16F8: 05         DEC   B             ; 
16F9: C6 2E      ADD   A,$2E         ; 
16FB: 1C         INC   E             ; 
16FC: D8         RET   C             ; 
16FD: 08         EX    AF,AF'        ; 
16FE: 60         LD    H,B           ; 
16FF: 14         INC   D             ; 
1700: 60         LD    H,B           ; 
1701: 04         INC   B             ; 
1702: 60         LD    H,B           ; 
1703: 14         INC   D             ; 
1704: 60         LD    H,B           ; 
1705: 04         INC   B             ; 
1706: 60         LD    H,B           ; 
1707: 14         INC   D             ; 
1708: 60         LD    H,B           ; 
1709: 04         INC   B             ; 
170A: 60         LD    H,B           ; 
170B: 14         INC   D             ; 
170C: 60         LD    H,B           ; 
170D: 04         INC   B             ; 
170E: C6 2E      ADD   A,$2E         ; 
1710: 1E 98      LD    E,$98         ; 
1712: 08         EX    AF,AF'        ; 
1713: 60         LD    H,B           ; 
1714: 10 60      DJNZ  $1776         ; 
1716: 00         NOP                 ; 
1717: 60         LD    H,B           ; 
1718: 10 60      DJNZ  $177A         ; 
171A: 00         NOP                 ; 
171B: 60         LD    H,B           ; 
171C: 10 60      DJNZ  $177E         ; 
171E: 00         NOP                 ; 
171F: 60         LD    H,B           ; 
1720: 10 60      DJNZ  $1782         ; 
1722: 00         NOP                 ; 
1723: C6 2E      ADD   A,$2E         ; 
1725: 04         INC   B             ; 
1726: 58         LD    E,B           ; 
1727: 08         EX    AF,AF'        ; 
1728: 60         LD    H,B           ; 
1729: 0C         INC   C             ; 
172A: 60         LD    H,B           ; 
172B: 1C         INC   E             ; 
172C: 60         LD    H,B           ; 
172D: 0C         INC   C             ; 
172E: 60         LD    H,B           ; 
172F: 1C         INC   E             ; 
1730: 60         LD    H,B           ; 
1731: 0C         INC   C             ; 
1732: 60         LD    H,B           ; 
1733: 1C         INC   E             ; 
1734: 60         LD    H,B           ; 
1735: 0C         INC   C             ; 
1736: 60         LD    H,B           ; 
1737: 1C         INC   E             ; 
1738: BE         CP    (HL)          ; 
1739: 2E 06      LD    L,$06         ; 
173B: B8         CP    B             ; 
173C: 08         EX    AF,AF'        ; 
173D: 40         LD    B,B           ; 
173E: 08         EX    AF,AF'        ; 
173F: 60         LD    H,B           ; 
1740: 18 60      JR    $17A2         ; 
1742: 08         EX    AF,AF'        ; 
1743: 60         LD    H,B           ; 
1744: 18 60      JR    $17A6         ; 
1746: 08         EX    AF,AF'        ; 
1747: 60         LD    H,B           ; 
1748: 18 60      JR    $17AA         ; 
174A: 08         EX    AF,AF'        ; 
174B: 60         LD    H,B           ; 
174C: 18 BE      JR    $170C         ; 
174E: 2E 08      LD    L,$08         ; 
1750: 78         LD    A,B           ; 
1751: 08         EX    AF,AF'        ; 
1752: 40         LD    B,B           ; 
1753: 18 60      JR    $17B5         ; 
1755: 08         EX    AF,AF'        ; 
1756: 60         LD    H,B           ; 
1757: 18 60      JR    $17B9         ; 
1759: 08         EX    AF,AF'        ; 
175A: 60         LD    H,B           ; 
175B: 18 60      JR    $17BD         ; 
175D: 08         EX    AF,AF'        ; 
175E: 60         LD    H,B           ; 
175F: 18 60      JR    $17C1         ; 
1761: 08         EX    AF,AF'        ; 
1762: B8         CP    B             ; 
1763: 2E 0A      LD    L,$0A         ; 
1765: C8         RET   Z             ; 
1766: 07         RLCA                ; 
1767: 40         LD    B,B           ; 
1768: 1C         INC   E             ; 
1769: 60         LD    H,B           ; 
176A: 0C         INC   C             ; 
176B: 60         LD    H,B           ; 
176C: 1C         INC   E             ; 
176D: 60         LD    H,B           ; 
176E: 0C         INC   C             ; 
176F: 60         LD    H,B           ; 
1770: 1C         INC   E             ; 
1771: 60         LD    H,B           ; 
1772: 0C         INC   C             ; 
1773: 60         LD    H,B           ; 
1774: 1C         INC   E             ; 
1775: B8         CP    B             ; 
1776: 2E 0C      LD    L,$0C         ; 
1778: 98         SBC   B             ; 
1779: 07         RLCA                ; 
177A: 40         LD    B,B           ; 
177B: 00         NOP                 ; 
177C: 60         LD    H,B           ; 
177D: 10 60      DJNZ  $17DF         ; 
177F: 00         NOP                 ; 
1780: 60         LD    H,B           ; 
1781: 10 60      DJNZ  $17E3         ; 
1783: 00         NOP                 ; 
1784: 60         LD    H,B           ; 
1785: 10 60      DJNZ  $17E7         ; 
1787: 00         NOP                 ; 
1788: B8         CP    B             ; 
1789: 2E 0E      LD    L,$0E         ; 
178B: 68         LD    L,B           ; 
178C: 07         RLCA                ; 
178D: 40         LD    B,B           ; 
178E: 04         INC   B             ; 
178F: 60         LD    H,B           ; 
1790: 14         INC   D             ; 
1791: 60         LD    H,B           ; 
1792: 04         INC   B             ; 
1793: 60         LD    H,B           ; 
1794: 14         INC   D             ; 
1795: 60         LD    H,B           ; 
1796: 04         INC   B             ; 
1797: 60         LD    H,B           ; 
1798: 14         INC   D             ; 
1799: 60         LD    H,B           ; 
179A: 04         INC   B             ; 
179B: A9         XOR   C             ; 
179C: 1E 10      LD    E,$10         ; 
179E: B0         OR    B             ; 
179F: A9         XOR   C             ; 
17A0: 1E 12      LD    E,$12         ; 
17A2: 90         SUB   B             ; 
17A3: A7         AND   A             ; 
17A4: 1E 14      LD    E,$14         ; 
17A6: A0         AND   B             ; 
17A7: A5         AND   L             ; 
17A8: 1E 16      LD    E,$16         ; 
17AA: B0         OR    B             ; 
17AB: A5         AND   L             ; 
17AC: 1E 18      LD    E,$18         ; 
17AE: 90         SUB   B             ; 
17AF: 9B         SBC   E             ; 
17B0: 18 76      JR    $1828         ; 
17B2: 91         SUB   C             ; 
17B3: 1F         RRA                 ; 
17B4: 1A         LD    A,(DE)        ; 
17B5: 40         LD    B,B           ; 
17B6: 8F         ADC   A,A           ; 
17B7: 1F         RRA                 ; 
17B8: 1C         INC   E             ; 
17B9: 40         LD    B,B           ; 
17BA: 8B         ADC   A,E           ; 
17BB: 18 76      JR    $1833         ; 
17BD: 87         ADD   A,A           ; 
17BE: 1E 1E      LD    E,$1E         ; 
17C0: 50         LD    D,B           ; 
17C1: 87         ADD   A,A           ; 
17C2: 1E 04      LD    E,$04         ; 
17C4: 40         LD    B,B           ; 
17C5: 7B         LD    A,E           ; 
17C6: 18 76      JR    $183E         ; 
17C8: 6F         LD    L,A           ; 
17C9: 1F         RRA                 ; 
17CA: 06 C0      LD    B,$C0         ; 
17CC: 6F         LD    L,A           ; 
17CD: 1E 08      LD    E,$08         ; 
17CF: A0         AND   B             ; 
17D0: 6F         LD    L,A           ; 
17D1: 1F         RRA                 ; 
17D2: 0A         LD    A,(BC)        ; 
17D3: 80         ADD   A,B           ; 
17D4: 64         LD    H,H           ; 
17D5: 2E 0C      LD    L,$0C         ; 
17D7: 98         SBC   B             ; 
17D8: 10 80      DJNZ  $175A         ; 
17DA: 18 80      JR    $175C         ; 
17DC: 10 80      DJNZ  $175E         ; 
17DE: 09         ADD   HL,BC         ; 
17DF: 20 0C      JR    NZ,$17ED      ; 
17E1: 40         LD    B,B           ; 
17E2: 18 20      JR    $1804         ; 
17E4: 1A         LD    A,(DE)        ; 
17E5: 10 18      DJNZ  $17FF         ; 
17E7: 28 10      JR    Z,$17F9       ; 
17E9: 10 08      DJNZ  $17F3         ; 
17EB: 20 06      JR    NZ,$17F3      ; 
17ED: 48         LD    C,B           ; 
17EE: 08         EX    AF,AF'        ; 
17EF: 18 0C      JR    $17FD         ; 
17F1: 70         LD    (HL),B        ; 
17F2: 18 A0      JR    $1794         ; 
17F4: 13         INC   DE            ; 
17F5: 98         SBC   B             ; 
17F6: 08         EX    AF,AF'        ; 
17F7: 80         ADD   A,B           ; 
17F8: 04         INC   B             ; 
17F9: 47         LD    B,A           ; 
17FA: 1D         DEC   E             ; 
17FB: 0E C0      LD    C,$C0         ; 
17FD: 47         LD    B,A           ; 
17FE: 1D         DEC   E             ; 
17FF: 10 A0      DJNZ  $17A1         ; 
1801: 47         LD    B,A           ; 
1802: 1D         DEC   E             ; 
1803: 12         LD    (DE),A        ; 
1804: 80         ADD   A,B           ; 
1805: 47         LD    B,A           ; 
1806: 1D         DEC   E             ; 
1807: 14         INC   D             ; 
1808: 60         LD    H,B           ; 
1809: 43         LD    B,E           ; 
180A: 1D         DEC   E             ; 
180B: 16 C0      LD    D,$C0         ; 
180D: 43         LD    B,E           ; 
180E: 1D         DEC   E             ; 
180F: 18 A0      JR    $17B1         ; 
1811: 43         LD    B,E           ; 
1812: 1D         DEC   E             ; 
1813: 1A         LD    A,(DE)        ; 
1814: 80         ADD   A,B           ; 
1815: 43         LD    B,E           ; 
1816: 1D         DEC   E             ; 
1817: 1C         INC   E             ; 
1818: 60         LD    H,B           ; 
1819: 36 1E      LD    (HL),$1E      ; 
181B: 1E 80      LD    E,$80         ; 
181D: 36 26      LD    (HL),$26      ; 
181F: 04         INC   B             ; 
1820: 60         LD    H,B           ; 
1821: 36 1E      LD    (HL),$1E      ; 
1823: 06 40      LD    B,$40         ; 
1825: 2B         DEC   HL            ; 
1826: 1F         RRA                 ; 
1827: 08         EX    AF,AF'        ; 
1828: 50         LD    D,B           ; 
1829: 21 20 0A   LD    HL,$0A20      ; 
182C: 80         ADD   A,B           ; 
182D: 1B         DEC   DE            ; 
182E: 20 0E      JR    NZ,$183E      ; 
1830: 80         ADD   A,B           ; 
1831: 19         ADD   HL,DE         ; 
1832: 1B         DEC   DE            ; 
1833: 12         LD    (DE),A        ; 
1834: D0         RET   NC            ; 
1835: 19         ADD   HL,DE         ; 
1836: 1B         DEC   DE            ; 
1837: 14         INC   D             ; 
1838: 20 13      JR    NZ,$184D      ; 
183A: 1B         DEC   DE            ; 
183B: 16 D0      LD    D,$D0         ; 
183D: 13         INC   DE            ; 
183E: 1B         DEC   DE            ; 
183F: 18 20      JR    $1861         ; 
1841: 0D         DEC   C             ; 
1842: FB         EI                  ; 
1843: 11 74 F3   LD    DE,$F374      ; 
1846: 22 08 E9   LD    ($E908),HL    ; 
1849: 2D         DEC   L             ; 
184A: 04         INC   B             ; 
184B: 60         LD    H,B           ; 
184C: E6 22      AND   $22           ; 
184E: 08         EX    AF,AF'        ; 
184F: E4 2E 0E   CALL  PO,$0E2E      ; 
1852: 9C         SBC   H             ; 
1853: 01 80 00   LD    BC,$0080      ; 
1856: DC 2E 10   CALL  C,$102E       ; 
1859: 2C         INC   L             ; 
185A: 02         LD    (BC),A        ; 
185B: F8         RET   M             ; 
185C: 00         NOP                 ; 
185D: 40         LD    B,B           ; 
185E: 1C         INC   E             ; 
185F: CB 26      SLA   (HL)          ; 
1861: 12         LD    (DE),A        ; 
1862: B0         OR    B             ; 
1863: CB 1F      RR    A             ; 
1865: 14         INC   D             ; 
1866: A0         AND   B             ; 
1867: CB 2E      SRA   (HL)          ; 
1869: 16 2C      LD    D,$2C         ; 
186B: 07         RLCA                ; 
186C: 70         LD    (HL),B        ; 
186D: 00         NOP                 ; 
186E: E8         RET   PE            ; 
186F: 10 20      DJNZ  $1891         ; 
1871: 12         LD    (DE),A        ; 
1872: B8         CP    B             ; 
1873: 10 B8      DJNZ  $182D         ; 
1875: 00         NOP                 ; 
1876: 20 02      JR    NZ,$187A      ; 
1878: 20 00      JR    NZ,$187A      ; 
187A: C3 23 C3   JP    $C323         ; 
187D: 35         DEC   (HL)          ; 
187E: 18 7C      JR    $18FC         ; 
1880: BF         CP    A             ; 
1881: 35         DEC   (HL)          ; 
1882: 1A         LD    A,(DE)        ; 
1883: 7C         LD    A,H           ; 
1884: BB         CP    E             ; 
1885: 35         DEC   (HL)          ; 
1886: 1C         INC   E             ; 
1887: 7C         LD    A,H           ; 
1888: B7         OR    A             ; 
1889: 39         ADD   HL,SP         ; 
188A: 1E 7C      LD    E,$7C         ; 
188C: AF         XOR   A             ; 
188D: 3B         DEC   SP            ; 
188E: 04         INC   B             ; 
188F: 24         INC   H             ; 
1890: A7         AND   A             ; 
1891: 3B         DEC   SP            ; 
1892: 06 24      LD    B,$24         ; 
1894: A3         AND   E             ; 
1895: 22 0C 9B   LD    ($9B0C),HL    ; 
1898: 03         INC   BC            ; 
1899: 8B         ADC   A,E           ; 
189A: 05         DEC   B             ; 
189B: 8B         ADC   A,E           ; 
189C: 1D         DEC   E             ; 
189D: 08         EX    AF,AF'        ; 
189E: 70         LD    (HL),B        ; 
189F: 84         ADD   A,H           ; 
18A0: 1D         DEC   E             ; 
18A1: 0A         LD    A,(BC)        ; 
18A2: 70         LD    (HL),B        ; 
18A3: 84         ADD   A,H           ; 
18A4: 22 04 77   LD    ($7704),HL    ; 
18A7: 2E 0C      LD    L,$0C         ; 
18A9: 34         INC   (HL)          ; 
18AA: 09         ADD   HL,BC         ; 
18AB: 60         LD    H,B           ; 
18AC: 00         NOP                 ; 
18AD: A0         AND   B             ; 
18AE: 10 28      DJNZ  $18D8         ; 
18B0: 0D         DEC   C             ; 
18B1: 50         LD    D,B           ; 
18B2: 10 70      DJNZ  $1924         ; 
18B4: 0C         INC   C             ; 
18B5: 60         LD    H,B           ; 
18B6: 0D         DEC   C             ; 
18B7: 40         LD    B,B           ; 
18B8: 06 30      LD    B,$30         ; 
18BA: 04         INC   B             ; 
18BB: 20 08      JR    NZ,$18C5      ; 
18BD: 75         LD    (HL),L        ; 
18BE: 1F         RRA                 ; 
18BF: 0E 60      LD    C,$60         ; 
18C1: 73         LD    (HL),E        ; 
18C2: 1E 10      LD    E,$10         ; 
18C4: 70         LD    (HL),B        ; 
18C5: 73         LD    (HL),E        ; 
18C6: 23         INC   HL            ; 
18C7: 71         LD    (HL),C        ; 
18C8: 1F         RRA                 ; 
18C9: 12         LD    (DE),A        ; 
18CA: 80         ADD   A,B           ; 
18CB: 6F         LD    L,A           ; 
18CC: 1E 14      LD    E,$14         ; 
18CE: 90         SUB   B             ; 
18CF: 6D         LD    L,L           ; 
18D0: 1F         RRA                 ; 
18D1: 16 A0      LD    D,$A0         ; 
18D3: 6B         LD    L,E           ; 
18D4: 1E 18      LD    E,$18         ; 
18D6: B0         OR    B             ; 
18D7: 69         LD    L,C           ; 
18D8: 1F         RRA                 ; 
18D9: 1A         LD    A,(DE)        ; 
18DA: C0         RET   NZ            ; 
18DB: 67         LD    H,A           ; 
18DC: 1E 1C      LD    E,$1C         ; 
18DE: D0         RET   NC            ; 
18DF: 67         LD    H,A           ; 
18E0: 57         LD    D,A           ; 
18E1: 63         LD    H,E           ; 
18E2: 03         INC   BC            ; 
18E3: 63         LD    H,E           ; 
18E4: 03         INC   BC            ; 
18E5: 53         LD    D,E           ; 
18E6: 22 10 43   LD    ($4310),HL    ; 
18E9: 03         INC   BC            ; 
18EA: 3B         DEC   SP            ; 
18EB: 05         DEC   B             ; 
18EC: 2B         DEC   HL            ; 
18ED: 2E 1E      LD    L,$1E         ; 
18EF: E0         RET   PO            ; 
18F0: 05         DEC   B             ; 
18F1: 08         EX    AF,AF'        ; 
18F2: 00         NOP                 ; 
18F3: 60         LD    H,B           ; 
18F4: 18 20      JR    $1916         ; 
18F6: 1C         INC   E             ; 
18F7: D8         RET   C             ; 
18F8: 18 20      JR    $191A         ; 
18FA: 14         INC   D             ; 
18FB: 27         DAA                 ; 
18FC: 21 04 68   LD    HL,$6804      ; 
18FF: 23         INC   HL            ; 
1900: 23         INC   HL            ; 
1901: 1E 1D      LD    E,$1D         ; 
1903: 08         EX    AF,AF'        ; 
1904: 20 1D      JR    NZ,$1923      ; 
1906: 1F         RRA                 ; 
1907: 0A         LD    A,(BC)        ; 
1908: D0         RET   NC            ; 
1909: 1D         DEC   E             ; 
190A: 1F         RRA                 ; 
190B: 0C         INC   C             ; 
190C: A0         AND   B             ; 
190D: 1B         DEC   DE            ; 
190E: 1D         DEC   E             ; 
190F: 0E 38      LD    C,$38         ; 
1911: 18 1D      JR    $1930         ; 
1913: 10 50      DJNZ  $1965         ; 
1915: 17         RLA                 ; 
1916: 1E 12      LD    E,$12         ; 
1918: D0         RET   NC            ; 
1919: 17         RLA                 ; 
191A: 1E 14      LD    E,$14         ; 
191C: A0         AND   B             ; 
191D: 15         DEC   D             ; 
191E: 1D         DEC   E             ; 
191F: 16 68      LD    D,$68         ; 
1921: 13         INC   DE            ; 
1922: 23         INC   HL            ; 
1923: 0D         DEC   C             ; 
1924: FF         RST   $38           ; 
1925: 30 0F      JR    NC,$1936      ; 
1927: FF         RST   $38           ; 
1928: 29         ADD   HL,HL         ; 
1929: 0F         RRCA                ; 
192A: FF         RST   $38           ; 
192B: 2B         DEC   HL            ; 
192C: 03         INC   BC            ; 
192D: FF         RST   $38           ; 
192E: 2A 03 F3   LD    HL,($F303)    ; 
1931: 57         LD    D,A           ; 
1932: EE 2E      XOR   $2E           ; 
1934: 04         INC   B             ; 
1935: 14         INC   D             ; 
1936: 09         ADD   HL,BC         ; 
1937: 08         EX    AF,AF'        ; 
1938: 00         NOP                 ; 
1939: A0         AND   B             ; 
193A: 08         EX    AF,AF'        ; 
193B: 30 0C      JR    NC,$1949      ; 
193D: 48         LD    C,B           ; 
193E: 10 30      DJNZ  $1970         ; 
1940: 00         NOP                 ; 
1941: 50         LD    D,B           ; 
1942: 10 68      DJNZ  $19AC         ; 
1944: 00         NOP                 ; 
1945: 30 1C      JR    NC,$1963      ; 
1947: 20 18      JR    NZ,$1961      ; 
1949: E5         PUSH  HL            ; 
194A: 1B         DEC   DE            ; 
194B: 06 C0      LD    B,$C0         ; 
194D: E5         PUSH  HL            ; 
194E: 1F         RRA                 ; 
194F: 08         EX    AF,AF'        ; 
1950: B0         OR    B             ; 
1951: E5         PUSH  HL            ; 
1952: 1F         RRA                 ; 
1953: 0A         LD    A,(BC)        ; 
1954: 48         LD    C,B           ; 
1955: E5         PUSH  HL            ; 
1956: 1B         DEC   DE            ; 
1957: 0C         INC   C             ; 
1958: 38 E3      JR    C,$193D       ; 
195A: 1F         RRA                 ; 
195B: 0E C0      LD    C,$C0         ; 
195D: E3         EX    (SP),HL       ; 
195E: 1B         DEC   DE            ; 
195F: 10 B0      DJNZ  $1911         ; 
1961: E3         EX    (SP),HL       ; 
1962: 1B         DEC   DE            ; 
1963: 12         LD    (DE),A        ; 
1964: 48         LD    C,B           ; 
1965: E3         EX    (SP),HL       ; 
1966: 1F         RRA                 ; 
1967: 14         INC   D             ; 
1968: 38 DC      JR    C,$1946       ; 
196A: 2E 16      LD    L,$16         ; 
196C: 7C         LD    A,H           ; 
196D: 04         INC   B             ; 
196E: 08         EX    AF,AF'        ; 
196F: 10 78      DJNZ  $19E9         ; 
1971: 00         NOP                 ; 
1972: 50         LD    D,B           ; 
1973: 10 40      DJNZ  $19B5         ; 
1975: 00         NOP                 ; 
1976: C9         RET                 ; 
1977: 35         DEC   (HL)          ; 
1978: 18 48      JR    $19C2         ; 
197A: C9         RET                 ; 
197B: 35         DEC   (HL)          ; 
197C: 1A         LD    A,(DE)        ; 
197D: 38 C7      JR    C,$1946       ; 
197F: 35         DEC   (HL)          ; 
1980: 1C         INC   E             ; 
1981: 48         LD    C,B           ; 
1982: C7         RST   $00           ; 
1983: 35         DEC   (HL)          ; 
1984: 1E 38      LD    E,$38         ; 
1986: BD         CP    L             ; 
1987: 1E 04      LD    E,$04         ; 
1989: B0         OR    B             ; 
198A: BB         CP    E             ; 
198B: 1E 06      LD    E,$06         ; 
198D: B0         OR    B             ; 
198E: BB         CP    E             ; 
198F: 1E 08      LD    E,$08         ; 
1991: 90         SUB   B             ; 
1992: B9         CP    C             ; 
1993: 1E 0A      LD    E,$0A         ; 
1995: 90         SUB   B             ; 
1996: B3         OR    E             ; 
1997: 2E 0C      LD    L,$0C         ; 
1999: CC 01 20   CALL  Z,$2001       ; 
199C: 00         NOP                 ; 
199D: A7         AND   A             ; 
199E: 2E 0E      LD    L,$0E         ; 
19A0: 74         LD    (HL),H        ; 
19A1: 04         INC   B             ; 
19A2: 58         LD    E,B           ; 
19A3: 00         NOP                 ; 
19A4: A0         AND   B             ; 
19A5: 18 A0      JR    $1947         ; 
19A7: 08         EX    AF,AF'        ; 
19A8: 20 00      JR    NZ,$19AA      ; 
19AA: A3         AND   E             ; 
19AB: 2E 10      LD    L,$10         ; 
19AD: 14         INC   D             ; 
19AE: 01 20 00   LD    BC,$0020      ; 
19B1: A3         AND   E             ; 
19B2: 57         LD    D,A           ; 
19B3: A1         AND   C             ; 
19B4: 2E 12      LD    L,$12         ; 
19B6: 14         INC   D             ; 
19B7: 01 20 00   LD    BC,$0020      ; 
19BA: 97         SUB   A             ; 
19BB: 03         INC   BC            ; 
19BC: 93         SUB   E             ; 
19BD: 2E 14      LD    L,$14         ; 
19BF: 7C         LD    A,H           ; 
19C0: 02         LD    (BC),A        ; 
19C1: 98         SBC   B             ; 
19C2: 00         NOP                 ; 
19C3: 20 02      JR    NZ,$19C7      ; 
19C5: 8D         ADC   A,L           ; 
19C6: 1D         DEC   E             ; 
19C7: 16 E0      LD    D,$E0         ; 
19C9: 8D         ADC   A,L           ; 
19CA: 1D         DEC   E             ; 
19CB: 18 D0      JR    $199D         ; 
19CD: 8B         ADC   A,E           ; 
19CE: 1D         DEC   E             ; 
19CF: 1A         LD    A,(DE)        ; 
19D0: E0         RET   PO            ; 
19D1: 8B         ADC   A,E           ; 
19D2: 1D         DEC   E             ; 
19D3: 1C         INC   E             ; 
19D4: D0         RET   NC            ; 
19D5: 87         ADD   A,A           ; 
19D6: 05         DEC   B             ; 
19D7: 83         ADD   A,E           ; 
19D8: 03         INC   BC            ; 
19D9: 77         LD    (HL),A        ; 
19DA: 1E 1E      LD    E,$1E         ; 
19DC: 60         LD    H,B           ; 
19DD: 77         LD    (HL),A        ; 
19DE: 1F         RRA                 ; 
19DF: 04         INC   B             ; 
19E0: 50         LD    D,B           ; 
19E1: 73         LD    (HL),E        ; 
19E2: 05         DEC   B             ; 
19E3: 73         LD    (HL),E        ; 
19E4: 2E 06      LD    L,$06         ; 
19E6: 14         INC   D             ; 
19E7: 04         INC   B             ; 
19E8: 70         LD    (HL),B        ; 
19E9: 00         NOP                 ; 
19EA: E0         RET   PO            ; 
19EB: 10 A0      DJNZ  $198D         ; 
19ED: 10 20      DJNZ  $1A0F         ; 
19EF: 00         NOP                 ; 
19F0: 6F         LD    L,A           ; 
19F1: 1F         RRA                 ; 
19F2: 08         EX    AF,AF'        ; 
19F3: 60         LD    H,B           ; 
19F4: 6F         LD    L,A           ; 
19F5: 1E 0A      LD    E,$0A         ; 
19F7: 50         LD    D,B           ; 
19F8: 6B         LD    L,E           ; 
19F9: 03         INC   BC            ; 
19FA: 5B         LD    E,E           ; 
19FB: 05         DEC   B             ; 
19FC: 55         LD    D,L           ; 
19FD: 1B         DEC   DE            ; 
19FE: 0C         INC   C             ; 
19FF: A8         XOR   B             ; 
1A00: 47         LD    B,A           ; 
1A01: 2E 0E      LD    L,$0E         ; 
1A03: 78         LD    A,B           ; 
1A04: 03         INC   BC            ; 
1A05: 08         EX    AF,AF'        ; 
1A06: 00         NOP                 ; 
1A07: C8         RET   Z             ; 
1A08: 18 20      JR    $1A2A         ; 
1A0A: 00         NOP                 ; 
1A0B: 47         LD    B,A           ; 
1A0C: 2E 10      LD    L,$10         ; 
1A0E: 90         SUB   B             ; 
1A0F: 03         INC   BC            ; 
1A10: 08         EX    AF,AF'        ; 
1A11: 00         NOP                 ; 
1A12: F8         RET   M             ; 
1A13: 18 20      JR    $1A35         ; 
1A15: 00         NOP                 ; 
1A16: 47         LD    B,A           ; 
1A17: 2E 12      LD    L,$12         ; 
1A19: A8         XOR   B             ; 
1A1A: 04         INC   B             ; 
1A1B: 08         EX    AF,AF'        ; 
1A1C: 00         NOP                 ; 
1A1D: E0         RET   PO            ; 
1A1E: 18 48      JR    $1A68         ; 
1A20: 18 20      JR    $1A42         ; 
1A22: 00         NOP                 ; 
1A23: 37         SCF                 ; 
1A24: 1F         RRA                 ; 
1A25: 14         INC   D             ; 
1A26: C0         RET   NZ            ; 
1A27: 37         SCF                 ; 
1A28: 1F         RRA                 ; 
1A29: 16 B0      LD    D,$B0         ; 
1A2B: 30 1B      JR    NC,$1A48      ; 
1A2D: 18 68      JR    $1A97         ; 
1A2F: 2E 1B      LD    L,$1B         ; 
1A31: 1A         LD    A,(DE)        ; 
1A32: 58         LD    E,B           ; 
1A33: 2C         INC   L             ; 
1A34: 1B         DEC   DE            ; 
1A35: 1C         INC   E             ; 
1A36: 48         LD    C,B           ; 
1A37: 2A 1B 1E   LD    HL,($1E1B)    ; 
1A3A: 38 27      JR    C,$1A63       ; 
1A3C: 36 04      LD    (HL),$04      ; 
1A3E: 14         INC   D             ; 
1A3F: 23         INC   HL            ; 
1A40: 36 06      LD    (HL),$06      ; 
1A42: 14         INC   D             ; 
1A43: 1F         RRA                 ; 
1A44: 36 08      LD    (HL),$08      ; 
1A46: 14         INC   D             ; 
1A47: 1B         DEC   DE            ; 
1A48: 39         ADD   HL,SP         ; 
1A49: 0A         LD    A,(BC)        ; 
1A4A: 14         INC   D             ; 
1A4B: 18 2E      JR    $1A7B         ; 
1A4D: 0C         INC   C             ; 
1A4E: 88         ADC   A,B           ; 
1A4F: 08         EX    AF,AF'        ; 
1A50: 40         LD    B,B           ; 
1A51: 00         NOP                 ; 
1A52: 80         ADD   A,B           ; 
1A53: 18 80      JR    $19D5         ; 
1A55: 10 80      DJNZ  $19D7         ; 
1A57: 08         EX    AF,AF'        ; 
1A58: 80         ADD   A,B           ; 
1A59: 00         NOP                 ; 
1A5A: 80         ADD   A,B           ; 
1A5B: 18 80      JR    $19DD         ; 
1A5D: 10 80      DJNZ  $19DF         ; 
1A5F: 08         EX    AF,AF'        ; 
1A60: 18 2E      JR    $1A90         ; 
1A62: 0E 48      LD    C,$48         ; 
1A64: 08         EX    AF,AF'        ; 
1A65: 40         LD    B,B           ; 
1A66: 10 80      DJNZ  $19E8         ; 
1A68: 08         EX    AF,AF'        ; 
1A69: 80         ADD   A,B           ; 
1A6A: 00         NOP                 ; 
1A6B: 80         ADD   A,B           ; 
1A6C: 18 80      JR    $19EE         ; 
1A6E: 10 80      DJNZ  $19F0         ; 
1A70: 08         EX    AF,AF'        ; 
1A71: 80         ADD   A,B           ; 
1A72: 00         NOP                 ; 
1A73: 80         ADD   A,B           ; 
1A74: 18 17      JR    $1A8D         ; 
1A76: 21 10 70   LD    HL,$7010      ; 
1A79: 0D         DEC   C             ; 
1A7A: F7         RST   $30           ; 
1A7B: 1B         DEC   DE            ; 
1A7C: 14         INC   D             ; 
1A7D: 20 F3      JR    NZ,$1A72      ; 
1A7F: 1B         DEC   DE            ; 
1A80: 16 A0      LD    D,$A0         ; 
1A82: F3         DI                  ; 
1A83: 1B         DEC   DE            ; 
1A84: 18 70      JR    $1AF6         ; 
1A86: ED 
1A87: 1F         RRA                 ; 
1A88: 1A         LD    A,(DE)        ; 
1A89: A0         AND   B             ; 
1A8A: EB         EX    DE,HL         ; 
1A8B: 1F         RRA                 ; 
1A8C: 1C         INC   E             ; 
1A8D: 90         SUB   B             ; 
1A8E: E9         JP    (HL)          ; 
1A8F: 1F         RRA                 ; 
1A90: 1E 80      LD    E,$80         ; 
1A92: E7         RST   $20           ; 
1A93: 1F         RRA                 ; 
1A94: 04         INC   B             ; 
1A95: 70         LD    (HL),B        ; 
1A96: E3         EX    (SP),HL       ; 
1A97: 57         LD    D,A           ; 
1A98: DF         RST   $18           ; 
1A99: 1B         DEC   DE            ; 
1A9A: 06 C0      LD    B,$C0         ; 
1A9C: D9         EXX                 ; 
1A9D: 1B         DEC   DE            ; 
1A9E: 08         EX    AF,AF'        ; 
1A9F: C0         RET   NZ            ; 
1AA0: D3 03      OUT   ($03),A       ; 
1AA2: BB         CP    E             ; 
1AA3: 05         DEC   B             ; 
1AA4: B1         OR    C             ; 
1AA5: 21 0A B0   LD    HL,$B00A      ; 
1AA8: B1         OR    C             ; 
1AA9: 21 0E 50   LD    HL,$500E      ; 
1AAC: AB         XOR   E             ; 
1AAD: 03         INC   BC            ; 
1AAE: A1         AND   C             ; 
1AAF: 3E 12      LD    A,$12         ; 
1AB1: 90         SUB   B             ; 
1AB2: 9D         SBC   L             ; 
1AB3: 3E 14      LD    A,$14         ; 
1AB5: 70         LD    (HL),B        ; 
1AB6: 99         SBC   C             ; 
1AB7: 40         LD    B,B           ; 
1AB8: 16 50      LD    D,$50         ; 
1ABA: 95         SUB   L             ; 
1ABB: 3E 18      LD    A,$18         ; 
1ABD: 30 93      JR    NC,$1A52      ; 
1ABF: 05         DEC   B             ; 
1AC0: 8D         ADC   A,L           ; 
1AC1: 40         LD    B,B           ; 
1AC2: 1A         LD    A,(DE)        ; 
1AC3: 50         LD    D,B           ; 
1AC4: 89         ADC   A,C           ; 
1AC5: 3E 1C      LD    A,$1C         ; 
1AC7: 70         LD    (HL),B        ; 
1AC8: 85         ADD   A,L           ; 
1AC9: 3E 1E      LD    A,$1E         ; 
1ACB: 90         SUB   B             ; 
1ACC: 81         ADD   A,C           ; 
1ACD: 3E 04      LD    A,$04         ; 
1ACF: B0         OR    B             ; 
1AD0: 7B         LD    A,E           ; 
1AD1: 03         INC   BC            ; 
1AD2: 71         LD    (HL),C        ; 
1AD3: 1F         RRA                 ; 
1AD4: 06 D0      LD    B,$D0         ; 
1AD6: 6F         LD    L,A           ; 
1AD7: 26 08      LD    H,$08         ; 
1AD9: C0         RET   NZ            ; 
1ADA: 6D         LD    L,L           ; 
1ADB: 1F         RRA                 ; 
1ADC: 0A         LD    A,(BC)        ; 
1ADD: B0         OR    B             ; 
1ADE: 6B         LD    L,E           ; 
1ADF: 26 0C      LD    H,$0C         ; 
1AE1: A0         AND   B             ; 
1AE2: 69         LD    L,C           ; 
1AE3: 1F         RRA                 ; 
1AE4: 0E 90      LD    C,$90         ; 
1AE6: 63         LD    H,E           ; 
1AE7: 05         DEC   B             ; 
1AE8: 5F         LD    E,A           ; 
1AE9: 57         LD    D,A           ; 
1AEA: 5B         LD    E,E           ; 
1AEB: 02         LD    (BC),A        ; 
1AEC: EC 43 05   CALL  PE,$0543      ; 
1AEF: 40         LD    B,B           ; 
1AF0: 1D         DEC   E             ; 
1AF1: 10 30      DJNZ  $1B23         ; 
1AF3: 40         LD    B,B           ; 
1AF4: 1D         DEC   E             ; 
1AF5: 12         LD    (DE),A        ; 
1AF6: 20 3B      JR    NZ,$1B33      ; 
1AF8: 03         INC   BC            ; 
1AF9: 36 1B      LD    (HL),$1B      ; 
1AFB: 14         INC   D             ; 
1AFC: C0         RET   NZ            ; 
1AFD: 25         DEC   H             ; 
1AFE: 2E 16      LD    L,$16         ; 
1B00: E0         RET   PO            ; 
1B01: 02         LD    (BC),A        ; 
1B02: C0         RET   NZ            ; 
1B03: 18 C0      JR    $1AC5         ; 
1B05: 08         EX    AF,AF'        ; 
1B06: 25         DEC   H             ; 
1B07: 2E 18      LD    L,$18         ; 
1B09: 10 02      DJNZ  $1B0D         ; 
1B0B: C0         RET   NZ            ; 
1B0C: 08         EX    AF,AF'        ; 
1B0D: C0         RET   NZ            ; 
1B0E: 18 23      JR    $1B33         ; 
1B10: 2E 1A      LD    L,$1A         ; 
1B12: D0         RET   NC            ; 
1B13: 02         LD    (BC),A        ; 
1B14: A0         AND   B             ; 
1B15: 18 A0      JR    $1AB7         ; 
1B17: 08         EX    AF,AF'        ; 
1B18: 23         INC   HL            ; 
1B19: 2E 1C      LD    L,$1C         ; 
1B1B: 20 02      JR    NZ,$1B1F      ; 
1B1D: A0         AND   B             ; 
1B1E: 08         EX    AF,AF'        ; 
1B1F: A0         AND   B             ; 
1B20: 18 23      JR    $1B45         ; 
1B22: 05         DEC   B             ; 
1B23: 1B         DEC   DE            ; 
1B24: 02         LD    (BC),A        ; 
1B25: E6 0E      AND   $0E           ; 
1B27: 05         DEC   B             ; 
1B28: 0D         DEC   C             ; 
1B29: FF         RST   $38           ; 
1B2A: 02         LD    (BC),A        ; 
1B2B: 6D         LD    L,L           ; 
1B2C: F7         RST   $30           ; 
1B2D: 05         DEC   B             ; 
1B2E: F3         DI                  ; 
1B2F: 22 02 E7   LD    ($E702),HL    ; 
1B32: 23         INC   HL            ; 
1B33: E7         RST   $20           ; 
1B34: 4E         LD    C,(HL)        ; 
1B35: 0F         RRCA                ; 
1B36: E7         RST   $20           ; 
1B37: 02         LD    (BC),A        ; 
1B38: F1         POP   AF            ; 
1B39: E3         EX    (SP),HL       ; 
1B3A: 4C         LD    C,H           ; 
1B3B: DF         RST   $18           ; 
1B3C: 05         DEC   B             ; 
1B3D: DB 02      IN    A,($02)       ; 
1B3F: 34         INC   (HL)          ; 
1B40: D5         PUSH  DE            ; 
1B41: 05         DEC   B             ; 
1B42: CB 02      RLC   D             ; 
1B44: 49         LD    C,C           ; 
1B45: C5         PUSH  BC            ; 
1B46: 05         DEC   B             ; 
1B47: BB         CP    E             ; 
1B48: 02         LD    (BC),A        ; 
1B49: 3E BB      LD    A,$BB         ; 
1B4B: 4D         LD    C,L           ; 
1B4C: AB         XOR   E             ; 
1B4D: 05         DEC   B             ; 
1B4E: A1         AND   C             ; 
1B4F: 33         INC   SP            ; 
1B50: 8F         ADC   A,A           ; 
1B51: 34         INC   (HL)          ; 
1B52: 7F         LD    A,A           ; 
1B53: 02         LD    (BC),A        ; 
1B54: 46         LD    B,(HL)        ; 
1B55: 77         LD    (HL),A        ; 
1B56: 05         DEC   B             ; 
1B57: 73         LD    (HL),E        ; 
1B58: 18 76      JR    $1BD0         ; 
1B5A: 67         LD    H,A           ; 
1B5B: 4C         LD    C,H           ; 
1B5C: 67         LD    H,A           ; 
1B5D: 02         LD    (BC),A        ; 
1B5E: 66         LD    H,(HL)        ; 
1B5F: 65         LD    H,L           ; 
1B60: 05         DEC   B             ; 
1B61: 5B         LD    E,E           ; 
1B62: 02         LD    (BC),A        ; 
1B63: 21 55 05   LD    HL,$0555      ; 
1B66: 4B         LD    C,E           ; 
1B67: 03         INC   BC            ; 
1B68: 3B         DEC   SP            ; 
1B69: 05         DEC   B             ; 
1B6A: 37         SCF                 ; 
1B6B: 57         LD    D,A           ; 
1B6C: 33         INC   SP            ; 
1B6D: 4D         LD    C,L           ; 
1B6E: 33         INC   SP            ; 
1B6F: 03         INC   BC            ; 
1B70: 23         INC   HL            ; 
1B71: 05         DEC   B             ; 
1B72: 1B         DEC   DE            ; 
1B73: 03         INC   BC            ; 
1B74: 1F         RRA                 ; 
1B75: 05         DEC   B             ; 
1B76: 0D         DEC   C             ; 
1B77: FF         RST   $38           ; 
1B78: 02         LD    (BC),A        ; 
1B79: 08         EX    AF,AF'        ; 
1B7A: F3         DI                  ; 
1B7B: 05         DEC   B             ; 
1B7C: EF         RST   $28           ; 
1B7D: 2E 04      LD    L,$04         ; 
1B7F: 3C         INC   A             ; 
1B80: 05         DEC   B             ; 
1B81: 80         ADD   A,B           ; 
1B82: 00         NOP                 ; 
1B83: 80         ADD   A,B           ; 
1B84: 10 70      DJNZ  $1BF6         ; 
1B86: 00         NOP                 ; 
1B87: 70         LD    (HL),B        ; 
1B88: 10 70      DJNZ  $1BFA         ; 
1B8A: 00         NOP                 ; 
1B8B: EE 1D      XOR   $1D           ; 
1B8D: 06 D0      LD    B,$D0         ; 
1B8F: EE 26      XOR   $26           ; 
1B91: 08         EX    AF,AF'        ; 
1B92: 80         ADD   A,B           ; 
1B93: E6 2E      AND   $2E           ; 
1B95: 0A         LD    A,(BC)        ; 
1B96: 3C         INC   A             ; 
1B97: 03         INC   BC            ; 
1B98: 70         LD    (HL),B        ; 
1B99: 00         NOP                 ; 
1B9A: 70         LD    (HL),B        ; 
1B9B: 10 70      DJNZ  $1C0D         ; 
1B9D: 00         NOP                 ; 
1B9E: E5         PUSH  HL            ; 
1B9F: 1F         RRA                 ; 
1BA0: 0C         INC   C             ; 
1BA1: 80         ADD   A,B           ; 
1BA2: DE 2E      SBC   A,$2E         ; 
1BA4: 0E 3C      LD    C,$3C         ; 
1BA6: 03         INC   BC            ; 
1BA7: 60         LD    H,B           ; 
1BA8: 00         NOP                 ; 
1BA9: 60         LD    H,B           ; 
1BAA: 10 60      DJNZ  $1C0C         ; 
1BAC: 00         NOP                 ; 
1BAD: D7         RST   $10           ; 
1BAE: 1F         RRA                 ; 
1BAF: 10 C0      DJNZ  $1B71         ; 
1BB1: D7         RST   $10           ; 
1BB2: 2E 12      LD    L,$12         ; 
1BB4: 26 06      LD    H,$06         ; 
1BB6: 50         LD    D,B           ; 
1BB7: 02         LD    (BC),A        ; 
1BB8: 78         LD    A,B           ; 
1BB9: 12         LD    (DE),A        ; 
1BBA: 18 10      JR    $1BCC         ; 
1BBC: 18 00      JR    $1BBE         ; 
1BBE: 80         ADD   A,B           ; 
1BBF: 02         LD    (BC),A        ; 
1BC0: 20 00      JR    NZ,$1BC2      ; 
1BC2: D5         PUSH  DE            ; 
1BC3: 1F         RRA                 ; 
1BC4: 14         INC   D             ; 
1BC5: D0         RET   NC            ; 
1BC6: D2 26 16   JP    NC,$1626      ; 
1BC9: 50         LD    D,B           ; 
1BCA: CD 2E 18   CALL  $182E         ; 
1BCD: 1C         INC   E             ; 
1BCE: 04         INC   B             ; 
1BCF: 40         LD    B,B           ; 
1BD0: 00         NOP                 ; 
1BD1: A0         AND   B             ; 
1BD2: 10 D8      DJNZ  $1BAC         ; 
1BD4: 00         NOP                 ; 
1BD5: 20 02      JR    NZ,$1BD9      ; 
1BD7: C6 1F      ADD   A,$1F         ; 
1BD9: 04         INC   B             ; 
1BDA: 50         LD    D,B           ; 
1BDB: C2 2E 1A   JP    NZ,$1A2E      ; 
1BDE: 1C         INC   E             ; 
1BDF: 03         INC   BC            ; 
1BE0: 80         ADD   A,B           ; 
1BE1: 00         NOP                 ; 
1BE2: A0         AND   B             ; 
1BE3: 00         NOP                 ; 
1BE4: 20 02      JR    NZ,$1BE8      ; 
1BE6: BE         CP    (HL)          ; 
1BE7: 35         DEC   (HL)          ; 
1BE8: 1C         INC   E             ; 
1BE9: 1C         INC   E             ; 
1BEA: BA         CP    D             ; 
1BEB: 3B         DEC   SP            ; 
1BEC: 1E 1C      LD    E,$1C         ; 
1BEE: B6         OR    (HL)          ; 
1BEF: 1F         RRA                 ; 
1BF0: 06 D0      LD    B,$D0         ; 
1BF2: B6         OR    (HL)          ; 
1BF3: 26 08      LD    H,$08         ; 
1BF5: C0         RET   NZ            ; 
1BF6: B6         OR    (HL)          ; 
1BF7: 1D         DEC   E             ; 
1BF8: 0A         LD    A,(BC)        ; 
1BF9: 50         LD    D,B           ; 
1BFA: B3         OR    E             ; 
1BFB: 03         INC   BC            ; 
1BFC: A9         XOR   C             ; 
1BFD: 1D         DEC   E             ; 
1BFE: 0C         INC   C             ; 
1BFF: B0         OR    B             ; 
1C00: A3         AND   E             ; 
1C01: 03         INC   BC            ; 
1C02: A0         AND   B             ; 
1C03: 26 0E      LD    H,$0E         ; 
1C05: A0         AND   B             ; 
1C06: A0         AND   B             ; 
1C07: 1F         RRA                 ; 
1C08: 10 90      DJNZ  $1B9A         ; 
1C0A: 93         SUB   E             ; 
1C0B: 05         DEC   B             ; 
1C0C: 8B         ADC   A,E           ; 
1C0D: 03         INC   BC            ; 
1C0E: 7B         LD    A,E           ; 
1C0F: 05         DEC   B             ; 
1C10: 78         LD    A,B           ; 
1C11: 21 12 C8   LD    HL,$C812      ; 
1C14: 76         HALT                ; 
1C15: 2E 16      LD    L,$16         ; 
1C17: 78         LD    A,B           ; 
1C18: 08         EX    AF,AF'        ; 
1C19: 50         LD    D,B           ; 
1C1A: 14         INC   D             ; 
1C1B: 50         LD    D,B           ; 
1C1C: 04         INC   B             ; 
1C1D: 50         LD    D,B           ; 
1C1E: 14         INC   D             ; 
1C1F: 50         LD    D,B           ; 
1C20: 04         INC   B             ; 
1C21: 50         LD    D,B           ; 
1C22: 14         INC   D             ; 
1C23: 50         LD    D,B           ; 
1C24: 04         INC   B             ; 
1C25: 50         LD    D,B           ; 
1C26: 14         INC   D             ; 
1C27: 50         LD    D,B           ; 
1C28: 04         INC   B             ; 
1C29: 76         HALT                ; 
1C2A: 2E 18      LD    L,$18         ; 
1C2C: 18 08      JR    $1C36         ; 
1C2E: 50         LD    D,B           ; 
1C2F: 0C         INC   C             ; 
1C30: 50         LD    D,B           ; 
1C31: 1C         INC   E             ; 
1C32: 50         LD    D,B           ; 
1C33: 0C         INC   C             ; 
1C34: 50         LD    D,B           ; 
1C35: 1C         INC   E             ; 
1C36: 50         LD    D,B           ; 
1C37: 0C         INC   C             ; 
1C38: 50         LD    D,B           ; 
1C39: 1C         INC   E             ; 
1C3A: 50         LD    D,B           ; 
1C3B: 0C         INC   C             ; 
1C3C: 50         LD    D,B           ; 
1C3D: 1C         INC   E             ; 
1C3E: 6B         LD    L,E           ; 
1C3F: 2E 1A      LD    L,$1A         ; 
1C41: 70         LD    (HL),B        ; 
1C42: 09         ADD   HL,BC         ; 
1C43: 40         LD    B,B           ; 
1C44: 1C         INC   E             ; 
1C45: 50         LD    D,B           ; 
1C46: 0C         INC   C             ; 
1C47: 50         LD    D,B           ; 
1C48: 1C         INC   E             ; 
1C49: 50         LD    D,B           ; 
1C4A: 0C         INC   C             ; 
1C4B: 50         LD    D,B           ; 
1C4C: 1C         INC   E             ; 
1C4D: 50         LD    D,B           ; 
1C4E: 0C         INC   C             ; 
1C4F: 50         LD    D,B           ; 
1C50: 1C         INC   E             ; 
1C51: 50         LD    D,B           ; 
1C52: 0C         INC   C             ; 
1C53: 50         LD    D,B           ; 
1C54: 1C         INC   E             ; 
1C55: 6B         LD    L,E           ; 
1C56: 2E 1C      LD    L,$1C         ; 
1C58: 20 09      JR    NZ,$1C63      ; 
1C5A: 40         LD    B,B           ; 
1C5B: 04         INC   B             ; 
1C5C: 50         LD    D,B           ; 
1C5D: 14         INC   D             ; 
1C5E: 50         LD    D,B           ; 
1C5F: 04         INC   B             ; 
1C60: 50         LD    D,B           ; 
1C61: 14         INC   D             ; 
1C62: 50         LD    D,B           ; 
1C63: 04         INC   B             ; 
1C64: 50         LD    D,B           ; 
1C65: 14         INC   D             ; 
1C66: 50         LD    D,B           ; 
1C67: 04         INC   B             ; 
1C68: 50         LD    D,B           ; 
1C69: 14         INC   D             ; 
1C6A: 50         LD    D,B           ; 
1C6B: 04         INC   B             ; 
1C6C: 61         LD    H,C           ; 
1C6D: 2E 1E      LD    L,$1E         ; 
1C6F: A4         AND   H             ; 
1C70: 07         RLCA                ; 
1C71: 18 00      JR    $1C73         ; 
1C73: 10 1C      DJNZ  $1C91         ; 
1C75: 60         LD    H,B           ; 
1C76: 18 38      JR    $1CB0         ; 
1C78: 14         INC   D             ; 
1C79: 40         LD    B,B           ; 
1C7A: 16 60      LD    D,$60         ; 
1C7C: 1E 20      LD    E,$20         ; 
1C7E: 1C         INC   E             ; 
1C7F: 5F         LD    E,A           ; 
1C80: 1F         RRA                 ; 
1C81: 04         INC   B             ; 
1C82: 80         ADD   A,B           ; 
1C83: 5B         LD    E,E           ; 
1C84: 26 06      LD    H,$06         ; 
1C86: 60         LD    H,B           ; 
1C87: 5B         LD    E,E           ; 
1C88: 1D         DEC   E             ; 
1C89: 08         EX    AF,AF'        ; 
1C8A: 20 57      JR    NZ,$1CE3      ; 
1C8C: 1F         RRA                 ; 
1C8D: 0A         LD    A,(BC)        ; 
1C8E: 40         LD    B,B           ; 
1C8F: 4E         LD    C,(HL)        ; 
1C90: 2E 14      LD    L,$14         ; 
1C92: AC         XOR   H             ; 
1C93: 06 50      LD    B,$50         ; 
1C95: 00         NOP                 ; 
1C96: A8         XOR   B             ; 
1C97: 10 10      DJNZ  $1CA9         ; 
1C99: 08         EX    AF,AF'        ; 
1C9A: E0         RET   PO            ; 
1C9B: 18 A0      JR    $1C3D         ; 
1C9D: 10 C0      DJNZ  $1C5F         ; 
1C9F: 00         NOP                 ; 
1CA0: 48         LD    C,B           ; 
1CA1: 2E 12      LD    L,$12         ; 
1CA3: D4 06 08   CALL  NC,$0806      ; 
1CA6: 00         NOP                 ; 
1CA7: 90         SUB   B             ; 
1CA8: 18 10      JR    $1CBA         ; 
1CAA: 08         EX    AF,AF'        ; 
1CAB: A0         AND   B             ; 
1CAC: 18 E0      JR    $1C8E         ; 
1CAE: 10 C0      DJNZ  $1C70         ; 
1CB0: 00         NOP                 ; 
1CB1: 47         LD    B,A           ; 
1CB2: 2E 10      LD    L,$10         ; 
1CB4: 44         LD    B,H           ; 
1CB5: 06 18      LD    B,$18         ; 
1CB7: 00         NOP                 ; 
1CB8: 70         LD    (HL),B        ; 
1CB9: 08         EX    AF,AF'        ; 
1CBA: 70         LD    (HL),B        ; 
1CBB: 18 C0      JR    $1C7D         ; 
1CBD: 10 F0      DJNZ  $1CAF         ; 
1CBF: 10 20      DJNZ  $1CE1         ; 
1CC1: 18 3B      JR    $1CFE         ; 
1CC3: 26 16      LD    H,$16         ; 
1CC5: B0         OR    B             ; 
1CC6: 37         SCF                 ; 
1CC7: 1F         RRA                 ; 
1CC8: 18 90      JR    $1C5A         ; 
1CCA: 1F         RRA                 ; 
1CCB: 1B         DEC   DE            ; 
1CCC: 1A         LD    A,(DE)        ; 
1CCD: 90         SUB   B             ; 
1CCE: 1F         RRA                 ; 
1CCF: 1B         DEC   DE            ; 
1CD0: 1C         INC   E             ; 
1CD1: 70         LD    (HL),B        ; 
1CD2: 1F         RRA                 ; 
1CD3: 1B         DEC   DE            ; 
1CD4: 1E 50      LD    E,$50         ; 
1CD6: 1B         DEC   DE            ; 
1CD7: 1B         DEC   DE            ; 
1CD8: 04         INC   B             ; 
1CD9: 70         LD    (HL),B        ; 
1CDA: 1B         DEC   DE            ; 
1CDB: 35         DEC   (HL)          ; 
1CDC: 06 24      LD    B,$24         ; 
1CDE: 1B         DEC   DE            ; 
1CDF: 02         LD    (BC),A        ; 
1CE0: 3F         CCF                 ; 
1CE1: 17         RLA                 ; 
1CE2: 3B         DEC   SP            ; 
1CE3: 08         EX    AF,AF'        ; 
1CE4: 24         INC   H             ; 
1CE5: 15         DEC   D             ; 
1CE6: 21 0A C0   LD    HL,$C00A      ; 
1CE9: 13         INC   DE            ; 
1CEA: 3B         DEC   SP            ; 
1CEB: 0E 24      LD    C,$24         ; 
1CED: 0F         RRCA                ; 
1CEE: 05         DEC   B             ; 
1CEF: 0D         DEC   C             ; 
1CF0: 01 57 FF   LD    BC,$FF57      ; 
1CF3: 03         INC   BC            ; 
1CF4: F3         DI                  ; 
1CF5: 1D         DEC   E             ; 
1CF6: 14         INC   D             ; 
1CF7: 20 EF      JR    NZ,$1CE8      ; 
1CF9: 05         DEC   B             ; 
1CFA: E7         RST   $20           ; 
1CFB: 2E 16      LD    L,$16         ; 
1CFD: 9C         SBC   H             ; 
1CFE: 03         INC   BC            ; 
1CFF: 40         LD    B,B           ; 
1D00: 00         NOP                 ; 
1D01: 38 1C      JR    C,$1D1F       ; 
1D03: 40         LD    B,B           ; 
1D04: 18 E5      JR    $1CEB         ; 
1D06: 1B         DEC   DE            ; 
1D07: 18 60      JR    $1D69         ; 
1D09: E1         POP   HL            ; 
1D0A: 2E 1A      LD    L,$1A         ; 
1D0C: 24         INC   H             ; 
1D0D: 03         INC   BC            ; 
1D0E: 80         ADD   A,B           ; 
1D0F: 00         NOP                 ; 
1D10: 80         ADD   A,B           ; 
1D11: 10 80      DJNZ  $1C93         ; 
1D13: 00         NOP                 ; 
1D14: DD 2E 1C   LD    IXL,$1C       ; 
1D17: 9C         SBC   H             ; 
1D18: 03         INC   BC            ; 
1D19: 80         ADD   A,B           ; 
1D1A: 00         NOP                 ; 
1D1B: 80         ADD   A,B           ; 
1D1C: 10 80      DJNZ  $1C9E         ; 
1D1E: 00         NOP                 ; 
1D1F: D7         RST   $10           ; 
1D20: 1B         DEC   DE            ; 
1D21: 1E 78      LD    E,$78         ; 
1D23: D7         RST   $10           ; 
1D24: 1B         DEC   DE            ; 
1D25: 04         INC   B             ; 
1D26: 48         LD    C,B           ; 
1D27: D7         RST   $10           ; 
1D28: 2E 06      LD    L,$06         ; 
1D2A: 24         INC   H             ; 
1D2B: 03         INC   BC            ; 
1D2C: 80         ADD   A,B           ; 
1D2D: 00         NOP                 ; 
1D2E: 80         ADD   A,B           ; 
1D2F: 10 80      DJNZ  $1CB1         ; 
1D31: 00         NOP                 ; 
1D32: D3 2E      OUT   ($2E),A       ; 
1D34: 08         EX    AF,AF'        ; 
1D35: 9C         SBC   H             ; 
1D36: 03         INC   BC            ; 
1D37: 80         ADD   A,B           ; 
1D38: 00         NOP                 ; 
1D39: 80         ADD   A,B           ; 
1D3A: 10 80      DJNZ  $1CBC         ; 
1D3C: 00         NOP                 ; 
1D3D: D3 1B      OUT   ($1B),A       ; 
1D3F: 0A         LD    A,(BC)        ; 
1D40: 60         LD    H,B           ; 
1D41: CD 2E 0C   CALL  $0C2E         ; 
1D44: 24         INC   H             ; 
1D45: 03         INC   BC            ; 
1D46: 80         ADD   A,B           ; 
1D47: 00         NOP                 ; 
1D48: 80         ADD   A,B           ; 
1D49: 10 80      DJNZ  $1CCB         ; 
1D4B: 00         NOP                 ; 
1D4C: CB 26      SLA   (HL)          ; 
1D4E: 0E C8      LD    C,$C8         ; 
1D50: CB 26      SLA   (HL)          ; 
1D52: 10 60      DJNZ  $1DB4         ; 
1D54: C5         PUSH  BC            ; 
1D55: 2E 12      LD    L,$12         ; 
1D57: 9C         SBC   H             ; 
1D58: 08         EX    AF,AF'        ; 
1D59: 60         LD    H,B           ; 
1D5A: 00         NOP                 ; 
1D5B: 78         LD    A,B           ; 
1D5C: 10 20      DJNZ  $1D7E         ; 
1D5E: 12         LD    (DE),A        ; 
1D5F: F8         RET   M             ; 
1D60: 10 58      DJNZ  $1DBA         ; 
1D62: 10 50      DJNZ  $1DB4         ; 
1D64: 18 50      JR    $1DB6         ; 
1D66: 08         EX    AF,AF'        ; 
1D67: 20 00      JR    NZ,$1D69      ; 
1D69: C5         PUSH  BC            ; 
1D6A: 2E 14      LD    L,$14         ; 
1D6C: 24         INC   H             ; 
1D6D: 08         EX    AF,AF'        ; 
1D6E: 60         LD    H,B           ; 
1D6F: 00         NOP                 ; 
1D70: 90         SUB   B             ; 
1D71: 10 20      DJNZ  $1D93         ; 
1D73: 0C         INC   C             ; 
1D74: E0         RET   PO            ; 
1D75: 10 58      DJNZ  $1DCF         ; 
1D77: 10 50      DJNZ  $1DC9         ; 
1D79: 08         EX    AF,AF'        ; 
1D7A: 50         LD    D,B           ; 
1D7B: 18 20      JR    $1D9D         ; 
1D7D: 00         NOP                 ; 
1D7E: C5         PUSH  BC            ; 
1D7F: 57         LD    D,A           ; 
1D80: C3 03 BB   JP    $BB03         ; 
1D83: 3B         DEC   SP            ; 
1D84: 16 70      LD    D,$70         ; 
1D86: BB         CP    E             ; 
1D87: 3B         DEC   SP            ; 
1D88: 18 50      JR    $1DDA         ; 
1D8A: B7         OR    A             ; 
1D8B: 3C         INC   A             ; 
1D8C: 1A         LD    A,(DE)        ; 
1D8D: 70         LD    (HL),B        ; 
1D8E: B7         OR    A             ; 
1D8F: 3B         DEC   SP            ; 
1D90: 1C         INC   E             ; 
1D91: 50         LD    D,B           ; 
1D92: B3         OR    E             ; 
1D93: 03         INC   BC            ; 
1D94: A3         AND   E             ; 
1D95: 03         INC   BC            ; 
1D96: 95         SUB   L             ; 
1D97: 1F         RRA                 ; 
1D98: 1E 80      LD    E,$80         ; 
1D9A: 93         SUB   E             ; 
1D9B: 05         DEC   B             ; 
1D9C: 93         SUB   E             ; 
1D9D: 1F         RRA                 ; 
1D9E: 04         INC   B             ; 
1D9F: 70         LD    (HL),B        ; 
1DA0: 91         SUB   C             ; 
1DA1: 1F         RRA                 ; 
1DA2: 06 60      LD    B,$60         ; 
1DA4: 8F         ADC   A,A           ; 
1DA5: 1F         RRA                 ; 
1DA6: 08         EX    AF,AF'        ; 
1DA7: 50         LD    D,B           ; 
1DA8: 85         ADD   A,L           ; 
1DA9: 03         INC   BC            ; 
1DAA: 7D         LD    A,L           ; 
1DAB: 26 0A      LD    H,$0A         ; 
1DAD: E0         RET   PO            ; 
1DAE: 7D         LD    A,L           ; 
1DAF: 26 0C      LD    H,$0C         ; 
1DB1: 88         ADC   A,B           ; 
1DB2: 7D         LD    A,L           ; 
1DB3: 26 0E      LD    H,$0E         ; 
1DB5: 50         LD    D,B           ; 
1DB6: 79         LD    A,C           ; 
1DB7: 26 10      LD    H,$10         ; 
1DB9: C0         RET   NZ            ; 
1DBA: 79         LD    A,C           ; 
1DBB: 26 12      LD    H,$12         ; 
1DBD: 6C         LD    L,H           ; 
1DBE: 79         LD    A,C           ; 
1DBF: 26 14      LD    H,$14         ; 
1DC1: 18 6F      JR    $1E32         ; 
1DC3: 21 16 80   LD    HL,$8016      ; 
1DC6: 6F         LD    L,A           ; 
1DC7: 3B         DEC   SP            ; 
1DC8: 1A         LD    A,(DE)        ; 
1DC9: 34         INC   (HL)          ; 
1DCA: 6B         LD    L,E           ; 
1DCB: 3B         DEC   SP            ; 
1DCC: 1C         INC   E             ; 
1DCD: 34         INC   (HL)          ; 
1DCE: 6B         LD    L,E           ; 
1DCF: 05         DEC   B             ; 
1DD0: 67         LD    H,A           ; 
1DD1: 1D         DEC   E             ; 
1DD2: 1E B0      LD    E,$B0         ; 
1DD4: 65         LD    H,L           ; 
1DD5: 1D         DEC   E             ; 
1DD6: 04         INC   B             ; 
1DD7: A0         AND   B             ; 
1DD8: 63         LD    H,E           ; 
1DD9: 03         INC   BC            ; 
1DDA: 53         LD    D,E           ; 
1DDB: 05         DEC   B             ; 
1DDC: 4F         LD    C,A           ; 
1DDD: 26 06      LD    H,$06         ; 
1DDF: 80         ADD   A,B           ; 
1DE0: 4C         LD    C,H           ; 
1DE1: 1F         RRA                 ; 
1DE2: 08         EX    AF,AF'        ; 
1DE3: 68         LD    L,B           ; 
1DE4: 4B         LD    C,E           ; 
1DE5: 2E 0A      LD    L,$0A         ; 
1DE7: 34         INC   (HL)          ; 
1DE8: 02         LD    (BC),A        ; 
1DE9: A0         AND   B             ; 
1DEA: 04         INC   B             ; 
1DEB: 20 06      JR    NZ,$1DF3      ; 
1DED: 44         LD    B,H           ; 
1DEE: 1B         DEC   DE            ; 
1DEF: 0C         INC   C             ; 
1DF0: 70         LD    (HL),B        ; 
1DF1: 3E 1B      LD    A,$1B         ; 
1DF3: 0E C0      LD    C,$C0         ; 
1DF5: 3E 1D      LD    A,$1D         ; 
1DF7: 10 70      DJNZ  $1E69         ; 
1DF9: 3E 1B      LD    A,$1B         ; 
1DFB: 12         LD    (DE),A        ; 
1DFC: 18 38      JR    $1E36         ; 
1DFE: 1B         DEC   DE            ; 
1DFF: 14         INC   D             ; 
1E00: 70         LD    (HL),B        ; 
1E01: 37         SCF                 ; 
1E02: 2E 16      LD    L,$16         ; 
1E04: A4         AND   H             ; 
1E05: 03         INC   BC            ; 
1E06: 70         LD    (HL),B        ; 
1E07: 00         NOP                 ; 
1E08: 70         LD    (HL),B        ; 
1E09: 10 70      DJNZ  $1E7B         ; 
1E0B: 00         NOP                 ; 
1E0C: 37         SCF                 ; 
1E0D: 2E 04      LD    L,$04         ; 
1E0F: 34         INC   (HL)          ; 
1E10: 03         INC   BC            ; 
1E11: 70         LD    (HL),B        ; 
1E12: 00         NOP                 ; 
1E13: 70         LD    (HL),B        ; 
1E14: 10 70      DJNZ  $1E86         ; 
1E16: 00         NOP                 ; 
1E17: 33         INC   SP            ; 
1E18: 02         LD    (BC),A        ; 
1E19: E6 23      AND   $23           ; 
1E1B: 05         DEC   B             ; 
1E1C: 22 2E 06   LD    ($062E),HL    ; 
1E1F: 48         LD    C,B           ; 
1E20: 02         LD    (BC),A        ; 
1E21: B8         CP    B             ; 
1E22: 04         INC   B             ; 
1E23: 20 08      JR    NZ,$1E2D      ; 
1E25: 22 2E 08   LD    ($082E),HL    ; 
1E28: 34         INC   (HL)          ; 
1E29: 01 20 00   LD    BC,$0020      ; 
1E2C: 1B         DEC   DE            ; 
1E2D: 2E 0A      LD    L,$0A         ; 
1E2F: 48         LD    C,B           ; 
1E30: 08         EX    AF,AF'        ; 
1E31: 30 00      JR    NC,$1E33      ; 
1E33: A0         AND   B             ; 
1E34: 04         INC   B             ; 
1E35: A0         AND   B             ; 
1E36: 10 80      DJNZ  $1DB8         ; 
1E38: 0C         INC   C             ; 
1E39: 40         LD    B,B           ; 
1E3A: 10 80      DJNZ  $1DBC         ; 
1E3C: 18 A0      JR    $1DDE         ; 
1E3E: 18 20      JR    $1E60         ; 
1E40: 00         NOP                 ; 
1E41: 17         RLA                 ; 
1E42: 21 18 90   LD    HL,$9018      ; 
1E45: 17         RLA                 ; 
1E46: 21 1C 70   LD    HL,$701C      ; 
1E49: 17         RLA                 ; 
1E4A: 02         LD    (BC),A        ; 
1E4B: 7E         LD    A,(HL)        ; 
1E4C: 0F         RRCA                ; 
1E4D: 05         DEC   B             ; 
1E4E: 0F         RRCA                ; 
1E4F: 30 1F      JR    NC,$1E70      ; 
1E51: 0D         DEC   C             ; 
1E52: FF         RST   $38           ; 
1E53: FF         RST   $38           ; 
1E54: FF         RST   $38           ; 
1E55: FF         RST   $38           ; 
1E56: FF         RST   $38           ; 
1E57: FF         RST   $38           ; 
1E58: FF         RST   $38           ; 
1E59: FF         RST   $38           ; 
1E5A: FF         RST   $38           ; 
1E5B: FF         RST   $38           ; 
1E5C: FF         RST   $38           ; 
1E5D: FF         RST   $38           ; 
1E5E: FF         RST   $38           ; 
1E5F: FF         RST   $38           ; 
1E60: FF         RST   $38           ; 
1E61: FF         RST   $38           ; 
1E62: FF         RST   $38           ; 
1E63: FF         RST   $38           ; 
1E64: FF         RST   $38           ; 
1E65: FF         RST   $38           ; 
1E66: FF         RST   $38           ; 
1E67: FF         RST   $38           ; 
1E68: FF         RST   $38           ; 
1E69: FF         RST   $38           ; 
1E6A: FF         RST   $38           ; 
1E6B: FF         RST   $38           ; 
1E6C: FF         RST   $38           ; 
1E6D: FF         RST   $38           ; 
1E6E: FF         RST   $38           ; 
1E6F: FF         RST   $38           ; 
1E70: FF         RST   $38           ; 
1E71: FF         RST   $38           ; 
1E72: FF         RST   $38           ; 
1E73: FF         RST   $38           ; 
1E74: FF         RST   $38           ; 
1E75: FF         RST   $38           ; 
1E76: FF         RST   $38           ; 
1E77: FF         RST   $38           ; 
1E78: FF         RST   $38           ; 
1E79: FF         RST   $38           ; 
1E7A: FF         RST   $38           ; 
1E7B: FF         RST   $38           ; 
1E7C: FF         RST   $38           ; 
1E7D: FF         RST   $38           ; 
1E7E: FF         RST   $38           ; 
1E7F: FF         RST   $38           ; 
1E80: FF         RST   $38           ; 
1E81: FF         RST   $38           ; 
1E82: FF         RST   $38           ; 
1E83: FF         RST   $38           ; 
1E84: FF         RST   $38           ; 
1E85: FF         RST   $38           ; 
1E86: FF         RST   $38           ; 
1E87: FF         RST   $38           ; 
1E88: FF         RST   $38           ; 
1E89: FF         RST   $38           ; 
1E8A: FF         RST   $38           ; 
1E8B: FF         RST   $38           ; 
1E8C: FF         RST   $38           ; 
1E8D: FF         RST   $38           ; 
1E8E: FF         RST   $38           ; 
1E8F: FF         RST   $38           ; 
1E90: FF         RST   $38           ; 
1E91: FF         RST   $38           ; 
1E92: FF         RST   $38           ; 
1E93: FF         RST   $38           ; 
1E94: FF         RST   $38           ; 
1E95: FF         RST   $38           ; 
1E96: FF         RST   $38           ; 
1E97: FF         RST   $38           ; 
1E98: FF         RST   $38           ; 
1E99: FF         RST   $38           ; 
1E9A: FF         RST   $38           ; 
1E9B: FF         RST   $38           ; 
1E9C: FF         RST   $38           ; 
1E9D: FF         RST   $38           ; 
1E9E: FF         RST   $38           ; 
1E9F: FF         RST   $38           ; 
1EA0: FF         RST   $38           ; 
1EA1: FF         RST   $38           ; 
1EA2: FF         RST   $38           ; 
1EA3: FF         RST   $38           ; 
1EA4: FF         RST   $38           ; 
1EA5: FF         RST   $38           ; 
1EA6: FF         RST   $38           ; 
1EA7: FF         RST   $38           ; 
1EA8: FF         RST   $38           ; 
1EA9: FF         RST   $38           ; 
1EAA: FF         RST   $38           ; 
1EAB: FF         RST   $38           ; 
1EAC: FF         RST   $38           ; 
1EAD: FF         RST   $38           ; 
1EAE: FF         RST   $38           ; 
1EAF: FF         RST   $38           ; 
1EB0: FF         RST   $38           ; 
1EB1: FF         RST   $38           ; 
1EB2: FF         RST   $38           ; 
1EB3: FF         RST   $38           ; 
1EB4: FF         RST   $38           ; 
1EB5: FF         RST   $38           ; 
1EB6: FF         RST   $38           ; 
1EB7: FF         RST   $38           ; 
1EB8: FF         RST   $38           ; 
1EB9: FF         RST   $38           ; 
1EBA: FF         RST   $38           ; 
1EBB: FF         RST   $38           ; 
1EBC: FF         RST   $38           ; 
1EBD: FF         RST   $38           ; 
1EBE: FF         RST   $38           ; 
1EBF: FF         RST   $38           ; 
1EC0: FF         RST   $38           ; 
1EC1: FF         RST   $38           ; 
1EC2: FF         RST   $38           ; 
1EC3: FF         RST   $38           ; 
1EC4: FF         RST   $38           ; 
1EC5: FF         RST   $38           ; 
1EC6: FF         RST   $38           ; 
1EC7: FF         RST   $38           ; 
1EC8: FF         RST   $38           ; 
1EC9: FF         RST   $38           ; 
1ECA: FF         RST   $38           ; 
1ECB: FF         RST   $38           ; 
1ECC: FF         RST   $38           ; 
1ECD: FF         RST   $38           ; 
1ECE: FF         RST   $38           ; 
1ECF: FF         RST   $38           ; 
1ED0: FF         RST   $38           ; 
1ED1: FF         RST   $38           ; 
1ED2: FF         RST   $38           ; 
1ED3: FF         RST   $38           ; 
1ED4: FF         RST   $38           ; 
1ED5: FF         RST   $38           ; 
1ED6: FF         RST   $38           ; 
1ED7: FF         RST   $38           ; 
1ED8: FF         RST   $38           ; 
1ED9: FF         RST   $38           ; 
1EDA: FF         RST   $38           ; 
1EDB: FF         RST   $38           ; 
1EDC: FF         RST   $38           ; 
1EDD: FF         RST   $38           ; 
1EDE: FF         RST   $38           ; 
1EDF: FF         RST   $38           ; 
1EE0: FF         RST   $38           ; 
1EE1: FF         RST   $38           ; 
1EE2: FF         RST   $38           ; 
1EE3: FF         RST   $38           ; 
1EE4: FF         RST   $38           ; 
1EE5: FF         RST   $38           ; 
1EE6: FF         RST   $38           ; 
1EE7: FF         RST   $38           ; 
1EE8: FF         RST   $38           ; 
1EE9: FF         RST   $38           ; 
1EEA: FF         RST   $38           ; 
1EEB: FF         RST   $38           ; 
1EEC: FF         RST   $38           ; 
1EED: FF         RST   $38           ; 
1EEE: FF         RST   $38           ; 
1EEF: FF         RST   $38           ; 
1EF0: FF         RST   $38           ; 
1EF1: FF         RST   $38           ; 
1EF2: FF         RST   $38           ; 
1EF3: FF         RST   $38           ; 
1EF4: FF         RST   $38           ; 
1EF5: FF         RST   $38           ; 
1EF6: FF         RST   $38           ; 
1EF7: FF         RST   $38           ; 
1EF8: FF         RST   $38           ; 
1EF9: FF         RST   $38           ; 
1EFA: FF         RST   $38           ; 
1EFB: FF         RST   $38           ; 
1EFC: FF         RST   $38           ; 
1EFD: FF         RST   $38           ; 
1EFE: FF         RST   $38           ; 
1EFF: FF         RST   $38           ; 
1F00: FF         RST   $38           ; 
1F01: FF         RST   $38           ; 
1F02: FF         RST   $38           ; 
1F03: FF         RST   $38           ; 
1F04: FF         RST   $38           ; 
1F05: FF         RST   $38           ; 
1F06: FF         RST   $38           ; 
1F07: FF         RST   $38           ; 
1F08: FF         RST   $38           ; 
1F09: FF         RST   $38           ; 
1F0A: FF         RST   $38           ; 
1F0B: FF         RST   $38           ; 
1F0C: FF         RST   $38           ; 
1F0D: FF         RST   $38           ; 
1F0E: FF         RST   $38           ; 
1F0F: FF         RST   $38           ; 
1F10: FF         RST   $38           ; 
1F11: FF         RST   $38           ; 
1F12: FF         RST   $38           ; 
1F13: FF         RST   $38           ; 
1F14: FF         RST   $38           ; 
1F15: FF         RST   $38           ; 
1F16: FF         RST   $38           ; 
1F17: FF         RST   $38           ; 
1F18: FF         RST   $38           ; 
1F19: FF         RST   $38           ; 
1F1A: FF         RST   $38           ; 
1F1B: FF         RST   $38           ; 
1F1C: FF         RST   $38           ; 
1F1D: FF         RST   $38           ; 
1F1E: FF         RST   $38           ; 
1F1F: FF         RST   $38           ; 
1F20: FF         RST   $38           ; 
1F21: FF         RST   $38           ; 
1F22: FF         RST   $38           ; 
1F23: FF         RST   $38           ; 
1F24: FF         RST   $38           ; 
1F25: FF         RST   $38           ; 
1F26: FF         RST   $38           ; 
1F27: FF         RST   $38           ; 
1F28: FF         RST   $38           ; 
1F29: FF         RST   $38           ; 
1F2A: FF         RST   $38           ; 
1F2B: FF         RST   $38           ; 
1F2C: FF         RST   $38           ; 
1F2D: FF         RST   $38           ; 
1F2E: FF         RST   $38           ; 
1F2F: FF         RST   $38           ; 
1F30: FF         RST   $38           ; 
1F31: FF         RST   $38           ; 
1F32: FF         RST   $38           ; 
1F33: FF         RST   $38           ; 
1F34: FF         RST   $38           ; 
1F35: FF         RST   $38           ; 
1F36: FF         RST   $38           ; 
1F37: FF         RST   $38           ; 
1F38: FF         RST   $38           ; 
1F39: FF         RST   $38           ; 
1F3A: FF         RST   $38           ; 
1F3B: FF         RST   $38           ; 
1F3C: FF         RST   $38           ; 
1F3D: FF         RST   $38           ; 
1F3E: FF         RST   $38           ; 
1F3F: FF         RST   $38           ; 
1F40: FF         RST   $38           ; 
1F41: FF         RST   $38           ; 
1F42: FF         RST   $38           ; 
1F43: FF         RST   $38           ; 
1F44: FF         RST   $38           ; 
1F45: FF         RST   $38           ; 
1F46: FF         RST   $38           ; 
1F47: FF         RST   $38           ; 
1F48: FF         RST   $38           ; 
1F49: FF         RST   $38           ; 
1F4A: FF         RST   $38           ; 
1F4B: FF         RST   $38           ; 
1F4C: FF         RST   $38           ; 
1F4D: FF         RST   $38           ; 
1F4E: FF         RST   $38           ; 
1F4F: FF         RST   $38           ; 
1F50: FF         RST   $38           ; 
1F51: FF         RST   $38           ; 
1F52: FF         RST   $38           ; 
1F53: FF         RST   $38           ; 
1F54: FF         RST   $38           ; 
1F55: FF         RST   $38           ; 
1F56: FF         RST   $38           ; 
1F57: FF         RST   $38           ; 
1F58: FF         RST   $38           ; 
1F59: FF         RST   $38           ; 
1F5A: FF         RST   $38           ; 
1F5B: FF         RST   $38           ; 
1F5C: FF         RST   $38           ; 
1F5D: FF         RST   $38           ; 
1F5E: FF         RST   $38           ; 
1F5F: FF         RST   $38           ; 
1F60: FF         RST   $38           ; 
1F61: FF         RST   $38           ; 
1F62: FF         RST   $38           ; 
1F63: FF         RST   $38           ; 
1F64: FF         RST   $38           ; 
1F65: FF         RST   $38           ; 
1F66: FF         RST   $38           ; 
1F67: FF         RST   $38           ; 
1F68: FF         RST   $38           ; 
1F69: FF         RST   $38           ; 
1F6A: FF         RST   $38           ; 
1F6B: FF         RST   $38           ; 
1F6C: FF         RST   $38           ; 
1F6D: FF         RST   $38           ; 
1F6E: FF         RST   $38           ; 
1F6F: FF         RST   $38           ; 
1F70: FF         RST   $38           ; 
1F71: FF         RST   $38           ; 
1F72: FF         RST   $38           ; 
1F73: FF         RST   $38           ; 
1F74: FF         RST   $38           ; 
1F75: FF         RST   $38           ; 
1F76: FF         RST   $38           ; 
1F77: FF         RST   $38           ; 
1F78: FF         RST   $38           ; 
1F79: FF         RST   $38           ; 
1F7A: FF         RST   $38           ; 
1F7B: FF         RST   $38           ; 
1F7C: FF         RST   $38           ; 
1F7D: FF         RST   $38           ; 
1F7E: FF         RST   $38           ; 
1F7F: FF         RST   $38           ; 
1F80: FF         RST   $38           ; 
1F81: FF         RST   $38           ; 
1F82: FF         RST   $38           ; 
1F83: FF         RST   $38           ; 
1F84: FF         RST   $38           ; 
1F85: FF         RST   $38           ; 
1F86: FF         RST   $38           ; 
1F87: FF         RST   $38           ; 
1F88: FF         RST   $38           ; 
1F89: FF         RST   $38           ; 
1F8A: FF         RST   $38           ; 
1F8B: FF         RST   $38           ; 
1F8C: FF         RST   $38           ; 
1F8D: FF         RST   $38           ; 
1F8E: FF         RST   $38           ; 
1F8F: FF         RST   $38           ; 
1F90: FF         RST   $38           ; 
1F91: FF         RST   $38           ; 
1F92: FF         RST   $38           ; 
1F93: FF         RST   $38           ; 
1F94: FF         RST   $38           ; 
1F95: FF         RST   $38           ; 
1F96: FF         RST   $38           ; 
1F97: FF         RST   $38           ; 
1F98: FF         RST   $38           ; 
1F99: FF         RST   $38           ; 
1F9A: FF         RST   $38           ; 
1F9B: FF         RST   $38           ; 
1F9C: FF         RST   $38           ; 
1F9D: FF         RST   $38           ; 
1F9E: FF         RST   $38           ; 
1F9F: FF         RST   $38           ; 
1FA0: FF         RST   $38           ; 
1FA1: FF         RST   $38           ; 
1FA2: FF         RST   $38           ; 
1FA3: FF         RST   $38           ; 
1FA4: FF         RST   $38           ; 
1FA5: FF         RST   $38           ; 
1FA6: FF         RST   $38           ; 
1FA7: FF         RST   $38           ; 
1FA8: FF         RST   $38           ; 
1FA9: FF         RST   $38           ; 
1FAA: FF         RST   $38           ; 
1FAB: FF         RST   $38           ; 
1FAC: FF         RST   $38           ; 
1FAD: FF         RST   $38           ; 
1FAE: FF         RST   $38           ; 
1FAF: FF         RST   $38           ; 
1FB0: FF         RST   $38           ; 
1FB1: FF         RST   $38           ; 
1FB2: FF         RST   $38           ; 
1FB3: FF         RST   $38           ; 
1FB4: FF         RST   $38           ; 
1FB5: FF         RST   $38           ; 
1FB6: FF         RST   $38           ; 
1FB7: FF         RST   $38           ; 
1FB8: FF         RST   $38           ; 
1FB9: FF         RST   $38           ; 
1FBA: FF         RST   $38           ; 
1FBB: FF         RST   $38           ; 
1FBC: FF         RST   $38           ; 
1FBD: FF         RST   $38           ; 
1FBE: FF         RST   $38           ; 
1FBF: FF         RST   $38           ; 
1FC0: FF         RST   $38           ; 
1FC1: FF         RST   $38           ; 
1FC2: FF         RST   $38           ; 
1FC3: FF         RST   $38           ; 
1FC4: FF         RST   $38           ; 
1FC5: FF         RST   $38           ; 
1FC6: FF         RST   $38           ; 
1FC7: FF         RST   $38           ; 
1FC8: FF         RST   $38           ; 
1FC9: FF         RST   $38           ; 
1FCA: FF         RST   $38           ; 
1FCB: FF         RST   $38           ; 
1FCC: FF         RST   $38           ; 
1FCD: FF         RST   $38           ; 
1FCE: FF         RST   $38           ; 
1FCF: FF         RST   $38           ; 
1FD0: FF         RST   $38           ; 
1FD1: FF         RST   $38           ; 
1FD2: FF         RST   $38           ; 
1FD3: FF         RST   $38           ; 
1FD4: FF         RST   $38           ; 
1FD5: FF         RST   $38           ; 
1FD6: FF         RST   $38           ; 
1FD7: FF         RST   $38           ; 
1FD8: FF         RST   $38           ; 
1FD9: FF         RST   $38           ; 
1FDA: FF         RST   $38           ; 
1FDB: FF         RST   $38           ; 
1FDC: FF         RST   $38           ; 
1FDD: FF         RST   $38           ; 
1FDE: FF         RST   $38           ; 
1FDF: FF         RST   $38           ; 
1FE0: FF         RST   $38           ; 
1FE1: FF         RST   $38           ; 
1FE2: FF         RST   $38           ; 
1FE3: FF         RST   $38           ; 
1FE4: FF         RST   $38           ; 
1FE5: FF         RST   $38           ; 
1FE6: FF         RST   $38           ; 
1FE7: FF         RST   $38           ; 
1FE8: FF         RST   $38           ; 
1FE9: FF         RST   $38           ; 
1FEA: FF         RST   $38           ; 
1FEB: FF         RST   $38           ; 
1FEC: FF         RST   $38           ; 
1FED: FF         RST   $38           ; 
1FEE: FF         RST   $38           ; 
1FEF: FF         RST   $38           ; 
1FF0: FF         RST   $38           ; 
1FF1: FF         RST   $38           ; 
1FF2: FF         RST   $38           ; 
1FF3: FF         RST   $38           ; 
1FF4: FF         RST   $38           ; 
1FF5: FF         RST   $38           ; 
1FF6: FF         RST   $38           ; 
1FF7: FF         RST   $38           ; 
1FF8: FF         RST   $38           ; 
1FF9: FF         RST   $38           ; 
1FFA: FF         RST   $38           ; 
1FFB: FF         RST   $38           ; 
1FFC: FF         RST   $38           ; 
1FFD: FF         RST   $38           ; 
1FFE: FF         RST   $38           ; 
1FFF: 68         LD    L,B           ; 
