; Xevious CPU #3

;##$ CPU Z80 as Z80
;##$OriginalBinary xvi_7.2c

0000: 31 00 A3   LD    SP,$A300      ; 
0003: C3 7F 00   JP    $007F         ; 
0006: 00         NOP                 ; 
0007: 00         NOP                 ; 
0008: 87         ADD   A,A           ; 
0009: 30 05      JR    NC,$10        ; 
000B: 24         INC   H             ; 
000C: 18 02      JR    $10           ; 
000E: 00         NOP                 ; 
000F: 00         NOP                 ; 
0010: 85         ADD   A,L           ; 
0011: 6F         LD    L,A           ; 
0012: D0         RET   NC            ; 
0013: 24         INC   H             ; 
0014: C9         RET                 ; 
0015: 00         NOP                 ; 
0016: 00         NOP                 ; 
0017: 00         NOP                 ; 
0018: 77         LD    (HL),A        ; 
0019: 23         INC   HL            ; 
001A: 10 FC      DJNZ  $18           ; 
001C: C9         RET                 ; 
001D: 00         NOP                 ; 
001E: 00         NOP                 ; 
001F: 00         NOP                 ; 
0020: 3A 98 A0   LD    A,($A098)     ; 
0023: A7         AND   A             ; 
0024: 28 0B      JR    Z,$31         ; 
0026: 3D         DEC   A             ; 
0027: 28 04      JR    Z,$2D         ; 
0029: 21 90 A0   LD    HL,$A090      ; 
002C: C9         RET                 ; 
002D: 21 8B A0   LD    HL,$A08B      ; 
0030: C9         RET                 ; 
0031: 21 86 A0   LD    HL,$A086      ; 
0034: C9         RET                 ; 
0035: 00         NOP                 ; 
0036: 00         NOP                 ; 
0037: 00         NOP                 ; 
0038: 00         NOP                 ; 
0039: 00         NOP                 ; 
003A: 00         NOP                 ; 
003B: 00         NOP                 ; 
003C: 00         NOP                 ; 
003D: 00         NOP                 ; 
003E: 00         NOP                 ; 
003F: 00         NOP                 ; 
0040: 00         NOP                 ; 
0041: 00         NOP                 ; 
0042: 00         NOP                 ; 
0043: 00         NOP                 ; 
0044: 00         NOP                 ; 
0045: 00         NOP                 ; 
0046: 00         NOP                 ; 
0047: 00         NOP                 ; 
0048: 00         NOP                 ; 
0049: 00         NOP                 ; 
004A: 00         NOP                 ; 
004B: 00         NOP                 ; 
004C: 00         NOP                 ; 
004D: 00         NOP                 ; 
004E: 00         NOP                 ; 
004F: 00         NOP                 ; 
0050: 00         NOP                 ; 
0051: 00         NOP                 ; 
0052: 00         NOP                 ; 
0053: 00         NOP                 ; 
0054: 00         NOP                 ; 
0055: 00         NOP                 ; 
0056: 00         NOP                 ; 
0057: 00         NOP                 ; 
0058: 00         NOP                 ; 
0059: 00         NOP                 ; 
005A: 00         NOP                 ; 
005B: 00         NOP                 ; 
005C: 00         NOP                 ; 
005D: 00         NOP                 ; 
005E: 00         NOP                 ; 
005F: 00         NOP                 ; 
0060: 00         NOP                 ; 
0061: 00         NOP                 ; 
0062: 00         NOP                 ; 
0063: 00         NOP                 ; 
0064: 00         NOP                 ; 
0065: 00         NOP                 ; 
0066: F5         PUSH  AF            ; 
0067: 3A 80 A0   LD    A,($A080)     ; 
006A: A7         AND   A             ; 
006B: 28 03      JR    Z,$70         ; 
006D: F1         POP   AF            ; 
006E: ED 45      RETN                ; 
0070: 3E 01      LD    A,$01         ; 
0072: 32 80 A0   LD    ($A080),A     ; 
0075: 32 22 68   LD    ($6822),A     ; 
0078: AF         XOR   A             ; 
0079: 32 22 68   LD    ($6822),A     ; 
007C: C3 9A 00   JP    $009A         ; 
007F: 3E 01      LD    A,$01         ; 
0081: 32 22 68   LD    ($6822),A     ; 
0084: CD 53 0A   CALL  $0A53         ; 
0087: 21 00 A0   LD    HL,$A000      ; 
008A: 36 00      LD    (HL),$00      ; 
008C: 11 01 A0   LD    DE,$A001      ; 
008F: 01 FF 00   LD    BC,$00FF      ; 
0092: ED B0      LDIR                ; 
0094: AF         XOR   A             ; 
0095: 32 22 68   LD    ($6822),A     ; 
0098: 18 FE      JR    $98           ; 
009A: 21 81 A0   LD    HL,$A081      ; 
009D: 36 00      LD    (HL),$00      ; 
009F: 11 82 A0   LD    DE,$A082      ; 
00A2: 01 0F 00   LD    BC,$000F      ; 
00A5: ED B0      LDIR                ; 
00A7: 3A 94 A0   LD    A,($A094)     ; 
00AA: A7         AND   A             ; 
00AB: 28 0B      JR    Z,$B8         ; 
00AD: 21 00 A0   LD    HL,$A000      ; 
00B0: 86         ADD   A,(HL)        ; 
00B1: 77         LD    (HL),A        ; 
00B2: AF         XOR   A             ; 
00B3: 32 94 A0   LD    ($A094),A     ; 
00B6: 18 16      JR    $CE           ; 
00B8: 3A 28 80   LD    A,($8028)     ; 
00BB: A7         AND   A             ; 
00BC: 28 10      JR    Z,$CE         ; 
00BE: 21 01 A0   LD    HL,$A001      ; 
00C1: 36 00      LD    (HL),$00      ; 
00C3: 11 02 A0   LD    DE,$A002      ; 
00C6: 01 26 00   LD    BC,$0026      ; 
00C9: ED B0      LDIR                ; 
00CB: C3 D2 01   JP    $01D2         ; 
00CE: 3A 02 A0   LD    A,($A002)     ; 
00D1: A7         AND   A             ; 
00D2: 28 0B      JR    Z,$DF         ; 
00D4: 21 95 A0   LD    HL,$A095      ; 
00D7: 36 02      LD    (HL),$02      ; 
00D9: CD 8B 02   CALL  $028B         ; 
00DC: C3 D2 01   JP    $01D2         ; 
00DF: 3A 03 A0   LD    A,($A003)     ; 
00E2: A7         AND   A             ; 
00E3: 28 0B      JR    Z,$F0         ; 
00E5: 21 95 A0   LD    HL,$A095      ; 
00E8: 36 03      LD    (HL),$03      ; 
00EA: CD 8B 02   CALL  $028B         ; 
00ED: C3 D2 01   JP    $01D2         ; 
00F0: 3A 04 A0   LD    A,($A004)     ; 
00F3: A7         AND   A             ; 
00F4: 28 0B      JR    Z,$101        ; 
00F6: 21 95 A0   LD    HL,$A095      ; 
00F9: 36 04      LD    (HL),$04      ; 
00FB: CD 8B 02   CALL  $028B         ; 
00FE: C3 D2 01   JP    $01D2         ; 
0101: 3A 0E A0   LD    A,($A00E)     ; 
0104: A7         AND   A             ; 
0105: 28 08      JR    Z,$10F        ; 
0107: 21 95 A0   LD    HL,$A095      ; 
010A: 36 0E      LD    (HL),$0E      ; 
010C: CD 8B 02   CALL  $028B         ; 
010F: 3A 0D A0   LD    A,($A00D)     ; 
0112: A7         AND   A             ; 
0113: 28 08      JR    Z,$11D        ; 
0115: 21 95 A0   LD    HL,$A095      ; 
0118: 36 0D      LD    (HL),$0D      ; 
011A: CD 8B 02   CALL  $028B         ; 
011D: 21 95 A0   LD    HL,$A095      ; 
0120: 36 05      LD    (HL),$05      ; 
0122: 3A 05 A0   LD    A,($A005)     ; 
0125: A7         AND   A             ; 
0126: 28 09      JR    Z,$131        ; 
0128: AF         XOR   A             ; 
0129: 32 05 A0   LD    ($A005),A     ; 
012C: CD 14 02   CALL  $0214         ; 
012F: 18 0A      JR    $13B          ; 
0131: 3A 19 A0   LD    A,($A019)     ; 
0134: A7         AND   A             ; 
0135: CA 3B 01   JP    Z,$013B       ; 
0138: CD 48 02   CALL  $0248         ; 
013B: 3A 06 A0   LD    A,($A006)     ; 
013E: A7         AND   A             ; 
013F: 28 0A      JR    Z,$14B        ; 
0141: 21 95 A0   LD    HL,$A095      ; 
0144: 36 06      LD    (HL),$06      ; 
0146: CD 8B 02   CALL  $028B         ; 
0149: 18 2E      JR    $179          ; 
014B: 3A 07 A0   LD    A,($A007)     ; 
014E: A7         AND   A             ; 
014F: 28 0A      JR    Z,$15B        ; 
0151: 21 95 A0   LD    HL,$A095      ; 
0154: 36 07      LD    (HL),$07      ; 
0156: CD 8B 02   CALL  $028B         ; 
0159: 18 1E      JR    $179          ; 
015B: 3A 08 A0   LD    A,($A008)     ; 
015E: A7         AND   A             ; 
015F: 28 0A      JR    Z,$16B        ; 
0161: 21 95 A0   LD    HL,$A095      ; 
0164: 36 08      LD    (HL),$08      ; 
0166: CD 8B 02   CALL  $028B         ; 
0169: 18 0E      JR    $179          ; 
016B: 3A 09 A0   LD    A,($A009)     ; 
016E: A7         AND   A             ; 
016F: 28 08      JR    Z,$179        ; 
0171: 21 95 A0   LD    HL,$A095      ; 
0174: 36 09      LD    (HL),$09      ; 
0176: CD 8B 02   CALL  $028B         ; 
0179: 21 95 A0   LD    HL,$A095      ; 
017C: 36 0A      LD    (HL),$0A      ; 
017E: 3A 0A A0   LD    A,($A00A)     ; 
0181: A7         AND   A             ; 
0182: 28 09      JR    Z,$18D        ; 
0184: AF         XOR   A             ; 
0185: 32 0A A0   LD    ($A00A),A     ; 
0188: CD 14 02   CALL  $0214         ; 
018B: 18 28      JR    $1B5          ; 
018D: 3A 1E A0   LD    A,($A01E)     ; 
0190: A7         AND   A             ; 
0191: 28 05      JR    Z,$198        ; 
0193: CD 48 02   CALL  $0248         ; 
0196: 18 1D      JR    $1B5          ; 
0198: 21 95 A0   LD    HL,$A095      ; 
019B: 36 0B      LD    (HL),$0B      ; 
019D: 3A 0B A0   LD    A,($A00B)     ; 
01A0: A7         AND   A             ; 
01A1: 28 09      JR    Z,$1AC        ; 
01A3: AF         XOR   A             ; 
01A4: 32 0B A0   LD    ($A00B),A     ; 
01A7: CD 14 02   CALL  $0214         ; 
01AA: 18 26      JR    $1D2          ; 
01AC: 3A 1F A0   LD    A,($A01F)     ; 
01AF: A7         AND   A             ; 
01B0: 28 03      JR    Z,$1B5        ; 
01B2: CD 48 02   CALL  $0248         ; 
01B5: 21 95 A0   LD    HL,$A095      ; 
01B8: 36 0C      LD    (HL),$0C      ; 
01BA: 3A 0C A0   LD    A,($A00C)     ; 
01BD: A7         AND   A             ; 
01BE: 28 09      JR    Z,$1C9        ; 
01C0: AF         XOR   A             ; 
01C1: 32 0C A0   LD    ($A00C),A     ; 
01C4: CD 14 02   CALL  $0214         ; 
01C7: 18 09      JR    $1D2          ; 
01C9: 3A 20 A0   LD    A,($A020)     ; 
01CC: A7         AND   A             ; 
01CD: 28 03      JR    Z,$1D2        ; 
01CF: CD 48 02   CALL  $0248         ; 
01D2: 3A 00 A0   LD    A,($A000)     ; 
01D5: A7         AND   A             ; 
01D6: 28 0A      JR    Z,$1E2        ; 
01D8: 21 95 A0   LD    HL,$A095      ; 
01DB: 36 00      LD    (HL),$00      ; 
01DD: CD 8B 02   CALL  $028B         ; 
01E0: 18 0E      JR    $1F0          ; 
01E2: 3A 01 A0   LD    A,($A001)     ; 
01E5: A7         AND   A             ; 
01E6: 28 08      JR    Z,$1F0        ; 
01E8: 21 95 A0   LD    HL,$A095      ; 
01EB: 36 01      LD    (HL),$01      ; 
01ED: CD 8B 02   CALL  $028B         ; 
01F0: 21 81 A0   LD    HL,$A081      ; 
01F3: 11 10 68   LD    DE,$6810      ; 
01F6: 01 10 00   LD    BC,$0010      ; 
01F9: ED B0      LDIR                ; 
01FB: 3A 91 A0   LD    A,($A091)     ; 
01FE: 32 05 68   LD    ($6805),A     ; 
0201: 3A 92 A0   LD    A,($A092)     ; 
0204: 32 0A 68   LD    ($680A),A     ; 
0207: 3A 93 A0   LD    A,($A093)     ; 
020A: 32 0F 68   LD    ($680F),A     ; 
020D: AF         XOR   A             ; 
020E: 32 80 A0   LD    ($A080),A     ; 
0211: F1         POP   AF            ; 
0212: ED 45      RETN                ; 
0214: 21 14 A0   LD    HL,$A014      ; 
0217: 3A 95 A0   LD    A,($A095)     ; 
021A: D7         RST   $10           ; 
021B: 34         INC   (HL)          ; 
021C: 21 95 A0   LD    HL,$A095      ; 
021F: 7E         LD    A,(HL)        ; 
0220: 87         ADD   A,A           ; 
0221: 86         ADD   A,(HL)        ; 
0222: 21 C0 04   LD    HL,$04C0      ; 
0225: D7         RST   $10           ; 
0226: 11 96 A0   LD    DE,$A096      ; 
0229: 01 03 00   LD    BC,$0003      ; 
022C: ED B0      LDIR                ; 
022E: 21 97 A0   LD    HL,$A097      ; 
0231: 46         LD    B,(HL)        ; 
0232: 48         LD    C,B           ; 
0233: 21 54 A0   LD    HL,$A054      ; 
0236: 3A 96 A0   LD    A,($A096)     ; 
0239: D7         RST   $10           ; 
023A: AF         XOR   A             ; 
023B: DF         RST   $18           ; 
023C: 41         LD    B,C           ; 
023D: 21 28 A0   LD    HL,$A028      ; 
0240: 3A 96 A0   LD    A,($A096)     ; 
0243: D7         RST   $10           ; 
0244: AF         XOR   A             ; 
0245: DF         RST   $18           ; 
0246: 18 12      JR    $25A          ; 
0248: 21 95 A0   LD    HL,$A095      ; 
024B: 7E         LD    A,(HL)        ; 
024C: 87         ADD   A,A           ; 
024D: 86         ADD   A,(HL)        ; 
024E: 21 C0 04   LD    HL,$04C0      ; 
0251: D7         RST   $10           ; 
0252: 11 96 A0   LD    DE,$A096      ; 
0255: 01 03 00   LD    BC,$0003      ; 
0258: ED B0      LDIR                ; 
025A: CD 07 03   CALL  $0307         ; 
025D: 21 97 A0   LD    HL,$A097      ; 
0260: 35         DEC   (HL)          ; 
0261: 28 0A      JR    Z,$26D        ; 
0263: 21 96 A0   LD    HL,$A096      ; 
0266: 34         INC   (HL)          ; 
0267: 21 98 A0   LD    HL,$A098      ; 
026A: 34         INC   (HL)          ; 
026B: 18 ED      JR    $25A          ; 
026D: 3A 99 A0   LD    A,($A099)     ; 
0270: A7         AND   A             ; 
0271: C8         RET   Z             ; 
0272: AF         XOR   A             ; 
0273: 32 99 A0   LD    ($A099),A     ; 
0276: 21 14 A0   LD    HL,$A014      ; 
0279: 3A 95 A0   LD    A,($A095)     ; 
027C: D7         RST   $10           ; 
027D: 36 00      LD    (HL),$00      ; 
027F: 21 33 04   LD    HL,$0433      ; 
0282: 3A 95 A0   LD    A,($A095)     ; 
0285: CF         RST   $08           ; 
0286: 5E         LD    E,(HL)        ; 
0287: 23         INC   HL            ; 
0288: 56         LD    D,(HL)        ; 
0289: EB         EX    DE,HL         ; 
028A: E9         JP    (HL)          ; 
028B: 21 95 A0   LD    HL,$A095      ; 
028E: 7E         LD    A,(HL)        ; 
028F: 87         ADD   A,A           ; 
0290: 86         ADD   A,(HL)        ; 
0291: 21 C0 04   LD    HL,$04C0      ; 
0294: D7         RST   $10           ; 
0295: 11 96 A0   LD    DE,$A096      ; 
0298: 01 03 00   LD    BC,$0003      ; 
029B: ED B0      LDIR                ; 
029D: 21 14 A0   LD    HL,$A014      ; 
02A0: 3A 95 A0   LD    A,($A095)     ; 
02A3: D7         RST   $10           ; 
02A4: 7E         LD    A,(HL)        ; 
02A5: A7         AND   A             ; 
02A6: 20 19      JR    NZ,$2C1       ; 
02A8: 34         INC   (HL)          ; 
02A9: 21 97 A0   LD    HL,$A097      ; 
02AC: 46         LD    B,(HL)        ; 
02AD: 48         LD    C,B           ; 
02AE: 21 54 A0   LD    HL,$A054      ; 
02B1: 3A 96 A0   LD    A,($A096)     ; 
02B4: D7         RST   $10           ; 
02B5: AF         XOR   A             ; 
02B6: DF         RST   $18           ; 
02B7: 41         LD    B,C           ; 
02B8: 21 28 A0   LD    HL,$A028      ; 
02BB: 3A 96 A0   LD    A,($A096)     ; 
02BE: D7         RST   $10           ; 
02BF: AF         XOR   A             ; 
02C0: DF         RST   $18           ; 
02C1: CD 07 03   CALL  $0307         ; 
02C4: 21 97 A0   LD    HL,$A097      ; 
02C7: 35         DEC   (HL)          ; 
02C8: 28 0A      JR    Z,$2D4        ; 
02CA: 21 96 A0   LD    HL,$A096      ; 
02CD: 34         INC   (HL)          ; 
02CE: 21 98 A0   LD    HL,$A098      ; 
02D1: 34         INC   (HL)          ; 
02D2: 18 ED      JR    $2C1          ; 
02D4: 3A 99 A0   LD    A,($A099)     ; 
02D7: A7         AND   A             ; 
02D8: C8         RET   Z             ; 
02D9: AF         XOR   A             ; 
02DA: 32 99 A0   LD    ($A099),A     ; 
02DD: 21 14 A0   LD    HL,$A014      ; 
02E0: 3A 95 A0   LD    A,($A095)     ; 
02E3: D7         RST   $10           ; 
02E4: 36 00      LD    (HL),$00      ; 
02E6: 21 00 A0   LD    HL,$A000      ; 
02E9: 3A 95 A0   LD    A,($A095)     ; 
02EC: D7         RST   $10           ; 
02ED: 3A 95 A0   LD    A,($A095)     ; 
02F0: A7         AND   A             ; 
02F1: 28 12      JR    Z,$305        ; 
02F3: FE 14      CP    $14           ; 
02F5: 28 0E      JR    Z,$305        ; 
02F7: 36 00      LD    (HL),$00      ; 
02F9: 21 33 04   LD    HL,$0433      ; 
02FC: 3A 95 A0   LD    A,($A095)     ; 
02FF: CF         RST   $08           ; 
0300: 5E         LD    E,(HL)        ; 
0301: 23         INC   HL            ; 
0302: 56         LD    D,(HL)        ; 
0303: EB         EX    DE,HL         ; 
0304: E9         JP    (HL)          ; 
0305: 35         DEC   (HL)          ; 
0306: C9         RET                 ; 
0307: 21 28 A0   LD    HL,$A028      ; 
030A: 3A 96 A0   LD    A,($A096)     ; 
030D: D7         RST   $10           ; 
030E: 34         INC   (HL)          ; 
030F: 3A 96 A0   LD    A,($A096)     ; 
0312: 21 8A 04   LD    HL,$048A      ; 
0315: CF         RST   $08           ; 
0316: 5E         LD    E,(HL)        ; 
0317: 23         INC   HL            ; 
0318: 56         LD    D,(HL)        ; 
0319: 21 54 A0   LD    HL,$A054      ; 
031C: 3A 96 A0   LD    A,($A096)     ; 
031F: D7         RST   $10           ; 
0320: 7E         LD    A,(HL)        ; 
0321: EB         EX    DE,HL         ; 
0322: D7         RST   $10           ; 
0323: 22 9A A0   LD    ($A09A),HL    ; 
0326: 7E         LD    A,(HL)        ; 
0327: 3C         INC   A             ; 
0328: C2 34 03   JP    NZ,$0334      ; 
032B: E7         RST   $20           ; 
032C: 36 00      LD    (HL),$00      ; 
032E: 3E 01      LD    A,$01         ; 
0330: 32 99 A0   LD    ($A099),A     ; 
0333: C9         RET                 ; 
0334: 21 FC 04   LD    HL,$04FC      ; 
0337: 3A 96 A0   LD    A,($A096)     ; 
033A: D7         RST   $10           ; 
033B: 7E         LD    A,(HL)        ; 
033C: A7         AND   A             ; 
033D: 28 05      JR    Z,$344        ; 
033F: 11 82 05   LD    DE,$0582      ; 
0342: 18 03      JR    $347          ; 
0344: 11 68 05   LD    DE,$0568      ; 
0347: 2A 9A A0   LD    HL,($A09A)    ; 
034A: 7E         LD    A,(HL)        ; 
034B: 0F         RRCA                ; 
034C: 0F         RRCA                ; 
034D: 0F         RRCA                ; 
034E: 0F         RRCA                ; 
034F: E6 0F      AND   $0F           ; 
0351: EB         EX    DE,HL         ; 
0352: CF         RST   $08           ; 
0353: 4E         LD    C,(HL)        ; 
0354: 23         INC   HL            ; 
0355: 46         LD    B,(HL)        ; 
0356: EB         EX    DE,HL         ; 
0357: 7E         LD    A,(HL)        ; 
0358: E6 0F      AND   $0F           ; 
035A: 28 07      JR    Z,$363        ; 
035C: CB 38      SRL   B             ; 
035E: CB 19      RR    C             ; 
0360: 3D         DEC   A             ; 
0361: 20 F9      JR    NZ,$35C       ; 
0363: 3A 98 A0   LD    A,($A098)     ; 
0366: A7         AND   A             ; 
0367: 28 0D      JR    Z,$376        ; 
0369: 3D         DEC   A             ; 
036A: 28 05      JR    Z,$371        ; 
036C: 21 8C A0   LD    HL,$A08C      ; 
036F: 18 08      JR    $379          ; 
0371: 21 87 A0   LD    HL,$A087      ; 
0374: 18 03      JR    $379          ; 
0376: 21 82 A0   LD    HL,$A082      ; 
0379: 71         LD    (HL),C        ; 
037A: 7E         LD    A,(HL)        ; 
037B: 0F         RRCA                ; 
037C: 0F         RRCA                ; 
037D: 0F         RRCA                ; 
037E: 0F         RRCA                ; 
037F: 23         INC   HL            ; 
0380: 77         LD    (HL),A        ; 
0381: 23         INC   HL            ; 
0382: 70         LD    (HL),B        ; 
0383: 7E         LD    A,(HL)        ; 
0384: 0F         RRCA                ; 
0385: 0F         RRCA                ; 
0386: 0F         RRCA                ; 
0387: 0F         RRCA                ; 
0388: 23         INC   HL            ; 
0389: 77         LD    (HL),A        ; 
038A: EB         EX    DE,HL         ; 
038B: E7         RST   $20           ; 
038C: EB         EX    DE,HL         ; 
038D: 2A 9A A0   LD    HL,($A09A)    ; 
0390: 7E         LD    A,(HL)        ; 
0391: D6 C0      SUB   $C0           ; 
0393: 28 4A      JR    Z,$3DF        ; 
0395: 3A 96 A0   LD    A,($A096)     ; 
0398: 21 32 05   LD    HL,$0532      ; 
039B: D7         RST   $10           ; 
039C: A7         AND   A             ; 
039D: 28 21      JR    Z,$3C0        ; 
039F: 3D         DEC   A             ; 
03A0: 28 0F      JR    Z,$3B1        ; 
03A2: 21 28 A0   LD    HL,$A028      ; 
03A5: 3A 96 A0   LD    A,($A096)     ; 
03A8: D7         RST   $10           ; 
03A9: 7E         LD    A,(HL)        ; 
03AA: FE 06      CP    $06           ; 
03AC: 30 12      JR    NC,$3C0       ; 
03AE: 2F         CPL                 ; 
03AF: 18 33      JR    $3E4          ; 
03B1: 21 28 A0   LD    HL,$A028      ; 
03B4: 3A 96 A0   LD    A,($A096)     ; 
03B7: D7         RST   $10           ; 
03B8: 7E         LD    A,(HL)        ; 
03B9: FE 08      CP    $08           ; 
03BB: 30 03      JR    NC,$3C0       ; 
03BD: 87         ADD   A,A           ; 
03BE: 18 24      JR    $3E4          ; 
03C0: 21 4D 05   LD    HL,$054D      ; 
03C3: 3A 96 A0   LD    A,($A096)     ; 
03C6: D7         RST   $10           ; 
03C7: 7E         LD    A,(HL)        ; 
03C8: A7         AND   A             ; 
03C9: 28 17      JR    Z,$3E2        ; 
03CB: 47         LD    B,A           ; 
03CC: 21 28 A0   LD    HL,$A028      ; 
03CF: 3A 96 A0   LD    A,($A096)     ; 
03D2: D7         RST   $10           ; 
03D3: 7E         LD    A,(HL)        ; 
03D4: 90         SUB   B             ; 
03D5: 38 0B      JR    C,$3E2        ; 
03D7: D6 0A      SUB   $0A           ; 
03D9: 30 04      JR    NC,$3DF       ; 
03DB: ED 44      NEG                 ; 
03DD: 18 05      JR    $3E4          ; 
03DF: AF         XOR   A             ; 
03E0: 18 02      JR    $3E4          ; 
03E2: 3E 0A      LD    A,$0A         ; 
03E4: 12         LD    (DE),A        ; 
03E5: 21 91 A0   LD    HL,$A091      ; 
03E8: 3A 98 A0   LD    A,($A098)     ; 
03EB: D7         RST   $10           ; 
03EC: EB         EX    DE,HL         ; 
03ED: 21 17 05   LD    HL,$0517      ; 
03F0: 3A 96 A0   LD    A,($A096)     ; 
03F3: D7         RST   $10           ; 
03F4: ED A0      LDI                 ; 
03F6: 21 ED 04   LD    HL,$04ED      ; 
03F9: 3A 95 A0   LD    A,($A095)     ; 
03FC: D7         RST   $10           ; 
03FD: 7E         LD    A,(HL)        ; 
03FE: 2A 9A A0   LD    HL,($A09A)    ; 
0401: 23         INC   HL            ; 
0402: 5E         LD    E,(HL)        ; 
0403: 16 00      LD    D,$00         ; 
0405: 21 00 00   LD    HL,$0000      ; 
0408: 06 08      LD    B,$08         ; 
040A: CB 3F      SRL   A             ; 
040C: 30 01      JR    NC,$40F       ; 
040E: 19         ADD   HL,DE         ; 
040F: CB 23      SLA   E             ; 
0411: CB 12      RL    D             ; 
0413: 10 F5      DJNZ  $40A          ; 
0415: 45         LD    B,L           ; 
0416: 21 28 A0   LD    HL,$A028      ; 
0419: 3A 96 A0   LD    A,($A096)     ; 
041C: D7         RST   $10           ; 
041D: 78         LD    A,B           ; 
041E: BE         CP    (HL)          ; 
041F: C0         RET   NZ            ; 
0420: 21 54 A0   LD    HL,$A054      ; 
0423: 3A 96 A0   LD    A,($A096)     ; 
0426: D7         RST   $10           ; 
0427: 34         INC   (HL)          ; 
0428: 34         INC   (HL)          ; 
0429: 21 28 A0   LD    HL,$A028      ; 
042C: 3A 96 A0   LD    A,($A096)     ; 
042F: D7         RST   $10           ; 
0430: 36 00      LD    (HL),$00      ; 
0432: C9         RET                 ; 
0433: 6F         LD    L,A           ; 
0434: 04         INC   B             ; 
0435: 6F         LD    L,A           ; 
0436: 04         INC   B             ; 
0437: 51         LD    D,C           ; 
0438: 04         INC   B             ; 
0439: 51         LD    D,C           ; 
043A: 04         INC   B             ; 
043B: 6F         LD    L,A           ; 
043C: 04         INC   B             ; 
043D: 51         LD    D,C           ; 
043E: 04         INC   B             ; 
043F: 51         LD    D,C           ; 
0440: 04         INC   B             ; 
0441: 60         LD    H,B           ; 
0442: 04         INC   B             ; 
0443: 51         LD    D,C           ; 
0444: 04         INC   B             ; 
0445: 51         LD    D,C           ; 
0446: 04         INC   B             ; 
0447: 67         LD    H,A           ; 
0448: 04         INC   B             ; 
0449: 51         LD    D,C           ; 
044A: 04         INC   B             ; 
044B: 51         LD    D,C           ; 
044C: 04         INC   B             ; 
044D: 52         LD    D,D           ; 
044E: 04         INC   B             ; 
044F: 51         LD    D,C           ; 
0450: 04         INC   B             ; 
0451: C9         RET                 ; 
0452: AF         XOR   A             ; 
0453: 32 05 A0   LD    ($A005),A     ; 
0456: 32 19 A0   LD    ($A019),A     ; 
0459: AF         XOR   A             ; 
045A: 32 09 A0   LD    ($A009),A     ; 
045D: 32 1D A0   LD    ($A01D),A     ; 
0460: AF         XOR   A             ; 
0461: 32 0C A0   LD    ($A00C),A     ; 
0464: 32 20 A0   LD    ($A020),A     ; 
0467: AF         XOR   A             ; 
0468: 32 0B A0   LD    ($A00B),A     ; 
046B: 32 1F A0   LD    ($A01F),A     ; 
046E: C9         RET                 ; 
046F: 21 05 A0   LD    HL,$A005      ; 
0472: 11 06 A0   LD    DE,$A006      ; 
0475: 01 09 00   LD    BC,$0009      ; 
0478: 36 00      LD    (HL),$00      ; 
047A: ED B0      LDIR                ; 
047C: 21 19 A0   LD    HL,$A019      ; 
047F: 11 1A A0   LD    DE,$A01A      ; 
0482: 01 09 00   LD    BC,$0009      ; 
0485: 36 00      LD    (HL),$00      ; 
0487: ED B0      LDIR                ; 
0489: C9         RET                 ; 
048A: 9C         SBC   H             ; 
048B: 05         DEC   B             ; 
048C: DD 
048D: 05         DEC   B             ; 
048E: 1E 06      LD    E,$06         ; 
0490: 65         LD    H,L           ; 
0491: 06 AC      LD    B,$AC         ; 
0493: 06 F5      LD    B,$F5         ; 
0495: 06 38      LD    B,$38         ; 
0497: 07         RLCA                ; 
0498: 6B         LD    L,E           ; 
0499: 07         RLCA                ; 
049A: 9E         SBC   (HL)          ; 
049B: 07         RLCA                ; 
049C: DF         RST   $18           ; 
049D: 07         RLCA                ; 
049E: 20 08      JR    NZ,$4A8       ; 
04A0: D9         EXX                 ; 
04A1: 09         ADD   HL,BC         ; 
04A2: DB 09      IN    A,($09)       ; 
04A4: DD 09      ADD   IX,BC         ; 
04A6: B3         OR    E             ; 
04A7: 08         EX    AF,AF'        ; 
04A8: B9         CP    C             ; 
04A9: 08         EX    AF,AF'        ; 
04AA: BF         CP    A             ; 
04AB: 08         EX    AF,AF'        ; 
04AC: 3D         DEC   A             ; 
04AD: 09         ADD   HL,BC         ; 
04AE: E1         POP   HL            ; 
04AF: 08         EX    AF,AF'        ; 
04B0: 9E         SBC   (HL)          ; 
04B1: 09         ADD   HL,BC         ; 
04B2: C8         RET   Z             ; 
04B3: 08         EX    AF,AF'        ; 
04B4: 38 09      JR    C,$4BF        ; 
04B6: 3A 09 47   LD    A,($4709)     ; 
04B9: 08         EX    AF,AF'        ; 
04BA: 58         LD    E,B           ; 
04BB: 08         EX    AF,AF'        ; 
04BC: EC 09 11   CALL  PE,$1109      ; 
04BF: 0A         LD    A,(BC)        ; 
04C0: 00         NOP                 ; 
04C1: 02         LD    (BC),A        ; 
04C2: 00         NOP                 ; 
04C3: 02         LD    (BC),A        ; 
04C4: 03         INC   BC            ; 
04C5: 00         NOP                 ; 
04C6: 05         DEC   B             ; 
04C7: 03         INC   BC            ; 
04C8: 00         NOP                 ; 
04C9: 08         EX    AF,AF'        ; 
04CA: 03         INC   BC            ; 
04CB: 00         NOP                 ; 
04CC: 0C         INC   C             ; 
04CD: 03         INC   BC            ; 
04CE: 00         NOP                 ; 
04CF: 0E 03      LD    C,$03         ; 
04D1: 00         NOP                 ; 
04D2: 11 01 01   LD    DE,$0101      ; 
04D5: 12         LD    (DE),A        ; 
04D6: 01 01 13   LD    BC,$1301      ; 
04D9: 01 02 14   LD    BC,$1402      ; 
04DC: 01 02 15   LD    BC,$1502      ; 
04DF: 02         LD    (BC),A        ; 
04E0: 00         NOP                 ; 
04E1: 17         RLA                 ; 
04E2: 01 00 18   LD    BC,$1800      ; 
04E5: 01 01 19   LD    BC,$1901      ; 
04E8: 01 00 1A   LD    BC,$1A00      ; 
04EB: 01 00 02   LD    BC,$0200      ; 
04EE: 10 0A      DJNZ  $4FA          ; 
04F0: 0C         INC   C             ; 
04F1: 10 06      DJNZ  $4F9          ; 
04F3: 01 05 01   LD    BC,$0105      ; 
04F6: 01 06 01   LD    BC,$0106      ; 
04F9: 02         LD    (BC),A        ; 
04FA: 04         INC   B             ; 
04FB: 0C         INC   C             ; 
04FC: 00         NOP                 ; 
04FD: 00         NOP                 ; 
04FE: 00         NOP                 ; 
04FF: 00         NOP                 ; 
0500: 00         NOP                 ; 
0501: 00         NOP                 ; 
0502: 00         NOP                 ; 
0503: 00         NOP                 ; 
0504: 00         NOP                 ; 
0505: 00         NOP                 ; 
0506: 00         NOP                 ; 
0507: 00         NOP                 ; 
0508: 01 00 00   LD    BC,$0000      ; 
050B: 00         NOP                 ; 
050C: 00         NOP                 ; 
050D: 00         NOP                 ; 
050E: 00         NOP                 ; 
050F: 00         NOP                 ; 
0510: 03         INC   BC            ; 
0511: 00         NOP                 ; 
0512: 01 00 00   LD    BC,$0000      ; 
0515: 00         NOP                 ; 
0516: 00         NOP                 ; 
0517: 02         LD    (BC),A        ; 
0518: 02         LD    (BC),A        ; 
0519: 05         DEC   B             ; 
051A: 04         INC   B             ; 
051B: 03         INC   BC            ; 
051C: 07         RLCA                ; 
051D: 05         DEC   B             ; 
051E: 05         DEC   B             ; 
051F: 05         DEC   B             ; 
0520: 05         DEC   B             ; 
0521: 06 01      LD    B,$01         ; 
0523: 01 01 01   LD    BC,$0101      ; 
0526: 05         DEC   B             ; 
0527: 07         RLCA                ; 
0528: 03         INC   BC            ; 
0529: 03         INC   BC            ; 
052A: 01 06 01   LD    BC,$0106      ; 
052D: 01 04 01   LD    BC,$0104      ; 
0530: 00         NOP                 ; 
0531: 00         NOP                 ; 
0532: 02         LD    (BC),A        ; 
0533: 02         LD    (BC),A        ; 
0534: 02         LD    (BC),A        ; 
0535: 00         NOP                 ; 
0536: 00         NOP                 ; 
0537: 02         LD    (BC),A        ; 
0538: 00         NOP                 ; 
0539: 00         NOP                 ; 
053A: 02         LD    (BC),A        ; 
053B: 02         LD    (BC),A        ; 
053C: 00         NOP                 ; 
053D: 02         LD    (BC),A        ; 
053E: 02         LD    (BC),A        ; 
053F: 02         LD    (BC),A        ; 
0540: 00         NOP                 ; 
0541: 00         NOP                 ; 
0542: 00         NOP                 ; 
0543: 02         LD    (BC),A        ; 
0544: 00         NOP                 ; 
0545: 02         LD    (BC),A        ; 
0546: 02         LD    (BC),A        ; 
0547: 02         LD    (BC),A        ; 
0548: 02         LD    (BC),A        ; 
0549: 02         LD    (BC),A        ; 
054A: 02         LD    (BC),A        ; 
054B: 00         NOP                 ; 
054C: 00         NOP                 ; 
054D: 00         NOP                 ; 
054E: 00         NOP                 ; 
054F: 00         NOP                 ; 
0550: 00         NOP                 ; 
0551: 02         LD    (BC),A        ; 
0552: 04         INC   B             ; 
0553: 04         INC   B             ; 
0554: 04         INC   B             ; 
0555: 04         INC   B             ; 
0556: 04         INC   B             ; 
0557: 00         NOP                 ; 
0558: 00         NOP                 ; 
0559: 00         NOP                 ; 
055A: 00         NOP                 ; 
055B: 00         NOP                 ; 
055C: 00         NOP                 ; 
055D: 00         NOP                 ; 
055E: 00         NOP                 ; 
055F: 00         NOP                 ; 
0560: 00         NOP                 ; 
0561: 00         NOP                 ; 
0562: 04         INC   B             ; 
0563: 04         INC   B             ; 
0564: 00         NOP                 ; 
0565: 00         NOP                 ; 
0566: 00         NOP                 ; 
0567: 00         NOP                 ; 
0568: D0         RET   NC            ; 
0569: 5A         LD    E,D           ; 
056A: 37         SCF                 ; 
056B: 60         LD    H,B           ; 
056C: EF         RST   $28           ; 
056D: 65         LD    H,L           ; 
056E: FF         RST   $38           ; 
056F: 6B         LD    L,E           ; 
0570: 6B         LD    L,E           ; 
0571: 72         LD    (HL),D        ; 
0572: 39         ADD   HL,SP         ; 
0573: 79         LD    A,C           ; 
0574: 6E         LD    L,(HL)        ; 
0575: 80         ADD   A,B           ; 
0576: 11 88 29   LD    DE,$2988      ; 
0579: 90         SUB   B             ; 
057A: BC         CP    H             ; 
057B: 98         SBC   B             ; 
057C: D0         RET   NC            ; 
057D: A1         AND   C             ; 
057E: 70         LD    (HL),B        ; 
057F: AB         XOR   E             ; 
0580: 00         NOP                 ; 
0581: 00         NOP                 ; 
0582: 11 5C 8B   LD    DE,$8B5C      ; 
0585: 61         LD    H,C           ; 
0586: 58         LD    E,B           ; 
0587: 67         LD    H,A           ; 
0588: 7D         LD    A,L           ; 
0589: 6D         LD    L,L           ; 
058A: 00         NOP                 ; 
058B: 74         LD    (HL),H        ; 
058C: E6 7A      AND   $7A           ; 
058E: 35         DEC   (HL)          ; 
058F: 82         ADD   A,D           ; 
0590: F2 89 27   JP    P,$2789       ; 
0593: 92         SUB   D             ; 
0594: D8         RET   C             ; 
0595: 9A         SBC   D             ; 
0596: 0C         INC   C             ; 
0597: A4         AND   H             ; 
0598: CE AD      ADC   A,$AD         ; 
059A: 00         NOP                 ; 
059B: 00         NOP                 ; 
059C: 79         LD    A,C           ; 
059D: 01 69 01   LD    BC,$0169      ; 
05A0: 59         LD    E,C           ; 
05A1: 01 49 01   LD    BC,$0149      ; 
05A4: 39         ADD   HL,SP         ; 
05A5: 01 29 01   LD    BC,$0129      ; 
05A8: 19         ADD   HL,DE         ; 
05A9: 01 09 01   LD    BC,$0109      ; 
05AC: 78         LD    A,B           ; 
05AD: 01 68 01   LD    BC,$0168      ; 
05B0: 58         LD    E,B           ; 
05B1: 01 48 01   LD    BC,$0148      ; 
05B4: 38 01      JR    C,$5B7        ; 
05B6: 28 01      JR    Z,$5B9        ; 
05B8: 18 01      JR    $5BB          ; 
05BA: 08         EX    AF,AF'        ; 
05BB: 01 77 01   LD    BC,$0177      ; 
05BE: 67         LD    H,A           ; 
05BF: 01 57 01   LD    BC,$0157      ; 
05C2: 47         LD    B,A           ; 
05C3: 01 37 01   LD    BC,$0137      ; 
05C6: 52         LD    D,D           ; 
05C7: 01 17 01   LD    BC,$0117      ; 
05CA: 07         RLCA                ; 
05CB: 01 76 01   LD    BC,$0176      ; 
05CE: 66         LD    H,(HL)        ; 
05CF: 01 56 01   LD    BC,$0156      ; 
05D2: 46         LD    B,(HL)        ; 
05D3: 01 36 01   LD    BC,$0136      ; 
05D6: 26 01      LD    H,$01         ; 
05D8: 16 01      LD    D,$01         ; 
05DA: 06 01      LD    B,$01         ; 
05DC: FF         RST   $38           ; 
05DD: 89         ADC   A,C           ; 
05DE: 01 79 01   LD    BC,$0179      ; 
05E1: 69         LD    L,C           ; 
05E2: 01 59 01   LD    BC,$0159      ; 
05E5: 49         LD    C,C           ; 
05E6: 01 39 01   LD    BC,$0139      ; 
05E9: 29         ADD   HL,HL         ; 
05EA: 01 19 01   LD    BC,$0119      ; 
05ED: 88         ADC   A,B           ; 
05EE: 01 78 01   LD    BC,$0178      ; 
05F1: 68         LD    L,B           ; 
05F2: 01 58 01   LD    BC,$0158      ; 
05F5: 48         LD    C,B           ; 
05F6: 01 38 01   LD    BC,$0138      ; 
05F9: 28 01      JR    Z,$5FC        ; 
05FB: 18 01      JR    $5FE          ; 
05FD: 87         ADD   A,A           ; 
05FE: 01 77 01   LD    BC,$0177      ; 
0601: 67         LD    H,A           ; 
0602: 01 57 01   LD    BC,$0157      ; 
0605: 47         LD    B,A           ; 
0606: 01 32 01   LD    BC,$0132      ; 
0609: 27         DAA                 ; 
060A: 01 17 01   LD    BC,$0117      ; 
060D: 86         ADD   A,(HL)        ; 
060E: 01 76 01   LD    BC,$0176      ; 
0611: 66         LD    H,(HL)        ; 
0612: 01 56 01   LD    BC,$0156      ; 
0615: 46         LD    B,(HL)        ; 
0616: 01 36 01   LD    BC,$0136      ; 
0619: 26 01      LD    H,$01         ; 
061B: 16 01      LD    D,$01         ; 
061D: FF         RST   $38           ; 
061E: 56         LD    D,(HL)        ; 
061F: 04         INC   B             ; 
0620: C0         RET   NZ            ; 
0621: 01 06 01   LD    BC,$0106      ; 
0624: 56         LD    D,(HL)        ; 
0625: 01 96 01   LD    BC,$0196      ; 
0628: 05         DEC   B             ; 
0629: 01 96 01   LD    BC,$0196      ; 
062C: C0         RET   NZ            ; 
062D: 01 56 01   LD    BC,$0156      ; 
0630: 76         HALT                ; 
0631: 01 C0 01   LD    BC,$01C0      ; 
0634: 76         HALT                ; 
0635: 01 76 01   LD    BC,$0176      ; 
0638: C0         RET   NZ            ; 
0639: 01 26 02   LD    BC,$0226      ; 
063C: C0         RET   NZ            ; 
063D: 01 76 01   LD    BC,$0176      ; 
0640: 56         LD    D,(HL)        ; 
0641: 01 C0 01   LD    BC,$01C0      ; 
0644: 46         LD    B,(HL)        ; 
0645: 01 56 04   LD    BC,$0456      ; 
0648: C0         RET   NZ            ; 
0649: 01 06 01   LD    BC,$0106      ; 
064C: 56         LD    D,(HL)        ; 
064D: 01 96 01   LD    BC,$0196      ; 
0650: 05         DEC   B             ; 
0651: 01 96 01   LD    BC,$0196      ; 
0654: C0         RET   NZ            ; 
0655: 01 56 01   LD    BC,$0156      ; 
0658: 66         LD    H,(HL)        ; 
0659: 01 C0 01   LD    BC,$01C0      ; 
065C: 66         LD    H,(HL)        ; 
065D: 01 66 01   LD    BC,$0166      ; 
0660: C0         RET   NZ            ; 
0661: 01 56 07   LD    BC,$0756      ; 
0664: FF         RST   $38           ; 
0665: 97         SUB   A             ; 
0666: 04         INC   B             ; 
0667: C0         RET   NZ            ; 
0668: 01 97 01   LD    BC,$0197      ; 
066B: 97         SUB   A             ; 
066C: 01 06 01   LD    BC,$0106      ; 
066F: 56         LD    D,(HL)        ; 
0670: 01 06 01   LD    BC,$0106      ; 
0673: C0         RET   NZ            ; 
0674: 01 97 01   LD    BC,$0197      ; 
0677: A7         AND   A             ; 
0678: 01 C0 01   LD    BC,$01C0      ; 
067B: A7         AND   A             ; 
067C: 01 A7 01   LD    BC,$01A7      ; 
067F: C0         RET   NZ            ; 
0680: 01 A7 02   LD    BC,$02A7      ; 
0683: C0         RET   NZ            ; 
0684: 01 A7 01   LD    BC,$01A7      ; 
0687: A7         AND   A             ; 
0688: 01 C0 01   LD    BC,$01C0      ; 
068B: A7         AND   A             ; 
068C: 01 97 04   LD    BC,$0497      ; 
068F: C0         RET   NZ            ; 
0690: 01 97 01   LD    BC,$0197      ; 
0693: 97         SUB   A             ; 
0694: 01 97 01   LD    BC,$0197      ; 
0697: 97         SUB   A             ; 
0698: 01 97 01   LD    BC,$0197      ; 
069B: C0         RET   NZ            ; 
069C: 01 97 01   LD    BC,$0197      ; 
069F: A7         AND   A             ; 
06A0: 01 C0 01   LD    BC,$01C0      ; 
06A3: A7         AND   A             ; 
06A4: 01 A7 01   LD    BC,$01A7      ; 
06A7: C0         RET   NZ            ; 
06A8: 01 97 07   LD    BC,$0797      ; 
06AB: FF         RST   $38           ; 
06AC: 59         LD    E,C           ; 
06AD: 01 59 01   LD    BC,$0159      ; 
06B0: 59         LD    E,C           ; 
06B1: 01 59 01   LD    BC,$0159      ; 
06B4: C0         RET   NZ            ; 
06B5: 02         LD    (BC),A        ; 
06B6: 59         LD    E,C           ; 
06B7: 01 59 01   LD    BC,$0159      ; 
06BA: 59         LD    E,C           ; 
06BB: 01 59 01   LD    BC,$0159      ; 
06BE: C0         RET   NZ            ; 
06BF: 02         LD    (BC),A        ; 
06C0: 59         LD    E,C           ; 
06C1: 01 59 01   LD    BC,$0159      ; 
06C4: 59         LD    E,C           ; 
06C5: 01 59 01   LD    BC,$0159      ; 
06C8: C0         RET   NZ            ; 
06C9: 02         LD    (BC),A        ; 
06CA: 59         LD    E,C           ; 
06CB: 01 59 01   LD    BC,$0159      ; 
06CE: 59         LD    E,C           ; 
06CF: 01 59 01   LD    BC,$0159      ; 
06D2: C0         RET   NZ            ; 
06D3: 02         LD    (BC),A        ; 
06D4: 59         LD    E,C           ; 
06D5: 01 59 01   LD    BC,$0159      ; 
06D8: 59         LD    E,C           ; 
06D9: 01 59 01   LD    BC,$0159      ; 
06DC: C0         RET   NZ            ; 
06DD: 02         LD    (BC),A        ; 
06DE: 59         LD    E,C           ; 
06DF: 01 59 01   LD    BC,$0159      ; 
06E2: 59         LD    E,C           ; 
06E3: 01 59 01   LD    BC,$0159      ; 
06E6: C0         RET   NZ            ; 
06E7: 02         LD    (BC),A        ; 
06E8: 59         LD    E,C           ; 
06E9: 01 59 01   LD    BC,$0159      ; 
06EC: 59         LD    E,C           ; 
06ED: 01 59 01   LD    BC,$0159      ; 
06F0: C0         RET   NZ            ; 
06F1: 01 59 07   LD    BC,$0759      ; 
06F4: FF         RST   $38           ; 
06F5: 07         RLCA                ; 
06F6: 01 07 01   LD    BC,$0107      ; 
06F9: 07         RLCA                ; 
06FA: 02         LD    (BC),A        ; 
06FB: 07         RLCA                ; 
06FC: 02         LD    (BC),A        ; 
06FD: 07         RLCA                ; 
06FE: 02         LD    (BC),A        ; 
06FF: 07         RLCA                ; 
0700: 02         LD    (BC),A        ; 
0701: 07         RLCA                ; 
0702: 02         LD    (BC),A        ; 
0703: 07         RLCA                ; 
0704: 02         LD    (BC),A        ; 
0705: 27         DAA                 ; 
0706: 02         LD    (BC),A        ; 
0707: 47         LD    B,A           ; 
0708: 02         LD    (BC),A        ; 
0709: 57         LD    D,A           ; 
070A: 02         LD    (BC),A        ; 
070B: 57         LD    D,A           ; 
070C: 02         LD    (BC),A        ; 
070D: 57         LD    D,A           ; 
070E: 02         LD    (BC),A        ; 
070F: 57         LD    D,A           ; 
0710: 02         LD    (BC),A        ; 
0711: 57         LD    D,A           ; 
0712: 02         LD    (BC),A        ; 
0713: 97         SUB   A             ; 
0714: 02         LD    (BC),A        ; 
0715: 77         LD    (HL),A        ; 
0716: 02         LD    (BC),A        ; 
0717: 57         LD    D,A           ; 
0718: 02         LD    (BC),A        ; 
0719: 77         LD    (HL),A        ; 
071A: 02         LD    (BC),A        ; 
071B: 77         LD    (HL),A        ; 
071C: 02         LD    (BC),A        ; 
071D: 77         LD    (HL),A        ; 
071E: 02         LD    (BC),A        ; 
071F: 77         LD    (HL),A        ; 
0720: 02         LD    (BC),A        ; 
0721: 77         LD    (HL),A        ; 
0722: 02         LD    (BC),A        ; 
0723: 26 02      LD    H,$02         ; 
0725: 06 02      LD    B,$02         ; 
0727: A7         AND   A             ; 
0728: 02         LD    (BC),A        ; 
0729: 97         SUB   A             ; 
072A: 02         LD    (BC),A        ; 
072B: 97         SUB   A             ; 
072C: 02         LD    (BC),A        ; 
072D: 97         SUB   A             ; 
072E: 02         LD    (BC),A        ; 
072F: 97         SUB   A             ; 
0730: 02         LD    (BC),A        ; 
0731: 97         SUB   A             ; 
0732: 02         LD    (BC),A        ; 
0733: A7         AND   A             ; 
0734: 02         LD    (BC),A        ; 
0735: 06 02      LD    B,$02         ; 
0737: FF         RST   $38           ; 
0738: C0         RET   NZ            ; 
0739: 02         LD    (BC),A        ; 
073A: A8         XOR   B             ; 
073B: 02         LD    (BC),A        ; 
073C: A8         XOR   B             ; 
073D: 02         LD    (BC),A        ; 
073E: C0         RET   NZ            ; 
073F: 04         INC   B             ; 
0740: A8         XOR   B             ; 
0741: 02         LD    (BC),A        ; 
0742: A8         XOR   B             ; 
0743: 02         LD    (BC),A        ; 
0744: C0         RET   NZ            ; 
0745: 04         INC   B             ; 
0746: 98         SBC   B             ; 
0747: 02         LD    (BC),A        ; 
0748: 98         SBC   B             ; 
0749: 02         LD    (BC),A        ; 
074A: C0         RET   NZ            ; 
074B: 04         INC   B             ; 
074C: 98         SBC   B             ; 
074D: 02         LD    (BC),A        ; 
074E: 98         SBC   B             ; 
074F: 02         LD    (BC),A        ; 
0750: C0         RET   NZ            ; 
0751: 04         INC   B             ; 
0752: A8         XOR   B             ; 
0753: 02         LD    (BC),A        ; 
0754: A8         XOR   B             ; 
0755: 02         LD    (BC),A        ; 
0756: C0         RET   NZ            ; 
0757: 04         INC   B             ; 
0758: A8         XOR   B             ; 
0759: 02         LD    (BC),A        ; 
075A: A8         XOR   B             ; 
075B: 02         LD    (BC),A        ; 
075C: C0         RET   NZ            ; 
075D: 04         INC   B             ; 
075E: 98         SBC   B             ; 
075F: 02         LD    (BC),A        ; 
0760: 98         SBC   B             ; 
0761: 02         LD    (BC),A        ; 
0762: C0         RET   NZ            ; 
0763: 04         INC   B             ; 
0764: 98         SBC   B             ; 
0765: 02         LD    (BC),A        ; 
0766: 98         SBC   B             ; 
0767: 02         LD    (BC),A        ; 
0768: C0         RET   NZ            ; 
0769: 02         LD    (BC),A        ; 
076A: FF         RST   $38           ; 
076B: C0         RET   NZ            ; 
076C: 02         LD    (BC),A        ; 
076D: 08         EX    AF,AF'        ; 
076E: 02         LD    (BC),A        ; 
076F: 08         EX    AF,AF'        ; 
0770: 02         LD    (BC),A        ; 
0771: C0         RET   NZ            ; 
0772: 04         INC   B             ; 
0773: 08         EX    AF,AF'        ; 
0774: 02         LD    (BC),A        ; 
0775: 08         EX    AF,AF'        ; 
0776: 02         LD    (BC),A        ; 
0777: C0         RET   NZ            ; 
0778: 04         INC   B             ; 
0779: 58         LD    E,B           ; 
077A: 02         LD    (BC),A        ; 
077B: 58         LD    E,B           ; 
077C: 02         LD    (BC),A        ; 
077D: C0         RET   NZ            ; 
077E: 04         INC   B             ; 
077F: 58         LD    E,B           ; 
0780: 02         LD    (BC),A        ; 
0781: 58         LD    E,B           ; 
0782: 02         LD    (BC),A        ; 
0783: C0         RET   NZ            ; 
0784: 04         INC   B             ; 
0785: 08         EX    AF,AF'        ; 
0786: 02         LD    (BC),A        ; 
0787: 08         EX    AF,AF'        ; 
0788: 02         LD    (BC),A        ; 
0789: C0         RET   NZ            ; 
078A: 04         INC   B             ; 
078B: 08         EX    AF,AF'        ; 
078C: 02         LD    (BC),A        ; 
078D: 08         EX    AF,AF'        ; 
078E: 02         LD    (BC),A        ; 
078F: C0         RET   NZ            ; 
0790: 04         INC   B             ; 
0791: 58         LD    E,B           ; 
0792: 02         LD    (BC),A        ; 
0793: 58         LD    E,B           ; 
0794: 02         LD    (BC),A        ; 
0795: C0         RET   NZ            ; 
0796: 04         INC   B             ; 
0797: 58         LD    E,B           ; 
0798: 02         LD    (BC),A        ; 
0799: 58         LD    E,B           ; 
079A: 02         LD    (BC),A        ; 
079B: C0         RET   NZ            ; 
079C: 02         LD    (BC),A        ; 
079D: FF         RST   $38           ; 
079E: 96         SUB   (HL)          ; 
079F: 04         INC   B             ; 
07A0: 96         SUB   (HL)          ; 
07A1: 04         INC   B             ; 
07A2: 96         SUB   (HL)          ; 
07A3: 04         INC   B             ; 
07A4: 96         SUB   (HL)          ; 
07A5: 04         INC   B             ; 
07A6: 96         SUB   (HL)          ; 
07A7: 04         INC   B             ; 
07A8: 96         SUB   (HL)          ; 
07A9: 04         INC   B             ; 
07AA: 96         SUB   (HL)          ; 
07AB: 04         INC   B             ; 
07AC: 96         SUB   (HL)          ; 
07AD: 04         INC   B             ; 
07AE: 96         SUB   (HL)          ; 
07AF: 04         INC   B             ; 
07B0: 96         SUB   (HL)          ; 
07B1: 04         INC   B             ; 
07B2: 96         SUB   (HL)          ; 
07B3: 04         INC   B             ; 
07B4: 96         SUB   (HL)          ; 
07B5: 04         INC   B             ; 
07B6: 96         SUB   (HL)          ; 
07B7: 04         INC   B             ; 
07B8: 96         SUB   (HL)          ; 
07B9: 04         INC   B             ; 
07BA: 96         SUB   (HL)          ; 
07BB: 04         INC   B             ; 
07BC: 96         SUB   (HL)          ; 
07BD: 04         INC   B             ; 
07BE: 96         SUB   (HL)          ; 
07BF: 04         INC   B             ; 
07C0: 96         SUB   (HL)          ; 
07C1: 04         INC   B             ; 
07C2: 96         SUB   (HL)          ; 
07C3: 04         INC   B             ; 
07C4: 96         SUB   (HL)          ; 
07C5: 04         INC   B             ; 
07C6: 96         SUB   (HL)          ; 
07C7: 04         INC   B             ; 
07C8: 96         SUB   (HL)          ; 
07C9: 04         INC   B             ; 
07CA: 96         SUB   (HL)          ; 
07CB: 04         INC   B             ; 
07CC: 96         SUB   (HL)          ; 
07CD: 04         INC   B             ; 
07CE: 96         SUB   (HL)          ; 
07CF: 04         INC   B             ; 
07D0: 96         SUB   (HL)          ; 
07D1: 04         INC   B             ; 
07D2: 96         SUB   (HL)          ; 
07D3: 04         INC   B             ; 
07D4: 96         SUB   (HL)          ; 
07D5: 04         INC   B             ; 
07D6: 96         SUB   (HL)          ; 
07D7: 04         INC   B             ; 
07D8: 96         SUB   (HL)          ; 
07D9: 04         INC   B             ; 
07DA: 96         SUB   (HL)          ; 
07DB: 04         INC   B             ; 
07DC: 96         SUB   (HL)          ; 
07DD: 04         INC   B             ; 
07DE: FF         RST   $38           ; 
07DF: 56         LD    D,(HL)        ; 
07E0: 04         INC   B             ; 
07E1: 56         LD    D,(HL)        ; 
07E2: 04         INC   B             ; 
07E3: 56         LD    D,(HL)        ; 
07E4: 04         INC   B             ; 
07E5: 56         LD    D,(HL)        ; 
07E6: 04         INC   B             ; 
07E7: 56         LD    D,(HL)        ; 
07E8: 04         INC   B             ; 
07E9: 56         LD    D,(HL)        ; 
07EA: 04         INC   B             ; 
07EB: 56         LD    D,(HL)        ; 
07EC: 04         INC   B             ; 
07ED: 56         LD    D,(HL)        ; 
07EE: 04         INC   B             ; 
07EF: 56         LD    D,(HL)        ; 
07F0: 04         INC   B             ; 
07F1: 56         LD    D,(HL)        ; 
07F2: 04         INC   B             ; 
07F3: 56         LD    D,(HL)        ; 
07F4: 04         INC   B             ; 
07F5: 56         LD    D,(HL)        ; 
07F6: 04         INC   B             ; 
07F7: 56         LD    D,(HL)        ; 
07F8: 04         INC   B             ; 
07F9: 56         LD    D,(HL)        ; 
07FA: 04         INC   B             ; 
07FB: 56         LD    D,(HL)        ; 
07FC: 04         INC   B             ; 
07FD: 56         LD    D,(HL)        ; 
07FE: 04         INC   B             ; 
07FF: 56         LD    D,(HL)        ; 
0800: 04         INC   B             ; 
0801: 56         LD    D,(HL)        ; 
0802: 04         INC   B             ; 
0803: 56         LD    D,(HL)        ; 
0804: 04         INC   B             ; 
0805: 56         LD    D,(HL)        ; 
0806: 04         INC   B             ; 
0807: 56         LD    D,(HL)        ; 
0808: 04         INC   B             ; 
0809: 56         LD    D,(HL)        ; 
080A: 04         INC   B             ; 
080B: 56         LD    D,(HL)        ; 
080C: 04         INC   B             ; 
080D: 56         LD    D,(HL)        ; 
080E: 04         INC   B             ; 
080F: 56         LD    D,(HL)        ; 
0810: 04         INC   B             ; 
0811: 56         LD    D,(HL)        ; 
0812: 04         INC   B             ; 
0813: 56         LD    D,(HL)        ; 
0814: 04         INC   B             ; 
0815: 56         LD    D,(HL)        ; 
0816: 04         INC   B             ; 
0817: 56         LD    D,(HL)        ; 
0818: 04         INC   B             ; 
0819: 56         LD    D,(HL)        ; 
081A: 04         INC   B             ; 
081B: 56         LD    D,(HL)        ; 
081C: 04         INC   B             ; 
081D: 56         LD    D,(HL)        ; 
081E: 04         INC   B             ; 
081F: FF         RST   $38           ; 
0820: 58         LD    E,B           ; 
0821: 01 07 01   LD    BC,$0107      ; 
0824: 46         LD    B,(HL)        ; 
0825: 0D         DEC   C             ; 
0826: 26 01      LD    H,$01         ; 
0828: 16 03      LD    D,$03         ; 
082A: 46         LD    B,(HL)        ; 
082B: 01 26 0C   LD    BC,$0C26      ; 
082E: 58         LD    E,B           ; 
082F: 01 07 01   LD    BC,$0107      ; 
0832: 36 0D      LD    (HL),$0D      ; 
0834: 26 01      LD    H,$01         ; 
0836: 36 03      LD    (HL),$03      ; 
0838: 56         LD    D,(HL)        ; 
0839: 01 76 03   LD    BC,$0376      ; 
083C: 56         LD    D,(HL)        ; 
083D: 01 36 03   LD    BC,$0336      ; 
0840: 26 01      LD    H,$01         ; 
0842: 06 03      LD    B,$03         ; 
0844: 26 01      LD    H,$01         ; 
0846: FF         RST   $38           ; 
0847: 69         LD    L,C           ; 
0848: 01 64 01   LD    BC,$0164      ; 
084B: 79         LD    A,C           ; 
084C: 01 14 01   LD    BC,$0114      ; 
084F: 89         ADC   A,C           ; 
0850: 01 85 01   LD    BC,$0185      ; 
0853: 99         SBC   C             ; 
0854: 01 35 01   LD    BC,$0135      ; 
0857: FF         RST   $38           ; 
0858: 06 01      LD    B,$01         ; 
085A: 16 01      LD    D,$01         ; 
085C: 26 01      LD    H,$01         ; 
085E: 36 01      LD    (HL),$01      ; 
0860: 46         LD    B,(HL)        ; 
0861: 01 36 01   LD    BC,$0136      ; 
0864: 26 01      LD    H,$01         ; 
0866: 16 01      LD    D,$01         ; 
0868: 06 01      LD    B,$01         ; 
086A: B7         OR    A             ; 
086B: 01 A7 01   LD    BC,$01A7      ; 
086E: 97         SUB   A             ; 
086F: 01 87 01   LD    BC,$0187      ; 
0872: 77         LD    (HL),A        ; 
0873: 01 67 01   LD    BC,$0167      ; 
0876: 57         LD    D,A           ; 
0877: 01 47 01   LD    BC,$0147      ; 
087A: 37         SCF                 ; 
087B: 01 27 01   LD    BC,$0127      ; 
087E: 17         RLA                 ; 
087F: 01 07 01   LD    BC,$0107      ; 
0882: B8         CP    B             ; 
0883: 01 A8 01   LD    BC,$01A8      ; 
0886: 98         SBC   B             ; 
0887: 01 88 01   LD    BC,$0188      ; 
088A: 78         LD    A,B           ; 
088B: 01 68 01   LD    BC,$0168      ; 
088E: 58         LD    E,B           ; 
088F: 01 48 01   LD    BC,$0148      ; 
0892: 38 01      JR    C,$895        ; 
0894: 28 01      JR    Z,$897        ; 
0896: 18 01      JR    $899          ; 
0898: 08         EX    AF,AF'        ; 
0899: 01 B9 01   LD    BC,$01B9      ; 
089C: A9         XOR   C             ; 
089D: 01 99 01   LD    BC,$0199      ; 
08A0: 89         ADC   A,C           ; 
08A1: 01 79 01   LD    BC,$0179      ; 
08A4: 69         LD    L,C           ; 
08A5: 01 59 01   LD    BC,$0159      ; 
08A8: 49         LD    C,C           ; 
08A9: 01 39 01   LD    BC,$0139      ; 
08AC: 29         ADD   HL,HL         ; 
08AD: 01 19 01   LD    BC,$0119      ; 
08B0: 09         ADD   HL,BC         ; 
08B1: 01 FF 04   LD    BC,$04FF      ; 
08B4: 01 74 01   LD    BC,$0174      ; 
08B7: 24         INC   H             ; 
08B8: 01 94 01   LD    BC,$0194      ; 
08BB: 44         LD    B,H           ; 
08BC: 01 B4 01   LD    BC,$01B4      ; 
08BF: 64         LD    H,H           ; 
08C0: 01 14 01   LD    BC,$0114      ; 
08C3: 84         ADD   A,H           ; 
08C4: 01 34 01   LD    BC,$0134      ; 
08C7: FF         RST   $38           ; 
08C8: 0A         LD    A,(BC)        ; 
08C9: 01 19 01   LD    BC,$0119      ; 
08CC: 0A         LD    A,(BC)        ; 
08CD: 01 19 01   LD    BC,$0119      ; 
08D0: 25         DEC   H             ; 
08D1: 01 34 01   LD    BC,$0134      ; 
08D4: 25         DEC   H             ; 
08D5: 01 34 01   LD    BC,$0134      ; 
08D8: 43         LD    B,E           ; 
08D9: 01 52 01   LD    BC,$0152      ; 
08DC: 43         LD    B,E           ; 
08DD: 01 52 01   LD    BC,$0152      ; 
08E0: FF         RST   $38           ; 
08E1: 09         ADD   HL,BC         ; 
08E2: 01 19 01   LD    BC,$0119      ; 
08E5: 09         ADD   HL,BC         ; 
08E6: 01 29 01   LD    BC,$0129      ; 
08E9: 09         ADD   HL,BC         ; 
08EA: 01 39 01   LD    BC,$0139      ; 
08ED: 09         ADD   HL,BC         ; 
08EE: 01 49 01   LD    BC,$0149      ; 
08F1: 09         ADD   HL,BC         ; 
08F2: 01 39 01   LD    BC,$0139      ; 
08F5: 09         ADD   HL,BC         ; 
08F6: 01 29 01   LD    BC,$0129      ; 
08F9: 09         ADD   HL,BC         ; 
08FA: 01 19 01   LD    BC,$0119      ; 
08FD: 09         ADD   HL,BC         ; 
08FE: 01 19 01   LD    BC,$0119      ; 
0901: 09         ADD   HL,BC         ; 
0902: 01 29 01   LD    BC,$0129      ; 
0905: 09         ADD   HL,BC         ; 
0906: 01 39 01   LD    BC,$0139      ; 
0909: 09         ADD   HL,BC         ; 
090A: 01 49 01   LD    BC,$0149      ; 
090D: 09         ADD   HL,BC         ; 
090E: 01 39 01   LD    BC,$0139      ; 
0911: 09         ADD   HL,BC         ; 
0912: 01 29 01   LD    BC,$0129      ; 
0915: 09         ADD   HL,BC         ; 
0916: 01 19 01   LD    BC,$0119      ; 
0919: 09         ADD   HL,BC         ; 
091A: 01 19 01   LD    BC,$0119      ; 
091D: 09         ADD   HL,BC         ; 
091E: 01 29 01   LD    BC,$0129      ; 
0921: 09         ADD   HL,BC         ; 
0922: 01 39 01   LD    BC,$0139      ; 
0925: 09         ADD   HL,BC         ; 
0926: 01 49 01   LD    BC,$0149      ; 
0929: 09         ADD   HL,BC         ; 
092A: 01 39 01   LD    BC,$0139      ; 
092D: 09         ADD   HL,BC         ; 
092E: 01 29 01   LD    BC,$0129      ; 
0931: 09         ADD   HL,BC         ; 
0932: 01 19 01   LD    BC,$0119      ; 
0935: 09         ADD   HL,BC         ; 
0936: 01 FF 05   LD    BC,$05FF      ; 
0939: 01 15 05   LD    BC,$0515      ; 
093C: FF         RST   $38           ; 
093D: 04         INC   B             ; 
093E: 01 29 01   LD    BC,$0129      ; 
0941: 14         INC   D             ; 
0942: 01 29 01   LD    BC,$0129      ; 
0945: 04         INC   B             ; 
0946: 01 39 01   LD    BC,$0139      ; 
0949: 14         INC   D             ; 
094A: 01 39 01   LD    BC,$0139      ; 
094D: 04         INC   B             ; 
094E: 01 49 01   LD    BC,$0149      ; 
0951: 14         INC   D             ; 
0952: 01 49 01   LD    BC,$0149      ; 
0955: 04         INC   B             ; 
0956: 01 59 01   LD    BC,$0159      ; 
0959: 14         INC   D             ; 
095A: 01 59 01   LD    BC,$0159      ; 
095D: 04         INC   B             ; 
095E: 01 29 01   LD    BC,$0129      ; 
0961: 14         INC   D             ; 
0962: 01 29 01   LD    BC,$0129      ; 
0965: 04         INC   B             ; 
0966: 01 39 01   LD    BC,$0139      ; 
0969: 14         INC   D             ; 
096A: 01 39 01   LD    BC,$0139      ; 
096D: 04         INC   B             ; 
096E: 01 49 01   LD    BC,$0149      ; 
0971: 14         INC   D             ; 
0972: 01 49 01   LD    BC,$0149      ; 
0975: 04         INC   B             ; 
0976: 01 59 01   LD    BC,$0159      ; 
0979: 14         INC   D             ; 
097A: 01 59 01   LD    BC,$0159      ; 
097D: 04         INC   B             ; 
097E: 01 29 01   LD    BC,$0129      ; 
0981: 14         INC   D             ; 
0982: 01 29 01   LD    BC,$0129      ; 
0985: 04         INC   B             ; 
0986: 01 39 01   LD    BC,$0139      ; 
0989: 14         INC   D             ; 
098A: 01 39 01   LD    BC,$0139      ; 
098D: 04         INC   B             ; 
098E: 01 49 01   LD    BC,$0149      ; 
0991: 14         INC   D             ; 
0992: 01 49 01   LD    BC,$0149      ; 
0995: 04         INC   B             ; 
0996: 01 59 01   LD    BC,$0159      ; 
0999: 14         INC   D             ; 
099A: 01 59 01   LD    BC,$0159      ; 
099D: FF         RST   $38           ; 
099E: 05         DEC   B             ; 
099F: 01 15 01   LD    BC,$0115      ; 
09A2: 35         DEC   (HL)          ; 
09A3: 01 65 01   LD    BC,$0165      ; 
09A6: A5         AND   L             ; 
09A7: 01 65 01   LD    BC,$0165      ; 
09AA: 35         DEC   (HL)          ; 
09AB: 01 25 02   LD    BC,$0225      ; 
09AE: 15         DEC   D             ; 
09AF: 02         LD    (BC),A        ; 
09B0: 05         DEC   B             ; 
09B1: 03         INC   BC            ; 
09B2: 06 03      LD    B,$03         ; 
09B4: 07         RLCA                ; 
09B5: 04         INC   B             ; 
09B6: 08         EX    AF,AF'        ; 
09B7: 04         INC   B             ; 
09B8: 09         ADD   HL,BC         ; 
09B9: 08         EX    AF,AF'        ; 
09BA: 0A         LD    A,(BC)        ; 
09BB: 08         EX    AF,AF'        ; 
09BC: 09         ADD   HL,BC         ; 
09BD: 08         EX    AF,AF'        ; 
09BE: 0A         LD    A,(BC)        ; 
09BF: 08         EX    AF,AF'        ; 
09C0: 09         ADD   HL,BC         ; 
09C1: 08         EX    AF,AF'        ; 
09C2: 0A         LD    A,(BC)        ; 
09C3: 08         EX    AF,AF'        ; 
09C4: 09         ADD   HL,BC         ; 
09C5: 08         EX    AF,AF'        ; 
09C6: 0A         LD    A,(BC)        ; 
09C7: 08         EX    AF,AF'        ; 
09C8: 09         ADD   HL,BC         ; 
09C9: 08         EX    AF,AF'        ; 
09CA: 0A         LD    A,(BC)        ; 
09CB: 08         EX    AF,AF'        ; 
09CC: 09         ADD   HL,BC         ; 
09CD: 08         EX    AF,AF'        ; 
09CE: 0A         LD    A,(BC)        ; 
09CF: 08         EX    AF,AF'        ; 
09D0: 09         ADD   HL,BC         ; 
09D1: 08         EX    AF,AF'        ; 
09D2: 0A         LD    A,(BC)        ; 
09D3: 08         EX    AF,AF'        ; 
09D4: 09         ADD   HL,BC         ; 
09D5: 08         EX    AF,AF'        ; 
09D6: 0A         LD    A,(BC)        ; 
09D7: 08         EX    AF,AF'        ; 
09D8: FF         RST   $38           ; 
09D9: 05         DEC   B             ; 
09DA: 01 76 01   LD    BC,$0176      ; 
09DD: 46         LD    B,(HL)        ; 
09DE: 01 06 01   LD    BC,$0106      ; 
09E1: 77         LD    (HL),A        ; 
09E2: 01 06 01   LD    BC,$0106      ; 
09E5: 46         LD    B,(HL)        ; 
09E6: 01 76 01   LD    BC,$0176      ; 
09E9: 05         DEC   B             ; 
09EA: 01 FF 26   LD    BC,$26FF      ; 
09ED: 01 56 01   LD    BC,$0156      ; 
09F0: 76         HALT                ; 
09F1: 01 96 01   LD    BC,$0196      ; 
09F4: 05         DEC   B             ; 
09F5: 01 25 01   LD    BC,$0125      ; 
09F8: 26 01      LD    H,$01         ; 
09FA: 56         LD    D,(HL)        ; 
09FB: 01 76 01   LD    BC,$0176      ; 
09FE: 96         SUB   (HL)          ; 
09FF: 01 05 01   LD    BC,$0105      ; 
0A02: 25         DEC   H             ; 
0A03: 01 26 01   LD    BC,$0126      ; 
0A06: 56         LD    D,(HL)        ; 
0A07: 01 76 01   LD    BC,$0176      ; 
0A0A: 96         SUB   (HL)          ; 
0A0B: 01 05 01   LD    BC,$0105      ; 
0A0E: 25         DEC   H             ; 
0A0F: 01 FF 06   LD    BC,$06FF      ; 
0A12: 01 05 01   LD    BC,$0105      ; 
0A15: B6         OR    (HL)          ; 
0A16: 01 05 01   LD    BC,$0105      ; 
0A19: 45         LD    B,L           ; 
0A1A: 01 05 01   LD    BC,$0105      ; 
0A1D: B6         OR    (HL)          ; 
0A1E: 01 05 01   LD    BC,$0105      ; 
0A21: 06 01      LD    B,$01         ; 
0A23: 05         DEC   B             ; 
0A24: 01 A6 01   LD    BC,$01A6      ; 
0A27: 05         DEC   B             ; 
0A28: 01 45 01   LD    BC,$0145      ; 
0A2B: 05         DEC   B             ; 
0A2C: 01 A6 01   LD    BC,$01A6      ; 
0A2F: 05         DEC   B             ; 
0A30: 01 06 01   LD    BC,$0106      ; 
0A33: 05         DEC   B             ; 
0A34: 01 96 01   LD    BC,$0196      ; 
0A37: 05         DEC   B             ; 
0A38: 01 45 01   LD    BC,$0145      ; 
0A3B: 05         DEC   B             ; 
0A3C: 01 96 01   LD    BC,$0196      ; 
0A3F: 05         DEC   B             ; 
0A40: 01 06 01   LD    BC,$0106      ; 
0A43: 05         DEC   B             ; 
0A44: 01 86 01   LD    BC,$0186      ; 
0A47: 05         DEC   B             ; 
0A48: 01 45 01   LD    BC,$0145      ; 
0A4B: 05         DEC   B             ; 
0A4C: 01 86 01   LD    BC,$0186      ; 
0A4F: 05         DEC   B             ; 
0A50: 01 FF E3   LD    BC,$E3FF      ; 
0A53: 11 71 85   LD    DE,$8571      ; 
0A56: 21 00 00   LD    HL,$0000      ; 
0A59: 0E 10      LD    C,$10         ; 
0A5B: 06 00      LD    B,$00         ; 
0A5D: 3E 01      LD    A,$01         ; 
0A5F: 32 22 68   LD    ($6822),A     ; 
0A62: 78         LD    A,B           ; 
0A63: 86         ADD   A,(HL)        ; 
0A64: 12         LD    (DE),A        ; 
0A65: 23         INC   HL            ; 
0A66: 47         LD    B,A           ; 
0A67: 79         LD    A,C           ; 
0A68: BC         CP    H             ; 
0A69: 20 F2      JR    NZ,$A5D       ; 
0A6B: C9         RET                 ; 
0A6C: FF         RST   $38           ; 
0A6D: FF         RST   $38           ; 
0A6E: FF         RST   $38           ; 
0A6F: FF         RST   $38           ; 
0A70: FF         RST   $38           ; 
0A71: FF         RST   $38           ; 
0A72: FF         RST   $38           ; 
0A73: FF         RST   $38           ; 
0A74: FF         RST   $38           ; 
0A75: FF         RST   $38           ; 
0A76: FF         RST   $38           ; 
0A77: FF         RST   $38           ; 
0A78: FF         RST   $38           ; 
0A79: FF         RST   $38           ; 
0A7A: FF         RST   $38           ; 
0A7B: FF         RST   $38           ; 
0A7C: FF         RST   $38           ; 
0A7D: FF         RST   $38           ; 
0A7E: FF         RST   $38           ; 
0A7F: FF         RST   $38           ; 
0A80: FF         RST   $38           ; 
0A81: FF         RST   $38           ; 
0A82: FF         RST   $38           ; 
0A83: FF         RST   $38           ; 
0A84: FF         RST   $38           ; 
0A85: FF         RST   $38           ; 
0A86: FF         RST   $38           ; 
0A87: FF         RST   $38           ; 
0A88: FF         RST   $38           ; 
0A89: FF         RST   $38           ; 
0A8A: FF         RST   $38           ; 
0A8B: FF         RST   $38           ; 
0A8C: FF         RST   $38           ; 
0A8D: FF         RST   $38           ; 
0A8E: FF         RST   $38           ; 
0A8F: FF         RST   $38           ; 
0A90: FF         RST   $38           ; 
0A91: FF         RST   $38           ; 
0A92: FF         RST   $38           ; 
0A93: FF         RST   $38           ; 
0A94: FF         RST   $38           ; 
0A95: FF         RST   $38           ; 
0A96: FF         RST   $38           ; 
0A97: FF         RST   $38           ; 
0A98: FF         RST   $38           ; 
0A99: FF         RST   $38           ; 
0A9A: FF         RST   $38           ; 
0A9B: FF         RST   $38           ; 
0A9C: FF         RST   $38           ; 
0A9D: FF         RST   $38           ; 
0A9E: FF         RST   $38           ; 
0A9F: FF         RST   $38           ; 
0AA0: FF         RST   $38           ; 
0AA1: FF         RST   $38           ; 
0AA2: FF         RST   $38           ; 
0AA3: FF         RST   $38           ; 
0AA4: FF         RST   $38           ; 
0AA5: FF         RST   $38           ; 
0AA6: FF         RST   $38           ; 
0AA7: FF         RST   $38           ; 
0AA8: FF         RST   $38           ; 
0AA9: FF         RST   $38           ; 
0AAA: FF         RST   $38           ; 
0AAB: FF         RST   $38           ; 
0AAC: FF         RST   $38           ; 
0AAD: FF         RST   $38           ; 
0AAE: FF         RST   $38           ; 
0AAF: FF         RST   $38           ; 
0AB0: FF         RST   $38           ; 
0AB1: FF         RST   $38           ; 
0AB2: FF         RST   $38           ; 
0AB3: FF         RST   $38           ; 
0AB4: FF         RST   $38           ; 
0AB5: FF         RST   $38           ; 
0AB6: FF         RST   $38           ; 
0AB7: FF         RST   $38           ; 
0AB8: FF         RST   $38           ; 
0AB9: FF         RST   $38           ; 
0ABA: FF         RST   $38           ; 
0ABB: FF         RST   $38           ; 
0ABC: FF         RST   $38           ; 
0ABD: FF         RST   $38           ; 
0ABE: FF         RST   $38           ; 
0ABF: FF         RST   $38           ; 
0AC0: FF         RST   $38           ; 
0AC1: FF         RST   $38           ; 
0AC2: FF         RST   $38           ; 
0AC3: FF         RST   $38           ; 
0AC4: FF         RST   $38           ; 
0AC5: FF         RST   $38           ; 
0AC6: FF         RST   $38           ; 
0AC7: FF         RST   $38           ; 
0AC8: FF         RST   $38           ; 
0AC9: FF         RST   $38           ; 
0ACA: FF         RST   $38           ; 
0ACB: FF         RST   $38           ; 
0ACC: FF         RST   $38           ; 
0ACD: FF         RST   $38           ; 
0ACE: FF         RST   $38           ; 
0ACF: FF         RST   $38           ; 
0AD0: FF         RST   $38           ; 
0AD1: FF         RST   $38           ; 
0AD2: FF         RST   $38           ; 
0AD3: FF         RST   $38           ; 
0AD4: FF         RST   $38           ; 
0AD5: FF         RST   $38           ; 
0AD6: FF         RST   $38           ; 
0AD7: FF         RST   $38           ; 
0AD8: FF         RST   $38           ; 
0AD9: FF         RST   $38           ; 
0ADA: FF         RST   $38           ; 
0ADB: FF         RST   $38           ; 
0ADC: FF         RST   $38           ; 
0ADD: FF         RST   $38           ; 
0ADE: FF         RST   $38           ; 
0ADF: FF         RST   $38           ; 
0AE0: FF         RST   $38           ; 
0AE1: FF         RST   $38           ; 
0AE2: FF         RST   $38           ; 
0AE3: FF         RST   $38           ; 
0AE4: FF         RST   $38           ; 
0AE5: FF         RST   $38           ; 
0AE6: FF         RST   $38           ; 
0AE7: FF         RST   $38           ; 
0AE8: FF         RST   $38           ; 
0AE9: FF         RST   $38           ; 
0AEA: FF         RST   $38           ; 
0AEB: FF         RST   $38           ; 
0AEC: FF         RST   $38           ; 
0AED: FF         RST   $38           ; 
0AEE: FF         RST   $38           ; 
0AEF: FF         RST   $38           ; 
0AF0: FF         RST   $38           ; 
0AF1: FF         RST   $38           ; 
0AF2: FF         RST   $38           ; 
0AF3: FF         RST   $38           ; 
0AF4: FF         RST   $38           ; 
0AF5: FF         RST   $38           ; 
0AF6: FF         RST   $38           ; 
0AF7: FF         RST   $38           ; 
0AF8: FF         RST   $38           ; 
0AF9: FF         RST   $38           ; 
0AFA: FF         RST   $38           ; 
0AFB: FF         RST   $38           ; 
0AFC: FF         RST   $38           ; 
0AFD: FF         RST   $38           ; 
0AFE: FF         RST   $38           ; 
0AFF: FF         RST   $38           ; 
0B00: FF         RST   $38           ; 
0B01: FF         RST   $38           ; 
0B02: FF         RST   $38           ; 
0B03: FF         RST   $38           ; 
0B04: FF         RST   $38           ; 
0B05: FF         RST   $38           ; 
0B06: FF         RST   $38           ; 
0B07: FF         RST   $38           ; 
0B08: FF         RST   $38           ; 
0B09: FF         RST   $38           ; 
0B0A: FF         RST   $38           ; 
0B0B: FF         RST   $38           ; 
0B0C: FF         RST   $38           ; 
0B0D: FF         RST   $38           ; 
0B0E: FF         RST   $38           ; 
0B0F: FF         RST   $38           ; 
0B10: FF         RST   $38           ; 
0B11: FF         RST   $38           ; 
0B12: FF         RST   $38           ; 
0B13: FF         RST   $38           ; 
0B14: FF         RST   $38           ; 
0B15: FF         RST   $38           ; 
0B16: FF         RST   $38           ; 
0B17: FF         RST   $38           ; 
0B18: FF         RST   $38           ; 
0B19: FF         RST   $38           ; 
0B1A: FF         RST   $38           ; 
0B1B: FF         RST   $38           ; 
0B1C: FF         RST   $38           ; 
0B1D: FF         RST   $38           ; 
0B1E: FF         RST   $38           ; 
0B1F: FF         RST   $38           ; 
0B20: FF         RST   $38           ; 
0B21: FF         RST   $38           ; 
0B22: FF         RST   $38           ; 
0B23: FF         RST   $38           ; 
0B24: FF         RST   $38           ; 
0B25: FF         RST   $38           ; 
0B26: FF         RST   $38           ; 
0B27: FF         RST   $38           ; 
0B28: FF         RST   $38           ; 
0B29: FF         RST   $38           ; 
0B2A: FF         RST   $38           ; 
0B2B: FF         RST   $38           ; 
0B2C: FF         RST   $38           ; 
0B2D: FF         RST   $38           ; 
0B2E: FF         RST   $38           ; 
0B2F: FF         RST   $38           ; 
0B30: FF         RST   $38           ; 
0B31: FF         RST   $38           ; 
0B32: FF         RST   $38           ; 
0B33: FF         RST   $38           ; 
0B34: FF         RST   $38           ; 
0B35: FF         RST   $38           ; 
0B36: FF         RST   $38           ; 
0B37: FF         RST   $38           ; 
0B38: FF         RST   $38           ; 
0B39: FF         RST   $38           ; 
0B3A: FF         RST   $38           ; 
0B3B: FF         RST   $38           ; 
0B3C: FF         RST   $38           ; 
0B3D: FF         RST   $38           ; 
0B3E: FF         RST   $38           ; 
0B3F: FF         RST   $38           ; 
0B40: FF         RST   $38           ; 
0B41: FF         RST   $38           ; 
0B42: FF         RST   $38           ; 
0B43: FF         RST   $38           ; 
0B44: FF         RST   $38           ; 
0B45: FF         RST   $38           ; 
0B46: FF         RST   $38           ; 
0B47: FF         RST   $38           ; 
0B48: FF         RST   $38           ; 
0B49: FF         RST   $38           ; 
0B4A: FF         RST   $38           ; 
0B4B: FF         RST   $38           ; 
0B4C: FF         RST   $38           ; 
0B4D: FF         RST   $38           ; 
0B4E: FF         RST   $38           ; 
0B4F: FF         RST   $38           ; 
0B50: FF         RST   $38           ; 
0B51: FF         RST   $38           ; 
0B52: FF         RST   $38           ; 
0B53: FF         RST   $38           ; 
0B54: FF         RST   $38           ; 
0B55: FF         RST   $38           ; 
0B56: FF         RST   $38           ; 
0B57: FF         RST   $38           ; 
0B58: FF         RST   $38           ; 
0B59: FF         RST   $38           ; 
0B5A: FF         RST   $38           ; 
0B5B: FF         RST   $38           ; 
0B5C: FF         RST   $38           ; 
0B5D: FF         RST   $38           ; 
0B5E: FF         RST   $38           ; 
0B5F: FF         RST   $38           ; 
0B60: FF         RST   $38           ; 
0B61: FF         RST   $38           ; 
0B62: FF         RST   $38           ; 
0B63: FF         RST   $38           ; 
0B64: FF         RST   $38           ; 
0B65: FF         RST   $38           ; 
0B66: FF         RST   $38           ; 
0B67: FF         RST   $38           ; 
0B68: FF         RST   $38           ; 
0B69: FF         RST   $38           ; 
0B6A: FF         RST   $38           ; 
0B6B: FF         RST   $38           ; 
0B6C: FF         RST   $38           ; 
0B6D: FF         RST   $38           ; 
0B6E: FF         RST   $38           ; 
0B6F: FF         RST   $38           ; 
0B70: FF         RST   $38           ; 
0B71: FF         RST   $38           ; 
0B72: FF         RST   $38           ; 
0B73: FF         RST   $38           ; 
0B74: FF         RST   $38           ; 
0B75: FF         RST   $38           ; 
0B76: FF         RST   $38           ; 
0B77: FF         RST   $38           ; 
0B78: FF         RST   $38           ; 
0B79: FF         RST   $38           ; 
0B7A: FF         RST   $38           ; 
0B7B: FF         RST   $38           ; 
0B7C: FF         RST   $38           ; 
0B7D: FF         RST   $38           ; 
0B7E: FF         RST   $38           ; 
0B7F: FF         RST   $38           ; 
0B80: FF         RST   $38           ; 
0B81: FF         RST   $38           ; 
0B82: FF         RST   $38           ; 
0B83: FF         RST   $38           ; 
0B84: FF         RST   $38           ; 
0B85: FF         RST   $38           ; 
0B86: FF         RST   $38           ; 
0B87: FF         RST   $38           ; 
0B88: FF         RST   $38           ; 
0B89: FF         RST   $38           ; 
0B8A: FF         RST   $38           ; 
0B8B: FF         RST   $38           ; 
0B8C: FF         RST   $38           ; 
0B8D: FF         RST   $38           ; 
0B8E: FF         RST   $38           ; 
0B8F: FF         RST   $38           ; 
0B90: FF         RST   $38           ; 
0B91: FF         RST   $38           ; 
0B92: FF         RST   $38           ; 
0B93: FF         RST   $38           ; 
0B94: FF         RST   $38           ; 
0B95: FF         RST   $38           ; 
0B96: FF         RST   $38           ; 
0B97: FF         RST   $38           ; 
0B98: FF         RST   $38           ; 
0B99: FF         RST   $38           ; 
0B9A: FF         RST   $38           ; 
0B9B: FF         RST   $38           ; 
0B9C: FF         RST   $38           ; 
0B9D: FF         RST   $38           ; 
0B9E: FF         RST   $38           ; 
0B9F: FF         RST   $38           ; 
0BA0: FF         RST   $38           ; 
0BA1: FF         RST   $38           ; 
0BA2: FF         RST   $38           ; 
0BA3: FF         RST   $38           ; 
0BA4: FF         RST   $38           ; 
0BA5: FF         RST   $38           ; 
0BA6: FF         RST   $38           ; 
0BA7: FF         RST   $38           ; 
0BA8: FF         RST   $38           ; 
0BA9: FF         RST   $38           ; 
0BAA: FF         RST   $38           ; 
0BAB: FF         RST   $38           ; 
0BAC: FF         RST   $38           ; 
0BAD: FF         RST   $38           ; 
0BAE: FF         RST   $38           ; 
0BAF: FF         RST   $38           ; 
0BB0: FF         RST   $38           ; 
0BB1: FF         RST   $38           ; 
0BB2: FF         RST   $38           ; 
0BB3: FF         RST   $38           ; 
0BB4: FF         RST   $38           ; 
0BB5: FF         RST   $38           ; 
0BB6: FF         RST   $38           ; 
0BB7: FF         RST   $38           ; 
0BB8: FF         RST   $38           ; 
0BB9: FF         RST   $38           ; 
0BBA: FF         RST   $38           ; 
0BBB: FF         RST   $38           ; 
0BBC: FF         RST   $38           ; 
0BBD: FF         RST   $38           ; 
0BBE: FF         RST   $38           ; 
0BBF: FF         RST   $38           ; 
0BC0: FF         RST   $38           ; 
0BC1: FF         RST   $38           ; 
0BC2: FF         RST   $38           ; 
0BC3: FF         RST   $38           ; 
0BC4: FF         RST   $38           ; 
0BC5: FF         RST   $38           ; 
0BC6: FF         RST   $38           ; 
0BC7: FF         RST   $38           ; 
0BC8: FF         RST   $38           ; 
0BC9: FF         RST   $38           ; 
0BCA: FF         RST   $38           ; 
0BCB: FF         RST   $38           ; 
0BCC: FF         RST   $38           ; 
0BCD: FF         RST   $38           ; 
0BCE: FF         RST   $38           ; 
0BCF: FF         RST   $38           ; 
0BD0: FF         RST   $38           ; 
0BD1: FF         RST   $38           ; 
0BD2: FF         RST   $38           ; 
0BD3: FF         RST   $38           ; 
0BD4: FF         RST   $38           ; 
0BD5: FF         RST   $38           ; 
0BD6: FF         RST   $38           ; 
0BD7: FF         RST   $38           ; 
0BD8: FF         RST   $38           ; 
0BD9: FF         RST   $38           ; 
0BDA: FF         RST   $38           ; 
0BDB: FF         RST   $38           ; 
0BDC: FF         RST   $38           ; 
0BDD: FF         RST   $38           ; 
0BDE: FF         RST   $38           ; 
0BDF: FF         RST   $38           ; 
0BE0: FF         RST   $38           ; 
0BE1: FF         RST   $38           ; 
0BE2: FF         RST   $38           ; 
0BE3: FF         RST   $38           ; 
0BE4: FF         RST   $38           ; 
0BE5: FF         RST   $38           ; 
0BE6: FF         RST   $38           ; 
0BE7: FF         RST   $38           ; 
0BE8: FF         RST   $38           ; 
0BE9: FF         RST   $38           ; 
0BEA: FF         RST   $38           ; 
0BEB: FF         RST   $38           ; 
0BEC: FF         RST   $38           ; 
0BED: FF         RST   $38           ; 
0BEE: FF         RST   $38           ; 
0BEF: FF         RST   $38           ; 
0BF0: FF         RST   $38           ; 
0BF1: FF         RST   $38           ; 
0BF2: FF         RST   $38           ; 
0BF3: FF         RST   $38           ; 
0BF4: FF         RST   $38           ; 
0BF5: FF         RST   $38           ; 
0BF6: FF         RST   $38           ; 
0BF7: FF         RST   $38           ; 
0BF8: FF         RST   $38           ; 
0BF9: FF         RST   $38           ; 
0BFA: FF         RST   $38           ; 
0BFB: FF         RST   $38           ; 
0BFC: FF         RST   $38           ; 
0BFD: FF         RST   $38           ; 
0BFE: FF         RST   $38           ; 
0BFF: FF         RST   $38           ; 
0C00: FF         RST   $38           ; 
0C01: FF         RST   $38           ; 
0C02: FF         RST   $38           ; 
0C03: FF         RST   $38           ; 
0C04: FF         RST   $38           ; 
0C05: FF         RST   $38           ; 
0C06: FF         RST   $38           ; 
0C07: FF         RST   $38           ; 
0C08: FF         RST   $38           ; 
0C09: FF         RST   $38           ; 
0C0A: FF         RST   $38           ; 
0C0B: FF         RST   $38           ; 
0C0C: FF         RST   $38           ; 
0C0D: FF         RST   $38           ; 
0C0E: FF         RST   $38           ; 
0C0F: FF         RST   $38           ; 
0C10: FF         RST   $38           ; 
0C11: FF         RST   $38           ; 
0C12: FF         RST   $38           ; 
0C13: FF         RST   $38           ; 
0C14: FF         RST   $38           ; 
0C15: FF         RST   $38           ; 
0C16: FF         RST   $38           ; 
0C17: FF         RST   $38           ; 
0C18: FF         RST   $38           ; 
0C19: FF         RST   $38           ; 
0C1A: FF         RST   $38           ; 
0C1B: FF         RST   $38           ; 
0C1C: FF         RST   $38           ; 
0C1D: FF         RST   $38           ; 
0C1E: FF         RST   $38           ; 
0C1F: FF         RST   $38           ; 
0C20: FF         RST   $38           ; 
0C21: FF         RST   $38           ; 
0C22: FF         RST   $38           ; 
0C23: FF         RST   $38           ; 
0C24: FF         RST   $38           ; 
0C25: FF         RST   $38           ; 
0C26: FF         RST   $38           ; 
0C27: FF         RST   $38           ; 
0C28: FF         RST   $38           ; 
0C29: FF         RST   $38           ; 
0C2A: FF         RST   $38           ; 
0C2B: FF         RST   $38           ; 
0C2C: FF         RST   $38           ; 
0C2D: FF         RST   $38           ; 
0C2E: FF         RST   $38           ; 
0C2F: FF         RST   $38           ; 
0C30: FF         RST   $38           ; 
0C31: FF         RST   $38           ; 
0C32: FF         RST   $38           ; 
0C33: FF         RST   $38           ; 
0C34: FF         RST   $38           ; 
0C35: FF         RST   $38           ; 
0C36: FF         RST   $38           ; 
0C37: FF         RST   $38           ; 
0C38: FF         RST   $38           ; 
0C39: FF         RST   $38           ; 
0C3A: FF         RST   $38           ; 
0C3B: FF         RST   $38           ; 
0C3C: FF         RST   $38           ; 
0C3D: FF         RST   $38           ; 
0C3E: FF         RST   $38           ; 
0C3F: FF         RST   $38           ; 
0C40: FF         RST   $38           ; 
0C41: FF         RST   $38           ; 
0C42: FF         RST   $38           ; 
0C43: FF         RST   $38           ; 
0C44: FF         RST   $38           ; 
0C45: FF         RST   $38           ; 
0C46: FF         RST   $38           ; 
0C47: FF         RST   $38           ; 
0C48: FF         RST   $38           ; 
0C49: FF         RST   $38           ; 
0C4A: FF         RST   $38           ; 
0C4B: FF         RST   $38           ; 
0C4C: FF         RST   $38           ; 
0C4D: FF         RST   $38           ; 
0C4E: FF         RST   $38           ; 
0C4F: FF         RST   $38           ; 
0C50: FF         RST   $38           ; 
0C51: FF         RST   $38           ; 
0C52: FF         RST   $38           ; 
0C53: FF         RST   $38           ; 
0C54: FF         RST   $38           ; 
0C55: FF         RST   $38           ; 
0C56: FF         RST   $38           ; 
0C57: FF         RST   $38           ; 
0C58: FF         RST   $38           ; 
0C59: FF         RST   $38           ; 
0C5A: FF         RST   $38           ; 
0C5B: FF         RST   $38           ; 
0C5C: FF         RST   $38           ; 
0C5D: FF         RST   $38           ; 
0C5E: FF         RST   $38           ; 
0C5F: FF         RST   $38           ; 
0C60: FF         RST   $38           ; 
0C61: FF         RST   $38           ; 
0C62: FF         RST   $38           ; 
0C63: FF         RST   $38           ; 
0C64: FF         RST   $38           ; 
0C65: FF         RST   $38           ; 
0C66: FF         RST   $38           ; 
0C67: FF         RST   $38           ; 
0C68: FF         RST   $38           ; 
0C69: FF         RST   $38           ; 
0C6A: FF         RST   $38           ; 
0C6B: FF         RST   $38           ; 
0C6C: FF         RST   $38           ; 
0C6D: FF         RST   $38           ; 
0C6E: FF         RST   $38           ; 
0C6F: FF         RST   $38           ; 
0C70: FF         RST   $38           ; 
0C71: FF         RST   $38           ; 
0C72: FF         RST   $38           ; 
0C73: FF         RST   $38           ; 
0C74: FF         RST   $38           ; 
0C75: FF         RST   $38           ; 
0C76: FF         RST   $38           ; 
0C77: FF         RST   $38           ; 
0C78: FF         RST   $38           ; 
0C79: FF         RST   $38           ; 
0C7A: FF         RST   $38           ; 
0C7B: FF         RST   $38           ; 
0C7C: FF         RST   $38           ; 
0C7D: FF         RST   $38           ; 
0C7E: FF         RST   $38           ; 
0C7F: FF         RST   $38           ; 
0C80: FF         RST   $38           ; 
0C81: FF         RST   $38           ; 
0C82: FF         RST   $38           ; 
0C83: FF         RST   $38           ; 
0C84: FF         RST   $38           ; 
0C85: FF         RST   $38           ; 
0C86: FF         RST   $38           ; 
0C87: FF         RST   $38           ; 
0C88: FF         RST   $38           ; 
0C89: FF         RST   $38           ; 
0C8A: FF         RST   $38           ; 
0C8B: FF         RST   $38           ; 
0C8C: FF         RST   $38           ; 
0C8D: FF         RST   $38           ; 
0C8E: FF         RST   $38           ; 
0C8F: FF         RST   $38           ; 
0C90: FF         RST   $38           ; 
0C91: FF         RST   $38           ; 
0C92: FF         RST   $38           ; 
0C93: FF         RST   $38           ; 
0C94: FF         RST   $38           ; 
0C95: FF         RST   $38           ; 
0C96: FF         RST   $38           ; 
0C97: FF         RST   $38           ; 
0C98: FF         RST   $38           ; 
0C99: FF         RST   $38           ; 
0C9A: FF         RST   $38           ; 
0C9B: FF         RST   $38           ; 
0C9C: FF         RST   $38           ; 
0C9D: FF         RST   $38           ; 
0C9E: FF         RST   $38           ; 
0C9F: FF         RST   $38           ; 
0CA0: FF         RST   $38           ; 
0CA1: FF         RST   $38           ; 
0CA2: FF         RST   $38           ; 
0CA3: FF         RST   $38           ; 
0CA4: FF         RST   $38           ; 
0CA5: FF         RST   $38           ; 
0CA6: FF         RST   $38           ; 
0CA7: FF         RST   $38           ; 
0CA8: FF         RST   $38           ; 
0CA9: FF         RST   $38           ; 
0CAA: FF         RST   $38           ; 
0CAB: FF         RST   $38           ; 
0CAC: FF         RST   $38           ; 
0CAD: FF         RST   $38           ; 
0CAE: FF         RST   $38           ; 
0CAF: FF         RST   $38           ; 
0CB0: FF         RST   $38           ; 
0CB1: FF         RST   $38           ; 
0CB2: FF         RST   $38           ; 
0CB3: FF         RST   $38           ; 
0CB4: FF         RST   $38           ; 
0CB5: FF         RST   $38           ; 
0CB6: FF         RST   $38           ; 
0CB7: FF         RST   $38           ; 
0CB8: FF         RST   $38           ; 
0CB9: FF         RST   $38           ; 
0CBA: FF         RST   $38           ; 
0CBB: FF         RST   $38           ; 
0CBC: FF         RST   $38           ; 
0CBD: FF         RST   $38           ; 
0CBE: FF         RST   $38           ; 
0CBF: FF         RST   $38           ; 
0CC0: FF         RST   $38           ; 
0CC1: FF         RST   $38           ; 
0CC2: FF         RST   $38           ; 
0CC3: FF         RST   $38           ; 
0CC4: FF         RST   $38           ; 
0CC5: FF         RST   $38           ; 
0CC6: FF         RST   $38           ; 
0CC7: FF         RST   $38           ; 
0CC8: FF         RST   $38           ; 
0CC9: FF         RST   $38           ; 
0CCA: FF         RST   $38           ; 
0CCB: FF         RST   $38           ; 
0CCC: FF         RST   $38           ; 
0CCD: FF         RST   $38           ; 
0CCE: FF         RST   $38           ; 
0CCF: FF         RST   $38           ; 
0CD0: FF         RST   $38           ; 
0CD1: FF         RST   $38           ; 
0CD2: FF         RST   $38           ; 
0CD3: FF         RST   $38           ; 
0CD4: FF         RST   $38           ; 
0CD5: FF         RST   $38           ; 
0CD6: FF         RST   $38           ; 
0CD7: FF         RST   $38           ; 
0CD8: FF         RST   $38           ; 
0CD9: FF         RST   $38           ; 
0CDA: FF         RST   $38           ; 
0CDB: FF         RST   $38           ; 
0CDC: FF         RST   $38           ; 
0CDD: FF         RST   $38           ; 
0CDE: FF         RST   $38           ; 
0CDF: FF         RST   $38           ; 
0CE0: FF         RST   $38           ; 
0CE1: FF         RST   $38           ; 
0CE2: FF         RST   $38           ; 
0CE3: FF         RST   $38           ; 
0CE4: FF         RST   $38           ; 
0CE5: FF         RST   $38           ; 
0CE6: FF         RST   $38           ; 
0CE7: FF         RST   $38           ; 
0CE8: FF         RST   $38           ; 
0CE9: FF         RST   $38           ; 
0CEA: FF         RST   $38           ; 
0CEB: FF         RST   $38           ; 
0CEC: FF         RST   $38           ; 
0CED: FF         RST   $38           ; 
0CEE: FF         RST   $38           ; 
0CEF: FF         RST   $38           ; 
0CF0: FF         RST   $38           ; 
0CF1: FF         RST   $38           ; 
0CF2: FF         RST   $38           ; 
0CF3: FF         RST   $38           ; 
0CF4: FF         RST   $38           ; 
0CF5: FF         RST   $38           ; 
0CF6: FF         RST   $38           ; 
0CF7: FF         RST   $38           ; 
0CF8: FF         RST   $38           ; 
0CF9: FF         RST   $38           ; 
0CFA: FF         RST   $38           ; 
0CFB: FF         RST   $38           ; 
0CFC: FF         RST   $38           ; 
0CFD: FF         RST   $38           ; 
0CFE: FF         RST   $38           ; 
0CFF: FF         RST   $38           ; 
0D00: FF         RST   $38           ; 
0D01: FF         RST   $38           ; 
0D02: FF         RST   $38           ; 
0D03: FF         RST   $38           ; 
0D04: FF         RST   $38           ; 
0D05: FF         RST   $38           ; 
0D06: FF         RST   $38           ; 
0D07: FF         RST   $38           ; 
0D08: FF         RST   $38           ; 
0D09: FF         RST   $38           ; 
0D0A: FF         RST   $38           ; 
0D0B: FF         RST   $38           ; 
0D0C: FF         RST   $38           ; 
0D0D: FF         RST   $38           ; 
0D0E: FF         RST   $38           ; 
0D0F: FF         RST   $38           ; 
0D10: FF         RST   $38           ; 
0D11: FF         RST   $38           ; 
0D12: FF         RST   $38           ; 
0D13: FF         RST   $38           ; 
0D14: FF         RST   $38           ; 
0D15: FF         RST   $38           ; 
0D16: FF         RST   $38           ; 
0D17: FF         RST   $38           ; 
0D18: FF         RST   $38           ; 
0D19: FF         RST   $38           ; 
0D1A: FF         RST   $38           ; 
0D1B: FF         RST   $38           ; 
0D1C: FF         RST   $38           ; 
0D1D: FF         RST   $38           ; 
0D1E: FF         RST   $38           ; 
0D1F: FF         RST   $38           ; 
0D20: FF         RST   $38           ; 
0D21: FF         RST   $38           ; 
0D22: FF         RST   $38           ; 
0D23: FF         RST   $38           ; 
0D24: FF         RST   $38           ; 
0D25: FF         RST   $38           ; 
0D26: FF         RST   $38           ; 
0D27: FF         RST   $38           ; 
0D28: FF         RST   $38           ; 
0D29: FF         RST   $38           ; 
0D2A: FF         RST   $38           ; 
0D2B: FF         RST   $38           ; 
0D2C: FF         RST   $38           ; 
0D2D: FF         RST   $38           ; 
0D2E: FF         RST   $38           ; 
0D2F: FF         RST   $38           ; 
0D30: FF         RST   $38           ; 
0D31: FF         RST   $38           ; 
0D32: FF         RST   $38           ; 
0D33: FF         RST   $38           ; 
0D34: FF         RST   $38           ; 
0D35: FF         RST   $38           ; 
0D36: FF         RST   $38           ; 
0D37: FF         RST   $38           ; 
0D38: FF         RST   $38           ; 
0D39: FF         RST   $38           ; 
0D3A: FF         RST   $38           ; 
0D3B: FF         RST   $38           ; 
0D3C: FF         RST   $38           ; 
0D3D: FF         RST   $38           ; 
0D3E: FF         RST   $38           ; 
0D3F: FF         RST   $38           ; 
0D40: FF         RST   $38           ; 
0D41: FF         RST   $38           ; 
0D42: FF         RST   $38           ; 
0D43: FF         RST   $38           ; 
0D44: FF         RST   $38           ; 
0D45: FF         RST   $38           ; 
0D46: FF         RST   $38           ; 
0D47: FF         RST   $38           ; 
0D48: FF         RST   $38           ; 
0D49: FF         RST   $38           ; 
0D4A: FF         RST   $38           ; 
0D4B: FF         RST   $38           ; 
0D4C: FF         RST   $38           ; 
0D4D: FF         RST   $38           ; 
0D4E: FF         RST   $38           ; 
0D4F: FF         RST   $38           ; 
0D50: FF         RST   $38           ; 
0D51: FF         RST   $38           ; 
0D52: FF         RST   $38           ; 
0D53: FF         RST   $38           ; 
0D54: FF         RST   $38           ; 
0D55: FF         RST   $38           ; 
0D56: FF         RST   $38           ; 
0D57: FF         RST   $38           ; 
0D58: FF         RST   $38           ; 
0D59: FF         RST   $38           ; 
0D5A: FF         RST   $38           ; 
0D5B: FF         RST   $38           ; 
0D5C: FF         RST   $38           ; 
0D5D: FF         RST   $38           ; 
0D5E: FF         RST   $38           ; 
0D5F: FF         RST   $38           ; 
0D60: FF         RST   $38           ; 
0D61: FF         RST   $38           ; 
0D62: FF         RST   $38           ; 
0D63: FF         RST   $38           ; 
0D64: FF         RST   $38           ; 
0D65: FF         RST   $38           ; 
0D66: FF         RST   $38           ; 
0D67: FF         RST   $38           ; 
0D68: FF         RST   $38           ; 
0D69: FF         RST   $38           ; 
0D6A: FF         RST   $38           ; 
0D6B: FF         RST   $38           ; 
0D6C: FF         RST   $38           ; 
0D6D: FF         RST   $38           ; 
0D6E: FF         RST   $38           ; 
0D6F: FF         RST   $38           ; 
0D70: FF         RST   $38           ; 
0D71: FF         RST   $38           ; 
0D72: FF         RST   $38           ; 
0D73: FF         RST   $38           ; 
0D74: FF         RST   $38           ; 
0D75: FF         RST   $38           ; 
0D76: FF         RST   $38           ; 
0D77: FF         RST   $38           ; 
0D78: FF         RST   $38           ; 
0D79: FF         RST   $38           ; 
0D7A: FF         RST   $38           ; 
0D7B: FF         RST   $38           ; 
0D7C: FF         RST   $38           ; 
0D7D: FF         RST   $38           ; 
0D7E: FF         RST   $38           ; 
0D7F: FF         RST   $38           ; 
0D80: FF         RST   $38           ; 
0D81: FF         RST   $38           ; 
0D82: FF         RST   $38           ; 
0D83: FF         RST   $38           ; 
0D84: FF         RST   $38           ; 
0D85: FF         RST   $38           ; 
0D86: FF         RST   $38           ; 
0D87: FF         RST   $38           ; 
0D88: FF         RST   $38           ; 
0D89: FF         RST   $38           ; 
0D8A: FF         RST   $38           ; 
0D8B: FF         RST   $38           ; 
0D8C: FF         RST   $38           ; 
0D8D: FF         RST   $38           ; 
0D8E: FF         RST   $38           ; 
0D8F: FF         RST   $38           ; 
0D90: FF         RST   $38           ; 
0D91: FF         RST   $38           ; 
0D92: FF         RST   $38           ; 
0D93: FF         RST   $38           ; 
0D94: FF         RST   $38           ; 
0D95: FF         RST   $38           ; 
0D96: FF         RST   $38           ; 
0D97: FF         RST   $38           ; 
0D98: FF         RST   $38           ; 
0D99: FF         RST   $38           ; 
0D9A: FF         RST   $38           ; 
0D9B: FF         RST   $38           ; 
0D9C: FF         RST   $38           ; 
0D9D: FF         RST   $38           ; 
0D9E: FF         RST   $38           ; 
0D9F: FF         RST   $38           ; 
0DA0: FF         RST   $38           ; 
0DA1: FF         RST   $38           ; 
0DA2: FF         RST   $38           ; 
0DA3: FF         RST   $38           ; 
0DA4: FF         RST   $38           ; 
0DA5: FF         RST   $38           ; 
0DA6: FF         RST   $38           ; 
0DA7: FF         RST   $38           ; 
0DA8: FF         RST   $38           ; 
0DA9: FF         RST   $38           ; 
0DAA: FF         RST   $38           ; 
0DAB: FF         RST   $38           ; 
0DAC: FF         RST   $38           ; 
0DAD: FF         RST   $38           ; 
0DAE: FF         RST   $38           ; 
0DAF: FF         RST   $38           ; 
0DB0: FF         RST   $38           ; 
0DB1: FF         RST   $38           ; 
0DB2: FF         RST   $38           ; 
0DB3: FF         RST   $38           ; 
0DB4: FF         RST   $38           ; 
0DB5: FF         RST   $38           ; 
0DB6: FF         RST   $38           ; 
0DB7: FF         RST   $38           ; 
0DB8: FF         RST   $38           ; 
0DB9: FF         RST   $38           ; 
0DBA: FF         RST   $38           ; 
0DBB: FF         RST   $38           ; 
0DBC: FF         RST   $38           ; 
0DBD: FF         RST   $38           ; 
0DBE: FF         RST   $38           ; 
0DBF: FF         RST   $38           ; 
0DC0: FF         RST   $38           ; 
0DC1: FF         RST   $38           ; 
0DC2: FF         RST   $38           ; 
0DC3: FF         RST   $38           ; 
0DC4: FF         RST   $38           ; 
0DC5: FF         RST   $38           ; 
0DC6: FF         RST   $38           ; 
0DC7: FF         RST   $38           ; 
0DC8: FF         RST   $38           ; 
0DC9: FF         RST   $38           ; 
0DCA: FF         RST   $38           ; 
0DCB: FF         RST   $38           ; 
0DCC: FF         RST   $38           ; 
0DCD: FF         RST   $38           ; 
0DCE: FF         RST   $38           ; 
0DCF: FF         RST   $38           ; 
0DD0: FF         RST   $38           ; 
0DD1: FF         RST   $38           ; 
0DD2: FF         RST   $38           ; 
0DD3: FF         RST   $38           ; 
0DD4: FF         RST   $38           ; 
0DD5: FF         RST   $38           ; 
0DD6: FF         RST   $38           ; 
0DD7: FF         RST   $38           ; 
0DD8: FF         RST   $38           ; 
0DD9: FF         RST   $38           ; 
0DDA: FF         RST   $38           ; 
0DDB: FF         RST   $38           ; 
0DDC: FF         RST   $38           ; 
0DDD: FF         RST   $38           ; 
0DDE: FF         RST   $38           ; 
0DDF: FF         RST   $38           ; 
0DE0: FF         RST   $38           ; 
0DE1: FF         RST   $38           ; 
0DE2: FF         RST   $38           ; 
0DE3: FF         RST   $38           ; 
0DE4: FF         RST   $38           ; 
0DE5: FF         RST   $38           ; 
0DE6: FF         RST   $38           ; 
0DE7: FF         RST   $38           ; 
0DE8: FF         RST   $38           ; 
0DE9: FF         RST   $38           ; 
0DEA: FF         RST   $38           ; 
0DEB: FF         RST   $38           ; 
0DEC: FF         RST   $38           ; 
0DED: FF         RST   $38           ; 
0DEE: FF         RST   $38           ; 
0DEF: FF         RST   $38           ; 
0DF0: FF         RST   $38           ; 
0DF1: FF         RST   $38           ; 
0DF2: FF         RST   $38           ; 
0DF3: FF         RST   $38           ; 
0DF4: FF         RST   $38           ; 
0DF5: FF         RST   $38           ; 
0DF6: FF         RST   $38           ; 
0DF7: FF         RST   $38           ; 
0DF8: FF         RST   $38           ; 
0DF9: FF         RST   $38           ; 
0DFA: FF         RST   $38           ; 
0DFB: FF         RST   $38           ; 
0DFC: FF         RST   $38           ; 
0DFD: FF         RST   $38           ; 
0DFE: FF         RST   $38           ; 
0DFF: FF         RST   $38           ; 
0E00: FF         RST   $38           ; 
0E01: FF         RST   $38           ; 
0E02: FF         RST   $38           ; 
0E03: FF         RST   $38           ; 
0E04: FF         RST   $38           ; 
0E05: FF         RST   $38           ; 
0E06: FF         RST   $38           ; 
0E07: FF         RST   $38           ; 
0E08: FF         RST   $38           ; 
0E09: FF         RST   $38           ; 
0E0A: FF         RST   $38           ; 
0E0B: FF         RST   $38           ; 
0E0C: FF         RST   $38           ; 
0E0D: FF         RST   $38           ; 
0E0E: FF         RST   $38           ; 
0E0F: FF         RST   $38           ; 
0E10: FF         RST   $38           ; 
0E11: FF         RST   $38           ; 
0E12: FF         RST   $38           ; 
0E13: FF         RST   $38           ; 
0E14: FF         RST   $38           ; 
0E15: FF         RST   $38           ; 
0E16: FF         RST   $38           ; 
0E17: FF         RST   $38           ; 
0E18: FF         RST   $38           ; 
0E19: FF         RST   $38           ; 
0E1A: FF         RST   $38           ; 
0E1B: FF         RST   $38           ; 
0E1C: FF         RST   $38           ; 
0E1D: FF         RST   $38           ; 
0E1E: FF         RST   $38           ; 
0E1F: FF         RST   $38           ; 
0E20: FF         RST   $38           ; 
0E21: FF         RST   $38           ; 
0E22: FF         RST   $38           ; 
0E23: FF         RST   $38           ; 
0E24: FF         RST   $38           ; 
0E25: FF         RST   $38           ; 
0E26: FF         RST   $38           ; 
0E27: FF         RST   $38           ; 
0E28: FF         RST   $38           ; 
0E29: FF         RST   $38           ; 
0E2A: FF         RST   $38           ; 
0E2B: FF         RST   $38           ; 
0E2C: FF         RST   $38           ; 
0E2D: FF         RST   $38           ; 
0E2E: FF         RST   $38           ; 
0E2F: FF         RST   $38           ; 
0E30: FF         RST   $38           ; 
0E31: FF         RST   $38           ; 
0E32: FF         RST   $38           ; 
0E33: FF         RST   $38           ; 
0E34: FF         RST   $38           ; 
0E35: FF         RST   $38           ; 
0E36: FF         RST   $38           ; 
0E37: FF         RST   $38           ; 
0E38: FF         RST   $38           ; 
0E39: FF         RST   $38           ; 
0E3A: FF         RST   $38           ; 
0E3B: FF         RST   $38           ; 
0E3C: FF         RST   $38           ; 
0E3D: FF         RST   $38           ; 
0E3E: FF         RST   $38           ; 
0E3F: FF         RST   $38           ; 
0E40: FF         RST   $38           ; 
0E41: FF         RST   $38           ; 
0E42: FF         RST   $38           ; 
0E43: FF         RST   $38           ; 
0E44: FF         RST   $38           ; 
0E45: FF         RST   $38           ; 
0E46: FF         RST   $38           ; 
0E47: FF         RST   $38           ; 
0E48: FF         RST   $38           ; 
0E49: FF         RST   $38           ; 
0E4A: FF         RST   $38           ; 
0E4B: FF         RST   $38           ; 
0E4C: FF         RST   $38           ; 
0E4D: FF         RST   $38           ; 
0E4E: FF         RST   $38           ; 
0E4F: FF         RST   $38           ; 
0E50: FF         RST   $38           ; 
0E51: FF         RST   $38           ; 
0E52: FF         RST   $38           ; 
0E53: FF         RST   $38           ; 
0E54: FF         RST   $38           ; 
0E55: FF         RST   $38           ; 
0E56: FF         RST   $38           ; 
0E57: FF         RST   $38           ; 
0E58: FF         RST   $38           ; 
0E59: FF         RST   $38           ; 
0E5A: FF         RST   $38           ; 
0E5B: FF         RST   $38           ; 
0E5C: FF         RST   $38           ; 
0E5D: FF         RST   $38           ; 
0E5E: FF         RST   $38           ; 
0E5F: FF         RST   $38           ; 
0E60: FF         RST   $38           ; 
0E61: FF         RST   $38           ; 
0E62: FF         RST   $38           ; 
0E63: FF         RST   $38           ; 
0E64: FF         RST   $38           ; 
0E65: FF         RST   $38           ; 
0E66: FF         RST   $38           ; 
0E67: FF         RST   $38           ; 
0E68: FF         RST   $38           ; 
0E69: FF         RST   $38           ; 
0E6A: FF         RST   $38           ; 
0E6B: FF         RST   $38           ; 
0E6C: FF         RST   $38           ; 
0E6D: FF         RST   $38           ; 
0E6E: FF         RST   $38           ; 
0E6F: FF         RST   $38           ; 
0E70: FF         RST   $38           ; 
0E71: FF         RST   $38           ; 
0E72: FF         RST   $38           ; 
0E73: FF         RST   $38           ; 
0E74: FF         RST   $38           ; 
0E75: FF         RST   $38           ; 
0E76: FF         RST   $38           ; 
0E77: FF         RST   $38           ; 
0E78: FF         RST   $38           ; 
0E79: FF         RST   $38           ; 
0E7A: FF         RST   $38           ; 
0E7B: FF         RST   $38           ; 
0E7C: FF         RST   $38           ; 
0E7D: FF         RST   $38           ; 
0E7E: FF         RST   $38           ; 
0E7F: FF         RST   $38           ; 
0E80: FF         RST   $38           ; 
0E81: FF         RST   $38           ; 
0E82: FF         RST   $38           ; 
0E83: FF         RST   $38           ; 
0E84: FF         RST   $38           ; 
0E85: FF         RST   $38           ; 
0E86: FF         RST   $38           ; 
0E87: FF         RST   $38           ; 
0E88: FF         RST   $38           ; 
0E89: FF         RST   $38           ; 
0E8A: FF         RST   $38           ; 
0E8B: FF         RST   $38           ; 
0E8C: FF         RST   $38           ; 
0E8D: FF         RST   $38           ; 
0E8E: FF         RST   $38           ; 
0E8F: FF         RST   $38           ; 
0E90: FF         RST   $38           ; 
0E91: FF         RST   $38           ; 
0E92: FF         RST   $38           ; 
0E93: FF         RST   $38           ; 
0E94: FF         RST   $38           ; 
0E95: FF         RST   $38           ; 
0E96: FF         RST   $38           ; 
0E97: FF         RST   $38           ; 
0E98: FF         RST   $38           ; 
0E99: FF         RST   $38           ; 
0E9A: FF         RST   $38           ; 
0E9B: FF         RST   $38           ; 
0E9C: FF         RST   $38           ; 
0E9D: FF         RST   $38           ; 
0E9E: FF         RST   $38           ; 
0E9F: FF         RST   $38           ; 
0EA0: FF         RST   $38           ; 
0EA1: FF         RST   $38           ; 
0EA2: FF         RST   $38           ; 
0EA3: FF         RST   $38           ; 
0EA4: FF         RST   $38           ; 
0EA5: FF         RST   $38           ; 
0EA6: FF         RST   $38           ; 
0EA7: FF         RST   $38           ; 
0EA8: FF         RST   $38           ; 
0EA9: FF         RST   $38           ; 
0EAA: FF         RST   $38           ; 
0EAB: FF         RST   $38           ; 
0EAC: FF         RST   $38           ; 
0EAD: FF         RST   $38           ; 
0EAE: FF         RST   $38           ; 
0EAF: FF         RST   $38           ; 
0EB0: FF         RST   $38           ; 
0EB1: FF         RST   $38           ; 
0EB2: FF         RST   $38           ; 
0EB3: FF         RST   $38           ; 
0EB4: FF         RST   $38           ; 
0EB5: FF         RST   $38           ; 
0EB6: FF         RST   $38           ; 
0EB7: FF         RST   $38           ; 
0EB8: FF         RST   $38           ; 
0EB9: FF         RST   $38           ; 
0EBA: FF         RST   $38           ; 
0EBB: FF         RST   $38           ; 
0EBC: FF         RST   $38           ; 
0EBD: FF         RST   $38           ; 
0EBE: FF         RST   $38           ; 
0EBF: FF         RST   $38           ; 
0EC0: FF         RST   $38           ; 
0EC1: FF         RST   $38           ; 
0EC2: FF         RST   $38           ; 
0EC3: FF         RST   $38           ; 
0EC4: FF         RST   $38           ; 
0EC5: FF         RST   $38           ; 
0EC6: FF         RST   $38           ; 
0EC7: FF         RST   $38           ; 
0EC8: FF         RST   $38           ; 
0EC9: FF         RST   $38           ; 
0ECA: FF         RST   $38           ; 
0ECB: FF         RST   $38           ; 
0ECC: FF         RST   $38           ; 
0ECD: FF         RST   $38           ; 
0ECE: FF         RST   $38           ; 
0ECF: FF         RST   $38           ; 
0ED0: FF         RST   $38           ; 
0ED1: FF         RST   $38           ; 
0ED2: FF         RST   $38           ; 
0ED3: FF         RST   $38           ; 
0ED4: FF         RST   $38           ; 
0ED5: FF         RST   $38           ; 
0ED6: FF         RST   $38           ; 
0ED7: FF         RST   $38           ; 
0ED8: FF         RST   $38           ; 
0ED9: FF         RST   $38           ; 
0EDA: FF         RST   $38           ; 
0EDB: FF         RST   $38           ; 
0EDC: FF         RST   $38           ; 
0EDD: FF         RST   $38           ; 
0EDE: FF         RST   $38           ; 
0EDF: FF         RST   $38           ; 
0EE0: FF         RST   $38           ; 
0EE1: FF         RST   $38           ; 
0EE2: FF         RST   $38           ; 
0EE3: FF         RST   $38           ; 
0EE4: FF         RST   $38           ; 
0EE5: FF         RST   $38           ; 
0EE6: FF         RST   $38           ; 
0EE7: FF         RST   $38           ; 
0EE8: FF         RST   $38           ; 
0EE9: FF         RST   $38           ; 
0EEA: FF         RST   $38           ; 
0EEB: FF         RST   $38           ; 
0EEC: FF         RST   $38           ; 
0EED: FF         RST   $38           ; 
0EEE: FF         RST   $38           ; 
0EEF: FF         RST   $38           ; 
0EF0: FF         RST   $38           ; 
0EF1: FF         RST   $38           ; 
0EF2: FF         RST   $38           ; 
0EF3: FF         RST   $38           ; 
0EF4: FF         RST   $38           ; 
0EF5: FF         RST   $38           ; 
0EF6: FF         RST   $38           ; 
0EF7: FF         RST   $38           ; 
0EF8: FF         RST   $38           ; 
0EF9: FF         RST   $38           ; 
0EFA: FF         RST   $38           ; 
0EFB: FF         RST   $38           ; 
0EFC: FF         RST   $38           ; 
0EFD: FF         RST   $38           ; 
0EFE: FF         RST   $38           ; 
0EFF: FF         RST   $38           ; 
0F00: FF         RST   $38           ; 
0F01: FF         RST   $38           ; 
0F02: FF         RST   $38           ; 
0F03: FF         RST   $38           ; 
0F04: FF         RST   $38           ; 
0F05: FF         RST   $38           ; 
0F06: FF         RST   $38           ; 
0F07: FF         RST   $38           ; 
0F08: FF         RST   $38           ; 
0F09: FF         RST   $38           ; 
0F0A: FF         RST   $38           ; 
0F0B: FF         RST   $38           ; 
0F0C: FF         RST   $38           ; 
0F0D: FF         RST   $38           ; 
0F0E: FF         RST   $38           ; 
0F0F: FF         RST   $38           ; 
0F10: FF         RST   $38           ; 
0F11: FF         RST   $38           ; 
0F12: FF         RST   $38           ; 
0F13: FF         RST   $38           ; 
0F14: FF         RST   $38           ; 
0F15: FF         RST   $38           ; 
0F16: FF         RST   $38           ; 
0F17: FF         RST   $38           ; 
0F18: FF         RST   $38           ; 
0F19: FF         RST   $38           ; 
0F1A: FF         RST   $38           ; 
0F1B: FF         RST   $38           ; 
0F1C: FF         RST   $38           ; 
0F1D: FF         RST   $38           ; 
0F1E: FF         RST   $38           ; 
0F1F: FF         RST   $38           ; 
0F20: FF         RST   $38           ; 
0F21: FF         RST   $38           ; 
0F22: FF         RST   $38           ; 
0F23: FF         RST   $38           ; 
0F24: FF         RST   $38           ; 
0F25: FF         RST   $38           ; 
0F26: FF         RST   $38           ; 
0F27: FF         RST   $38           ; 
0F28: FF         RST   $38           ; 
0F29: FF         RST   $38           ; 
0F2A: FF         RST   $38           ; 
0F2B: FF         RST   $38           ; 
0F2C: FF         RST   $38           ; 
0F2D: FF         RST   $38           ; 
0F2E: FF         RST   $38           ; 
0F2F: FF         RST   $38           ; 
0F30: FF         RST   $38           ; 
0F31: FF         RST   $38           ; 
0F32: FF         RST   $38           ; 
0F33: FF         RST   $38           ; 
0F34: FF         RST   $38           ; 
0F35: FF         RST   $38           ; 
0F36: FF         RST   $38           ; 
0F37: FF         RST   $38           ; 
0F38: FF         RST   $38           ; 
0F39: FF         RST   $38           ; 
0F3A: FF         RST   $38           ; 
0F3B: FF         RST   $38           ; 
0F3C: FF         RST   $38           ; 
0F3D: FF         RST   $38           ; 
0F3E: FF         RST   $38           ; 
0F3F: FF         RST   $38           ; 
0F40: FF         RST   $38           ; 
0F41: FF         RST   $38           ; 
0F42: FF         RST   $38           ; 
0F43: FF         RST   $38           ; 
0F44: FF         RST   $38           ; 
0F45: FF         RST   $38           ; 
0F46: FF         RST   $38           ; 
0F47: FF         RST   $38           ; 
0F48: FF         RST   $38           ; 
0F49: FF         RST   $38           ; 
0F4A: FF         RST   $38           ; 
0F4B: FF         RST   $38           ; 
0F4C: FF         RST   $38           ; 
0F4D: FF         RST   $38           ; 
0F4E: FF         RST   $38           ; 
0F4F: FF         RST   $38           ; 
0F50: FF         RST   $38           ; 
0F51: FF         RST   $38           ; 
0F52: FF         RST   $38           ; 
0F53: FF         RST   $38           ; 
0F54: FF         RST   $38           ; 
0F55: FF         RST   $38           ; 
0F56: FF         RST   $38           ; 
0F57: FF         RST   $38           ; 
0F58: FF         RST   $38           ; 
0F59: FF         RST   $38           ; 
0F5A: FF         RST   $38           ; 
0F5B: FF         RST   $38           ; 
0F5C: FF         RST   $38           ; 
0F5D: FF         RST   $38           ; 
0F5E: FF         RST   $38           ; 
0F5F: FF         RST   $38           ; 
0F60: FF         RST   $38           ; 
0F61: FF         RST   $38           ; 
0F62: FF         RST   $38           ; 
0F63: FF         RST   $38           ; 
0F64: FF         RST   $38           ; 
0F65: FF         RST   $38           ; 
0F66: FF         RST   $38           ; 
0F67: FF         RST   $38           ; 
0F68: FF         RST   $38           ; 
0F69: FF         RST   $38           ; 
0F6A: FF         RST   $38           ; 
0F6B: FF         RST   $38           ; 
0F6C: FF         RST   $38           ; 
0F6D: FF         RST   $38           ; 
0F6E: FF         RST   $38           ; 
0F6F: FF         RST   $38           ; 
0F70: FF         RST   $38           ; 
0F71: FF         RST   $38           ; 
0F72: FF         RST   $38           ; 
0F73: FF         RST   $38           ; 
0F74: FF         RST   $38           ; 
0F75: FF         RST   $38           ; 
0F76: FF         RST   $38           ; 
0F77: FF         RST   $38           ; 
0F78: FF         RST   $38           ; 
0F79: FF         RST   $38           ; 
0F7A: FF         RST   $38           ; 
0F7B: FF         RST   $38           ; 
0F7C: FF         RST   $38           ; 
0F7D: FF         RST   $38           ; 
0F7E: FF         RST   $38           ; 
0F7F: FF         RST   $38           ; 
0F80: FF         RST   $38           ; 
0F81: FF         RST   $38           ; 
0F82: FF         RST   $38           ; 
0F83: FF         RST   $38           ; 
0F84: FF         RST   $38           ; 
0F85: FF         RST   $38           ; 
0F86: FF         RST   $38           ; 
0F87: FF         RST   $38           ; 
0F88: FF         RST   $38           ; 
0F89: FF         RST   $38           ; 
0F8A: FF         RST   $38           ; 
0F8B: FF         RST   $38           ; 
0F8C: FF         RST   $38           ; 
0F8D: FF         RST   $38           ; 
0F8E: FF         RST   $38           ; 
0F8F: FF         RST   $38           ; 
0F90: FF         RST   $38           ; 
0F91: FF         RST   $38           ; 
0F92: FF         RST   $38           ; 
0F93: FF         RST   $38           ; 
0F94: FF         RST   $38           ; 
0F95: FF         RST   $38           ; 
0F96: FF         RST   $38           ; 
0F97: FF         RST   $38           ; 
0F98: FF         RST   $38           ; 
0F99: FF         RST   $38           ; 
0F9A: FF         RST   $38           ; 
0F9B: FF         RST   $38           ; 
0F9C: FF         RST   $38           ; 
0F9D: FF         RST   $38           ; 
0F9E: FF         RST   $38           ; 
0F9F: FF         RST   $38           ; 
0FA0: FF         RST   $38           ; 
0FA1: FF         RST   $38           ; 
0FA2: FF         RST   $38           ; 
0FA3: FF         RST   $38           ; 
0FA4: FF         RST   $38           ; 
0FA5: FF         RST   $38           ; 
0FA6: FF         RST   $38           ; 
0FA7: FF         RST   $38           ; 
0FA8: FF         RST   $38           ; 
0FA9: FF         RST   $38           ; 
0FAA: FF         RST   $38           ; 
0FAB: FF         RST   $38           ; 
0FAC: FF         RST   $38           ; 
0FAD: FF         RST   $38           ; 
0FAE: FF         RST   $38           ; 
0FAF: FF         RST   $38           ; 
0FB0: FF         RST   $38           ; 
0FB1: FF         RST   $38           ; 
0FB2: FF         RST   $38           ; 
0FB3: FF         RST   $38           ; 
0FB4: FF         RST   $38           ; 
0FB5: FF         RST   $38           ; 
0FB6: FF         RST   $38           ; 
0FB7: FF         RST   $38           ; 
0FB8: FF         RST   $38           ; 
0FB9: FF         RST   $38           ; 
0FBA: FF         RST   $38           ; 
0FBB: FF         RST   $38           ; 
0FBC: FF         RST   $38           ; 
0FBD: FF         RST   $38           ; 
0FBE: FF         RST   $38           ; 
0FBF: FF         RST   $38           ; 
0FC0: FF         RST   $38           ; 
0FC1: FF         RST   $38           ; 
0FC2: FF         RST   $38           ; 
0FC3: FF         RST   $38           ; 
0FC4: FF         RST   $38           ; 
0FC5: FF         RST   $38           ; 
0FC6: FF         RST   $38           ; 
0FC7: FF         RST   $38           ; 
0FC8: FF         RST   $38           ; 
0FC9: FF         RST   $38           ; 
0FCA: FF         RST   $38           ; 
0FCB: FF         RST   $38           ; 
0FCC: FF         RST   $38           ; 
0FCD: FF         RST   $38           ; 
0FCE: FF         RST   $38           ; 
0FCF: FF         RST   $38           ; 
0FD0: FF         RST   $38           ; 
0FD1: FF         RST   $38           ; 
0FD2: FF         RST   $38           ; 
0FD3: FF         RST   $38           ; 
0FD4: FF         RST   $38           ; 
0FD5: FF         RST   $38           ; 
0FD6: FF         RST   $38           ; 
0FD7: FF         RST   $38           ; 
0FD8: FF         RST   $38           ; 
0FD9: FF         RST   $38           ; 
0FDA: FF         RST   $38           ; 
0FDB: FF         RST   $38           ; 
0FDC: FF         RST   $38           ; 
0FDD: FF         RST   $38           ; 
0FDE: FF         RST   $38           ; 
0FDF: FF         RST   $38           ; 
0FE0: FF         RST   $38           ; 
0FE1: FF         RST   $38           ; 
0FE2: FF         RST   $38           ; 
0FE3: FF         RST   $38           ; 
0FE4: FF         RST   $38           ; 
0FE5: FF         RST   $38           ; 
0FE6: FF         RST   $38           ; 
0FE7: FF         RST   $38           ; 
0FE8: FF         RST   $38           ; 
0FE9: FF         RST   $38           ; 
0FEA: FF         RST   $38           ; 
0FEB: FF         RST   $38           ; 
0FEC: FF         RST   $38           ; 
0FED: FF         RST   $38           ; 
0FEE: FF         RST   $38           ; 
0FEF: FF         RST   $38           ; 
0FF0: FF         RST   $38           ; 
0FF1: FF         RST   $38           ; 
0FF2: FF         RST   $38           ; 
0FF3: FF         RST   $38           ; 
0FF4: FF         RST   $38           ; 
0FF5: FF         RST   $38           ; 
0FF6: FF         RST   $38           ; 
0FF7: FF         RST   $38           ; 
0FF8: FF         RST   $38           ; 
0FF9: FF         RST   $38           ; 
0FFA: FF         RST   $38           ; 
0FFB: FF         RST   $38           ; 
0FFC: FF         RST   $38           ; 
0FFD: FF         RST   $38           ; 
0FFE: FF         RST   $38           ; 
0FFF: FF         RST   $38           ; 
