;##$OriginalBinary joel.bin
;##$CPU Z80

; http://nowscape.com/blk/BLK_casey_instr_manual.pdf

; What is this code? What does it do? Where is it from? I have only the code and no details of the
; hardware. There is a RAM/ROM mode for the software. The RAM mode may be a debug-version that reads
; from port 22 (instead of 22). Port 2 (or 22) is the only input to the code.

; Does the code write to screen memory? Some special output hardware port? Only time will tell.

; 7/19/2010
; Casey is a computer you wear in your boot. It counts cards for you. There are 4 switches for inputs with
; values 1,2,4, and 8. These map to toe switches. There are two modes. In "keyboard" mode the code runs in
; RAM and the inputs come from port 22. In "shoe" mode the code runs in ROM and the inputs come from port 2.

; 7/11/2010
; I have pulled the code from Joel's excel spreadsheet. I have commented a couple of routines. One
; is the clear memory routine. The other is a "long delay" routine. The code uses DNJZ loops for
; timing ... more evidence that there are no interrupts.
;
; Seems to be some kind of memory mapped device around 2000


; ROM 0000-1FFF
; RAM 6000-67FF

; Stack is set to top of RAM at 67F8. RAM must end at 67FF
; 0110_0111___1111_1111 = 67FF

; There does not appear to be an interrupts serviced in this code. None of the ISR vectors preserve
; the calling context. Thus returning from any of these vectors would mangle the calling code's
; registers.

;##RAM
;##+6433    ramRomFlag          0 if RAM, not-zero if ROM

; These segments of code are padded to be as these specific addresses. They must
; be important.
;
; 0700
; 1300
; 1500
; 1900

;IN  02
;
;OUT 0C
;OUT 0E
;OUT 0F
;OUT 13
;
;IN  22
;OUT 22

0000: 31 F8 67        LD      SP,$67F8            ; Set stack 8 bytes from top of RAM
0003: 0E 00           LD      C,$00               ; No need ... gets mangled in a few instructions
0005: 18 71           JR      $78                 ; Continue initialization

0007: 00 ; Padding              

0008: CD 7B 1C        CALL    $1C7B               
000B: 0E 00           LD      C,$00               
000D: FF              RST     $38                 

000E: 00 00   

0010: C3 00 07        JP      $0700               

0013: 00 00 00 00 00                     

0018: E3              EX      (SP),HL             
0019: 46              LD      B,(HL)              
001A: 23              INC     HL                  
001B: 4E              LD      C,(HL)              
001C: 23              INC     HL                  
001D: E5              PUSH    HL                  
001E: 18 68           JR      $88                 

0020: 7B              LD      A,E                 
0021: A7              AND     A                   
0022: CD 74 1C        CALL    $1C74               
0025: 4F              LD      C,A                 
0026: FF              RST     $38         
        
0027: 00                        

0028: 2A 8E 60        LD      HL,($608E)          
002B: 7E              LD      A,(HL)              
002C: E6 0F           AND     $0F                 
002E: 18 65           JR      $95       
          
0030: 00 00 00 00 00 00 00 00                         

0038: AF              XOR     A                   ; 0 ...
0039: 32 17 60        LD      ($6017),A           ; ... to ??
003C: 47              LD      B,A                 
003D: 5F              LD      E,A                 
003E: 79              LD      A,C                 
003F: FE 02           CP      $02                 
0041: 78              LD      A,B                 
;
0042: CD 00 13        CALL    $1300               
0045: 78              LD      A,B                 
0046: A7              AND     A                   
0047: 28 1E           JR      Z,$67               
0049: 0E 00           LD      C,$00               ; 0 constant
004B: CD CC 16        CALL    $16CC               ; Get user inputs
004E: 57              LD      D,A                 ; Hold the input for a minute
004F: B9              CP      C                   ; Is the input 0?
0050: 28 11           JR      Z,$63               ; Yes ... timeout
0052: 32 04 65        LD      ($6504),A           ; Hold input in ??
0055: 2B              DEC     HL                  ; Count down timer
0056: 7D              LD      A,L                 ; Have we ...
0057: B4              OR      H                   ; ... reached zero? 
0058: 20 04           JR      NZ,$5E              ; No ... leave flag alone
005A: 3C              INC     A                   ; Store ...
005B: 32 17 60        LD      ($6017),A           ; ... 1 (HL reached 0)
005E: 7A              LD      A,D                 ; Restore input
005F: B3              OR      E                   ; Or in new value ...
0060: 5F              LD      E,A                 ; ... with running total
0061: 06 6C           LD      B,$6C               ; New timeout (108)
0063: 10 DD           DJNZ    $42                 ; Keep looking until we time out
0065: 18 32           JR      $99                 ; ?? 
;
0067: 21 80 02        LD      HL,$0280            ; Timer ??
006A: CD CC 16        CALL    $16CC               ; Get user inputs
006D: B8              CP      B                   
006E: 28 04           JR      Z,$74               
0070: 06 6C           LD      B,$6C               ; 108
0072: 18 D5           JR      $49                 
;
0074: B9              CP      C                   
0075: 28 CB           JR      Z,$42               
0077: C9              RET                         

; Init continues here
0078: CD 6B 15        CALL    $156B               ; Clear RAM
007B: 21 85 60        LD      HL,$6085            
007E: 36 29           LD      (HL),$29            
0080: CD 3F 15        CALL    $153F               
0083: AF              XOR     A                   
0084: 3C              INC     A                   
0085: C3 2A 01        JP      $012A               

0088: 78              LD      A,B                 
0089: 32 8D 60        LD      ($608D),A           
008C: CD 23 04        CALL    $0423               
008F: CD 9F 17        CALL    $179F               
0092: E1              POP     HL                  
0093: E3              EX      (SP),HL             
0094: C9              RET                         

0095: 32 81 60        LD      ($6081),A           
0098: C9              RET                         

0099: 31 F8 67        LD      SP,$67F8            ; Reset stack back to top
009C: AF              XOR     A                   
009D: 32 04 65        LD      ($6504),A           
00A0: 32 31 64        LD      ($6431),A           
00A3: 32 26 64        LD      ($6426),A           
00A6: 32 46 64        LD      ($6446),A           
00A9: CD 30 17        CALL    $1730               
00AC: 3A 3B 64        LD      A,($643B)           
00AF: FE 01           CP      $01                 
00B1: D2 0D 19        JP      NC,$190D            
00B4: 3A 17 60        LD      A,($6017)           ;
00B7: A7              AND     A                   
00B8: C2 13 1C        JP      NZ,$1C13            
00BB: 3A F0 60        LD      A,($60F0)           
00BE: A7              AND     A                   
00BF: 28 27           JR      Z,$E8               
00C1: AF              XOR     A                   
00C2: 32 F0 60        LD      ($60F0),A           
00C5: CD 38 17        CALL    $1738               
00C8: 7B              LD      A,E                 
00C9: FE 02           CP      $02                 
00CB: DA 00 19        JP      C,$1900             
00CE: CA 22 1C        JP      Z,$1C22             
00D1: FE 05           CP      $05                 
00D3: CA 61 1C        JP      Z,$1C61             
00D6: FE 04           CP      $04                 
00D8: 20 05           JR      NZ,$DF              
00DA: CD 46 1C        CALL    $1C46               
00DD: 18 06           JR      $E5                 
00DF: D2 32 03        JP      NC,$0332            
00E2: CD 3C 1C        CALL    $1C3C               
00E5: 0E 00           LD      C,$00               
00E7: FF              RST     $38                 

00E8: 3A 84 60        LD      A,($6084)           
00EB: A7              AND     A                   
00EC: 28 15           JR      Z,$103              
00EE: AF              XOR     A                   
00EF: 32 84 60        LD      ($6084),A           
00F2: 7B              LD      A,E                 
00F3: FE 02           CP      $02                 
00F5: 30 04           JR      NC,$FB              
00F7: 32 80 60        LD      ($6080),A           
00FA: E7              RST     $20                 
00FB: C2 32 03        JP      NZ,$0332            
00FE: AF              XOR     A                   
00FF: 32 80 60        LD      ($6080),A           
0102: E7              RST     $20                 
0103: 21 86 60        LD      HL,$6086            
0106: BE              CP      (HL)                
0107: 28 0C           JR      Z,$115              
0109: 77              LD      (HL),A              
010A: 3E 0B           LD      A,$0B               
010C: BB              CP      E                   
010D: 38 48           JR      C,$157              
010F: 6B              LD      L,E                 
0110: 34              INC     (HL)                
0111: CD 85 1C        CALL    $1C85               
0114: FF              RST     $38                 
0115: 2C              INC     L                   
0116: BE              CP      (HL)                
0117: 28 07           JR      Z,$120              
0119: 77              LD      (HL),A              
011A: 7B              LD      A,E                 
011B: FE 0F           CP      $0F                 
011D: C2 F3 03        JP      NZ,$03F3            
0120: 2C              INC     L                   
0121: BE              CP      (HL)                
0122: 28 25           JR      Z,$149              
0124: 77              LD      (HL),A              
0125: 7B              LD      A,E                 
0126: FE 0F           CP      $0F                 
0128: 28 2D           JR      Z,$157              
012A: CD 30 17        CALL    $1730               
012D: 21 00 60        LD      HL,$6000            
0130: 36 00           LD      (HL),$00            
0132: 2C              INC     L                   
0133: 77              LD      (HL),A              
0134: 32 81 60        LD      ($6081),A           
0137: 07              RLCA                        
0138: 07              RLCA                        
0139: 06 0A           LD      B,$0A               
013B: 2C              INC     L                   
013C: 77              LD      (HL),A              
013D: 10 FC           DJNZ    $13B                
013F: 2D              DEC     L                   
0140: 07              RLCA                        
0141: 07              RLCA                        
0142: 77              LD      (HL),A              
0143: 3E 0C           LD      A,$0C               
0145: 32 91 60        LD      ($6091),A           
0148: CF              RST     $08                 
0149: 2C              INC     L                   
014A: 7B              LD      A,E                 
014B: FE 01           CP      $01                 
014D: 20 0B           JR      NZ,$15A             
014F: BE              CP      (HL)                
0150: 28 04           JR      Z,$156              
0152: 36 01           LD      (HL),$01            
0154: EF              RST     $28                 
0155: CF              RST     $08                 
0156: 35              DEC     (HL)                
0157: C3 13 1C        JP      $1C13               
015A: AF              XOR     A                   
015B: BE              CP      (HL)                
015C: 28 04           JR      Z,$162              
015E: 77              LD      (HL),A              
015F: C3 DD 02        JP      $02DD               
0162: EF              RST     $28                 
0163: FE 0C           CP      $0C                 
0165: 20 0B           JR      NZ,$172             
0167: CD 3F 15        CALL    $153F               
016A: FE 0C           CP      $0C                 
016C: 30 04           JR      NC,$172             
016E: DF              RST     $18                 
016F: 01 01 E7        LD      BC,$E701            
0172: 7B              LD      A,E                 
0173: FE 0E           CP      $0E                 
0175: 38 41           JR      C,$1B8              
0177: 28 03           JR      Z,$17C              
0179: C3 32 03        JP      $0332               
017C: CD 38 17        CALL    $1738               
017F: CD 4F 04        CALL    $044F               
0182: 32 8D 60        LD      ($608D),A           
0185: 4F              LD      C,A                 
0186: CD 85 16        CALL    $1685               
0189: CD 0E 18        CALL    $180E               
018C: 79              LD      A,C                 
018D: FE 03           CP      $03                 
018F: 38 07           JR      C,$198              
0191: FE 0B           CP      $0B                 ; 11
0193: 38 06           JR      C,$19B              
0195: 28 11           JR      Z,$1A8              
0197: FF              RST     $38                 
0198: C3 29 05        JP      $0529               
019B: 3A 0E 60        LD      A,($600E)           
019E: A7              AND     A                   
019F: 20 06           JR      NZ,$1A7             
01A1: CD D9 17        CALL    $17D9               
01A4: DF              RST     $18                 
01A5: 03              INC     BC                  
01A6: 03              INC     BC                  
01A7: D7              RST     $10                 
01A8: CD 8B 18        CALL    $188B               
01AB: C3 CC 03        JP      $03CC               
01AE: CD 38 17        CALL    $1738               
01B1: AF              XOR     A                   
01B2: 32 00 60        LD      ($6000),A           
01B5: DF              RST     $18                 
01B6: 00              NOP                         
01B7: 00              NOP                         
01B8: FE 0C           CP      $0C                 
01BA: 28 F2           JR      Z,$1AE              
01BC: 3A 1C 60        LD      A,($601C)           
01BF: A7              AND     A                   
01C0: 28 25           JR      Z,$1E7              
01C2: AF              XOR     A                   
01C3: 32 1C 60        LD      ($601C),A           
01C6: 21 1D 60        LD      HL,$601D            
01C9: 7B              LD      A,E                 
01CA: FE 0B           CP      $0B                 
01CC: 20 01           JR      NZ,$1CF             
01CE: 34              INC     (HL)                
01CF: 2E 1A           LD      L,$1A               
01D1: 7E              LD      A,(HL)              
01D2: 32 E0 60        LD      ($60E0),A           
01D5: E5              PUSH    HL                  
01D6: 21 E1 60        LD      HL,$60E1            
01D9: 73              LD      (HL),E              
01DA: E1              POP     HL                  
01DB: 83              ADD     A,E                 
01DC: 77              LD      (HL),A              
01DD: 2E 0D           LD      L,$0D               
01DF: 46              LD      B,(HL)              
01E0: 2C              INC     L                   
01E1: AF              XOR     A                   
01E2: BE              CP      (HL)                
01E3: 20 01           JR      NZ,$1E6             
01E5: 70              LD      (HL),B              
01E6: D7              RST     $10                 
01E7: EF              RST     $28                 
01E8: 57              LD      D,A                 
01E9: FE 0C           CP      $0C                 
01EB: 38 2F           JR      C,$21C              
01ED: 3E 0F           LD      A,$0F               
01EF: BA              CP      D                   
01F0: 20 22           JR      NZ,$214             
01F2: CD 0E 17        CALL    $170E               
01F5: FE 0B           CP      $0B                 
01F7: 38 0C           JR      C,$205              
01F9: 28 0E           JR      Z,$209              
01FB: CD C7 16        CALL    $16C7               
01FE: CA 13 1C        JP      Z,$1C13             
0201: DF              RST     $18                 
0202: 02              LD      (BC),A              
0203: 02              LD      (BC),A              
0204: E7              RST     $20                 
0205: DF              RST     $18                 
0206: 03              INC     BC                  
0207: 03              INC     BC                  
0208: D7              RST     $10                 
0209: CD 3C 04        CALL    $043C               
020C: 38 53           JR      C,$261              
020E: 28 08           JR      Z,$218              
0210: DF              RST     $18                 
0211: 04              INC     B                   
0212: 04              INC     B                   
0213: D7              RST     $10                 
0214: 3D              DEC     A                   
0215: BA              CP      D                   
0216: 28 04           JR      Z,$21C              
0218: DF              RST     $18                 
0219: 0D              DEC     C                   
021A: 00              NOP                         
021B: E7              RST     $20                 
021C: CD 0E 17        CALL    $170E               
021F: 4F              LD      C,A                 
0220: A7              AND     A                   
0221: 20 04           JR      NZ,$227             
0223: DF              RST     $18                 
0224: 01 01 E7        LD      BC,$E701            
0227: FE 02           CP      $02                 
0229: 28 0C           JR      Z,$237              
022B: 30 25           JR      NC,$252             
022D: DF              RST     $18                 
022E: 02              LD      (BC),A              
022F: 02              LD      (BC),A              
0230: E7              RST     $20                 
0231: DF              RST     $18                 
0232: 0B              DEC     BC                  
0233: 03              INC     BC                  
0234: C3 CC 03        JP      $03CC               
0237: CD E5 16        CALL    $16E5               
023A: 20 F5           JR      NZ,$231             
023C: DF              RST     $18                 
023D: 03              INC     BC                  
023E: 03              INC     BC                  
023F: 3A 80 60        LD      A,($6080)           
0242: 47              LD      B,A                 
0243: 3A 8B 60        LD      A,($608B)           
0246: B0              OR      B                   
0247: 20 08           JR      NZ,$251             
0249: 1E 0D           LD      E,$0D               
024B: DF              RST     $18                 
024C: 0D              DEC     C                   
024D: 0D              DEC     C                   
024E: C3 AD 1A        JP      $1AAD               
0251: D7              RST     $10                 
0252: FE 03           CP      $03                 
0254: 20 12           JR      NZ,$268             
0256: CD 3C 04        CALL    $043C               
0259: 38 06           JR      C,$261              
025B: 28 BB           JR      Z,$218              
025D: DF              RST     $18                 
025E: 04              INC     B                   
025F: 04              INC     B                   
0260: D7              RST     $10                 
0261: CD 9A 17        CALL    $179A               
0264: DF              RST     $18                 
0265: 09              ADD     HL,BC               
0266: 03              INC     BC                  
0267: D7              RST     $10                 
0268: FE 08           CP      $08                 
026A: 28 13           JR      Z,$27F              
026C: 30 1D           JR      NC,$28B             
026E: CD 3C 04        CALL    $043C               
0271: 28 0C           JR      Z,$27F              
0273: 38 B8           JR      C,$22D              
0275: 3A 8D 60        LD      A,($608D)           
0278: 3C              INC     A                   
0279: 47              LD      B,A                 
027A: 4F              LD      C,A                 
027B: CD 88 00        CALL    $0088               
027E: D7              RST     $10                 
027F: CD F6 16        CALL    $16F6               
0282: 28 94           JR      Z,$218              
0284: CD 31 04        CALL    $0431               
0287: DF              RST     $18                 
0288: 0A              LD      A,(BC)              
0289: 03              INC     BC                  
028A: D7              RST     $10                 
028B: FE 0A           CP      $0A                 
028D: 28 0D           JR      Z,$29C              
028F: 30 16           JR      NC,$2A7             
0291: CD 3C 04        CALL    $043C               
0294: 28 EE           JR      Z,$284              
0296: 38 C9           JR      C,$261              
0298: DF              RST     $18                 
0299: 04              INC     B                   
029A: 04              INC     B                   
029B: D7              RST     $10                 
029C: CD 3C 04        CALL    $043C               
029F: 28 DE           JR      Z,$27F              
02A1: 38 BE           JR      C,$261              
02A3: DF              RST     $18                 
02A4: 04              INC     B                   
02A5: 04              INC     B                   
02A6: D7              RST     $10                 
02A7: FE 0D           CP      $0D                 
02A9: CA 18 02        JP      Z,$0218             
02AC: D2 01 02        JP      NC,$0201            
02AF: DF              RST     $18                 
02B0: 0B              DEC     BC                  
02B1: 00              NOP                         
02B2: C3 CC 03        JP      $03CC               
02B5: 3E 0D           LD      A,$0D               
02B7: BB              CP      E                   
02B8: 28 1D           JR      Z,$2D7              
02BA: 30 01           JR      NC,$2BD             
02BC: FF              RST     $38                 
02BD: CD 9F 03        CALL    $039F               
02C0: A7              AND     A                   
02C1: CA 13 1C        JP      Z,$1C13             
02C4: AF              XOR     A                   
02C5: 32 1C 60        LD      ($601C),A           
02C8: 32 E0 60        LD      ($60E0),A           
02CB: 32 E1 60        LD      ($60E1),A           
02CE: 32 E2 60        LD      ($60E2),A           
02D1: 32 E3 60        LD      ($60E3),A           
02D4: C3 29 05        JP      $0529               
02D7: CD 30 17        CALL    $1730               
02DA: C3 AD 1A        JP      $1AAD               
02DD: 7B              LD      A,E                 
02DE: 0E 00           LD      C,$00               
02E0: 2D              DEC     L                   
02E1: 2D              DEC     L                   
02E2: FE 03           CP      $03                 
02E4: DA D1 04        JP      C,$04D1             
02E7: 20 0C           JR      NZ,$2F5             
02E9: CD 30 17        CALL    $1730               
02EC: CD 9F 03        CALL    $039F               
02EF: 3E 01           LD      A,$01               
02F1: 32 26 64        LD      ($6426),A           
02F4: CF              RST     $08                 
02F5: FE 04           CP      $04                 
02F7: 20 06           JR      NZ,$2FF             
02F9: 32 1C 60        LD      ($601C),A           
02FC: C3 C5 1A        JP      $1AC5               
02FF: FE 06           CP      $06                 
0301: 38 36           JR      C,$339              
0303: 28 5F           JR      Z,$364              
0305: FE 08           CP      $08                 
0307: 38 08           JR      C,$311              
0309: 20 5F           JR      NZ,$36A             
030B: 3E 01           LD      A,$01               
030D: 32 F0 60        LD      ($60F0),A           
0310: E7              RST     $20                 
0311: AF              XOR     A                   
0312: 32 00 60        LD      ($6000),A           
0315: 32 E0 60        LD      ($60E0),A           
0318: 32 E1 60        LD      ($60E1),A           
031B: 32 E2 60        LD      ($60E2),A           
031E: 32 E3 60        LD      ($60E3),A           
0321: EF              RST     $28                 
0322: FE 0C           CP      $0C                 
0324: 28 0B           JR      Z,$331              
0326: 30 04           JR      NC,$32C             
0328: 5F              LD      E,A                 
0329: CD 8F 16        CALL    $168F               
032C: CD D9 17        CALL    $17D9               
032F: 18 F0           JR      $321                
0331: CF              RST     $08                 
0332: AF              XOR     A                   
0333: 32 89 60        LD      ($6089),A           
0336: C3 13 1C        JP      $1C13               
0339: 1E 0F           LD      E,$0F               
033B: CD E5 16        CALL    $16E5               
033E: 28 0A           JR      Z,$34A              
0340: 77              LD      (HL),A              
0341: 2C              INC     L                   
0342: 36 0B           LD      (HL),$0B            
0344: 1E 0F           LD      E,$0F               
0346: CD 85 16        CALL    $1685               
0349: D7              RST     $10                 
034A: CD F6 16        CALL    $16F6               
034D: 28 04           JR      Z,$353              
034F: 35              DEC     (HL)                
0350: DF              RST     $18                 
0351: 0A              LD      A,(BC)              
0352: 00              NOP                         
0353: CD C7 16        CALL    $16C7               
0356: CA 13 1C        JP      Z,$1C13             
0359: CD C3 04        CALL    $04C3               
035C: AF              XOR     A                   
035D: 32 00 60        LD      ($6000),A           
0360: DF              RST     $18                 
0361: 0F              RRCA                        
0362: 00              NOP                         
0363: FF              RST     $38                 
0364: 32 00 60        LD      ($6000),A           
0367: C3 C5 1A        JP      $1AC5               
036A: FE 0B           CP      $0B                 
036C: CA 92 03        JP      Z,$0392             
036F: 30 0B           JR      NC,$37C             
0371: FE 0A           CP      $0A                 
0373: 28 05           JR      Z,$37A              
0375: 32 84 60        LD      ($6084),A           
0378: A7              AND     A                   
0379: E7              RST     $20                 
037A: 77              LD      (HL),A              
037B: FF              RST     $38                 
037C: 2C              INC     L                   
037D: 77              LD      (HL),A              
037E: 21 82 03        LD      HL,$0382            
0381: 41              LD      B,C                 
0382: 4F              LD      C,A                 
0383: 09              ADD     HL,BC               
0384: 7E              LD      A,(HL)              
0385: 32 85 60        LD      ($6085),A           
0388: 21 81 60        LD      HL,$6081            
038B: 73              LD      (HL),E              
038C: A7              AND     A                   
038D: CF              RST     $08                 
038E: 2E 23           LD      L,$23               
0390: 29              ADD     HL,HL               
0391: 2D              DEC     L                   
0392: 3A 33 64        LD      A,($6433)           
0395: A7              AND     A                   
0396: 20 01           JR      NZ,$399             
0398: F7              RST     $30                 
0399: 32 86 60        LD      ($6086),A           
039C: 0E 00           LD      C,$00               
039E: FF              RST     $38                 
039F: 21 01 60        LD      HL,$6001            
03A2: 11 00 00        LD      DE,$0000            
03A5: 06 0A           LD      B,$0A               
03A7: 2C              INC     L                   
03A8: CB 7E           BIT     7,(HL)              
03AA: 28 0C           JR      Z,$3B8              
03AC: E5              PUSH    HL                  
03AD: CD 30 17        CALL    $1730               
03B0: E1              POP     HL                  
03B1: 0E 24           LD      C,$24               
03B3: CD 49 1D        CALL    $1D49               
03B6: 5D              LD      E,L                 
03B7: E7              RST     $20                 
03B8: 7B              LD      A,E                 
03B9: 86              ADD     A,(HL)              
03BA: 5F              LD      E,A                 
03BB: 30 01           JR      NC,$3BE             
03BD: 14              INC     D                   
03BE: 10 E7           DJNZ    $3A7                
03C0: EB              EX      DE,HL               
03C1: 22 D4 60        LD      ($60D4),HL          
03C4: 22 D6 60        LD      ($60D6),HL          
03C7: 22 81 60        LD      ($6081),HL          
03CA: B4              OR      H                   
03CB: C9              RET                         
03CC: CD 38 17        CALL    $1738               
03CF: CD 9F 03        CALL    $039F               
03D2: ED 5B 0A 60     LD      DE,($600A)          
03D6: 16 00           LD      D,$00               
03D8: ED 52           SBC     HL,DE               
03DA: ED 52           SBC     HL,DE               
03DC: ED 52           SBC     HL,DE               
03DE: 7D              LD      A,L                 
03DF: FA E5 03        JP      M,$03E5             
03E2: 37              SCF                         
03E3: 18 03           JR      $3E8                
03E5: 2F              CPL                         
03E6: 3C              INC     A                   
03E7: A7              AND     A                   
03E8: 21 26 64        LD      HL,$6426            
03EB: 36 01           LD      (HL),$01            
03ED: CD 74 1C        CALL    $1C74               
03F0: 0E 00           LD      C,$00               
03F2: FF              RST     $38                 
03F3: F5              PUSH    AF                  
03F4: 3E 01           LD      A,$01               
03F6: 32 26 64        LD      ($6426),A           
03F9: F1              POP     AF                  
03FA: 3D              DEC     A                   
03FB: 20 02           JR      NZ,$3FF             
03FD: 06 0B           LD      B,$0B               
03FF: 0E FF           LD      C,$FF               
0401: FE 09           CP      $09                 
0403: 20 02           JR      NZ,$407             
0405: 0E 0F           LD      C,$0F               
0407: 07              RLCA                        
0408: 07              RLCA                        
0409: 07              RLCA                        
040A: 07              RLCA                        
040B: 6F              LD      L,A                 
040C: 2C              INC     L                   
040D: 7E              LD      A,(HL)              
040E: A1              AND     C                   
040F: C5              PUSH    BC                  
0410: E5              PUSH    HL                  
0411: CD 74 1C        CALL    $1C74               
0414: CD 45 1E        CALL    $1E45               
0417: CD 45 1E        CALL    $1E45               
041A: CD 45 1E        CALL    $1E45               
041D: E1              POP     HL                  
041E: C1              POP     BC                  
041F: 10 EB           DJNZ    $40C                
0421: 48              LD      C,B                 
0422: FF              RST     $38                 
0423: CD 85 16        CALL    $1685               
0426: 7B              LD      A,E                 
0427: FE 0C           CP      $0C                 
0429: D2 B5 02        JP      NC,$02B5            
042C: 26 60           LD      H,$60               
042E: 6F              LD      L,A                 
042F: 35              DEC     (HL)                
0430: C9              RET                         
0431: 21 8A 60        LD      HL,$608A            
0434: AF              XOR     A                   
0435: BE              CP      (HL)                
0436: C8              RET     Z                   
0437: 35              DEC     (HL)                
0438: CD CB 04        CALL    $04CB               
043B: C9              RET                         
043C: 21 7B 60        LD      HL,$607B            
043F: 7E              LD      A,(HL)              
0440: 32 81 60        LD      ($6081),A           
0443: AF              XOR     A                   
0444: 32 82 60        LD      ($6082),A           
0447: BE              CP      (HL)                
0448: C8              RET     Z                   
0449: 3E 06           LD      A,$06               
044B: BE              CP      (HL)                
044C: D8              RET     C                   
044D: A7              AND     A                   
044E: C9              RET                         
044F: EF              RST     $28                 
0450: 57              LD      D,A                 
0451: CD 0E 17        CALL    $170E               
0454: 4F              LD      C,A                 
0455: FE 00           CP      $00                 
0457: C8              RET     Z                   
0458: 21 8E 60        LD      HL,$608E            
045B: 34              INC     (HL)                
045C: FE 0D           CP      $0D                 
045E: 28 EF           JR      Z,$44F              
0460: FE 09           CP      $09                 
0462: 28 06           JR      Z,$46A              
0464: FE 0A           CP      $0A                 
0466: 28 0C           JR      Z,$474              
0468: 18 24           JR      $48E                
046A: 7A              LD      A,D                 
046B: FE 0C           CP      $0C                 
046D: 38 1F           JR      C,$48E              
046F: CD 31 04        CALL    $0431               
0472: 18 DB           JR      $44F                
0474: 7A              LD      A,D                 
0475: FE 0F           CP      $0F                 
0477: 20 0C           JR      NZ,$485             
0479: 21 8D 60        LD      HL,$608D            
047C: 36 02           LD      (HL),$02            
047E: CD 85 16        CALL    $1685               
0481: CD 0E 18        CALL    $180E               
0484: FF              RST     $38                 
0485: FE 0C           CP      $0C                 
0487: 38 05           JR      C,$48E              
0489: CD 9A 17        CALL    $179A               
048C: 18 C1           JR      $44F                
048E: 7A              LD      A,D                 
048F: FE 0F           CP      $0F                 
0491: 20 0C           JR      NZ,$49F             
0493: 79              LD      A,C                 
0494: FE 0B           CP      $0B                 
0496: 38 07           JR      C,$49F              
0498: 20 03           JR      NZ,$49D             
049A: 3E 03           LD      A,$03               
049C: C9              RET                         
049D: 7A              LD      A,D                 
049E: C9              RET                         
049F: FE 0C           CP      $0C                 
04A1: 30 AC           JR      NC,$44F             
04A3: 79              LD      A,C                 
04A4: C9              RET                         
04A5: 3A 8D 60        LD      A,($608D)           
04A8: 07              RLCA                        
04A9: 07              RLCA                        
04AA: 07              RLCA                        
04AB: 07              RLCA                        
04AC: C9              RET                         
04AD: 21 14 60        LD      HL,$6014            
04B0: AF              XOR     A                   
04B1: BE              CP      (HL)                
04B2: 20 07           JR      NZ,$4BB             
04B4: 2D              DEC     L                   
04B5: 3E 0C           LD      A,$0C               
04B7: BD              CP      L                   
04B8: C8              RET     Z                   
04B9: 18 F5           JR      $4B0                
04BB: 36 00           LD      (HL),$00            
04BD: C9              RET                         
04BE: AF              XOR     A                   
04BF: 32 8B 60        LD      ($608B),A           
04C2: C9              RET                         
04C3: 3E 01           LD      A,$01               
04C5: 32 8B 60        LD      ($608B),A           
04C8: AF              XOR     A                   
04C9: 18 02           JR      $4CD                
04CB: 3E 01           LD      A,$01               
04CD: 32 1E 60        LD      ($601E),A           
04D0: C9              RET                         
04D1: EF              RST     $28                 
04D2: 5F              LD      E,A                 
04D3: CD 0E 17        CALL    $170E               
04D6: 4F              LD      C,A                 
04D7: CD D9 17        CALL    $17D9               
04DA: FE 01           CP      $01                 
04DC: 28 10           JR      Z,$4EE              
04DE: 30 1B           JR      NC,$4FB             
04E0: 7B              LD      A,E                 
04E1: FE 0C           CP      $0C                 
04E3: 30 06           JR      NC,$4EB             
04E5: CD AD 04        CALL    $04AD               
04E8: CD 8F 16        CALL    $168F               
04EB: C3 C5 1A        JP      $1AC5               
04EE: CD 15 18        CALL    $1815               
04F1: 32 1A 60        LD      ($601A),A           
04F4: 7B              LD      A,E                 
04F5: FE 0C           CP      $0C                 
04F7: 30 F2           JR      NC,$4EB             
04F9: 18 ED           JR      $4E8                
04FB: FE 09           CP      $09                 
04FD: 28 04           JR      Z,$503              
04FF: 30 0D           JR      NC,$50E             
0501: 18 DD           JR      $4E0                
0503: CD 31 04        CALL    $0431               
0506: 21 0D 60        LD      HL,$600D            
0509: 7E              LD      A,(HL)              
050A: 2C              INC     L                   
050B: 77              LD      (HL),A              
050C: 18 E6           JR      $4F4                
050E: FE 0B           CP      $0B                 
0510: 28 07           JR      Z,$519              
0512: 30 0A           JR      NC,$51E             
0514: CD 9A 17        CALL    $179A               
0517: 18 C7           JR      $4E0                
0519: CD 8B 18        CALL    $188B               
051C: 18 D6           JR      $4F4                
051E: FE 0E           CP      $0E                 
0520: 30 02           JR      NC,$524             
0522: 18 D0           JR      $4F4                
0524: CD BE 04        CALL    $04BE               
0527: 18 C2           JR      $4EB                
0529: CD 9F 03        CALL    $039F               
052C: 21 5C 06        LD      HL,$065C            
052F: AF              XOR     A                   
0530: 5F              LD      E,A                 
0531: 57              LD      D,A                 
0532: 4F              LD      C,A                 
0533: D9              EXX                         
0534: 21 02 60        LD      HL,$6002            
0537: 06 0A           LD      B,$0A               
0539: 7E              LD      A,(HL)              
053A: D9              EXX                         
053B: A7              AND     A                   
053C: 28 15           JR      Z,$553              
053E: 47              LD      B,A                 
053F: 7B              LD      A,E                 
0540: CB 46           BIT     0,(HL)              
0542: 20 08           JR      NZ,$54C             
0544: 86              ADD     A,(HL)              
0545: 30 01           JR      NC,$548             
0547: 14              INC     D                   
0548: 10 FA           DJNZ    $544                
054A: 18 06           JR      $552                
054C: 96              SUB     (HL)                
054D: 30 01           JR      NC,$550             
054F: 15              DEC     D                   
0550: 10 FA           DJNZ    $54C                
0552: 5F              LD      E,A                 
0553: 23              INC     HL                  
0554: D9              EXX                         
0555: 2C              INC     L                   
0556: 10 E1           DJNZ    $539                
0558: D9              EXX                         
0559: CB 7A           BIT     7,D                 
055B: F5              PUSH    AF                  
055C: 28 07           JR      Z,$565              
055E: 21 00 00        LD      HL,$0000            
0561: A7              AND     A                   
0562: ED 52           SBC     HL,DE               
0564: EB              EX      DE,HL               
0565: EB              EX      DE,HL               
0566: 06 02           LD      B,$02               
0568: CD 55 06        CALL    $0655               
056B: ED 5B D4 60     LD      DE,($60D4)          
056F: ED 52           SBC     HL,DE               
0571: 38 03           JR      C,$576              
0573: 03              INC     BC                  
0574: 18 F9           JR      $56F                
0576: 50              LD      D,B                 
0577: 59              LD      E,C                 
0578: 3A 01 60        LD      A,($6001)           
057B: FE 02           CP      $02                 
057D: 30 62           JR      NC,$5E1             
057F: 3A D4 60        LD      A,($60D4)           
0582: FE 31           CP      $31                 
0584: 38 0F           JR      C,$595              
0586: F1              POP     AF                  
0587: F5              PUSH    AF                  
0588: 7B              LD      A,E                 
0589: 28 07           JR      Z,$592              
058B: D6 0B           SUB     $0B                 
058D: 30 05           JR      NC,$594             
058F: 15              DEC     D                   
0590: 18 02           JR      $594                
0592: C6 0B           ADD     A,$0B               
0594: 5F              LD      E,A                 
0595: 21 08 00        LD      HL,$0008            
0598: 19              ADD     HL,DE               
0599: 54              LD      D,H                 
059A: 5D              LD      E,L                 
059B: 19              ADD     HL,DE               
059C: 19              ADD     HL,DE               
059D: EB              EX      DE,HL               
059E: ED 4B D4 60     LD      BC,($60D4)          
05A2: 3A 85 60        LD      A,($6085)           
05A5: FE 2E           CP      $2E                 
05A7: 20 02           JR      NZ,$5AB             
05A9: 3E 26           LD      A,$26               
05AB: A7              AND     A                   
05AC: 26 00           LD      H,$00               
05AE: 6F              LD      L,A                 
05AF: ED 42           SBC     HL,BC               
05B1: 06 03           LD      B,$03               
05B3: CD 55 06        CALL    $0655               
05B6: F1              POP     AF                  
05B7: 28 04           JR      Z,$5BD              
05B9: ED 52           SBC     HL,DE               
05BB: 18 01           JR      $5BE                
05BD: 19              ADD     HL,DE               
05BE: 0E 00           LD      C,$00               
05C0: CB 7C           BIT     7,H                 
05C2: 28 09           JR      Z,$5CD              
05C4: EB              EX      DE,HL               
05C5: 21 00 00        LD      HL,$0000            
05C8: A7              AND     A                   
05C9: ED 52           SBC     HL,DE               
05CB: 0E 80           LD      C,$80               
05CD: 11 30 00        LD      DE,$0030            
05D0: 06 00           LD      B,$00               
05D2: 04              INC     B                   
05D3: A7              AND     A                   
05D4: ED 52           SBC     HL,DE               
05D6: CB 7C           BIT     7,H                 
05D8: 28 F8           JR      Z,$5D2              
05DA: 05              DEC     B                   
05DB: 78              LD      A,B                 
05DC: A7              AND     A                   
05DD: 20 6B           JR      NZ,$64A             
05DF: 18 68           JR      $649                
05E1: 3A D5 60        LD      A,($60D5)           
05E4: A7              AND     A                   
05E5: 20 13           JR      NZ,$5FA             
05E7: 3A D4 60        LD      A,($60D4)           
05EA: D6 31           SUB     $31                 
05EC: 38 A7           JR      C,$595              
05EE: 06 F9           LD      B,$F9               
05F0: D6 38           SUB     $38                 
05F2: 38 08           JR      C,$5FC              
05F4: 06 F6           LD      B,$F6               
05F6: D6 68           SUB     $68                 
05F8: 38 02           JR      C,$5FC              
05FA: 06 F4           LD      B,$F4               
05FC: 3A 85 60        LD      A,($6085)           
05FF: FE 2D           CP      $2D                 ; 45
0601: 28 11           JR      Z,$614              
0603: 30 07           JR      NC,$60C             
0605: FE 29           CP      $29                 ; 41
0607: 20 07           JR      NZ,$610             
0609: AF              XOR     A                   
060A: 18 0E           JR      $61A                
060C: 3E FC           LD      A,$FC               
060E: 18 0A           JR      $61A                
0610: 3E F6           LD      A,$F6               
0612: 18 06           JR      $61A                
0614: 3E 03           LD      A,$03               
0616: 18 02           JR      $61A                
0618: 3E 0F           LD      A,$0F               
061A: 80              ADD     A,B                 
061B: 26 00           LD      H,$00               
061D: CB 7F           BIT     7,A                 
061F: 28 01           JR      Z,$622              
0621: 25              DEC     H                   
0622: 6F              LD      L,A                 
0623: F1              POP     AF                  
0624: 28 05           JR      Z,$62B              
0626: A7              AND     A                   
0627: ED 52           SBC     HL,DE               
0629: 18 01           JR      $62C                
062B: 19              ADD     HL,DE               
062C: 06 03           LD      B,$03               
062E: CB 2C           SRA     H                   
0630: CB 1D           RR      L                   
0632: 10 FA           DJNZ    $62E                
0634: 7D              LD      A,L                 
0635: CB 7F           BIT     7,A                 
0637: 0E 00           LD      C,$00               
0639: 28 03           JR      Z,$63E              
063B: 2F              CPL                         
063C: 0E 80           LD      C,$80               
063E: 47              LD      B,A                 
063F: 3A 01 60        LD      A,($6001)           
0642: FE 03           CP      $03                 
0644: 78              LD      A,B                 
0645: 30 02           JR      NC,$649             
0647: CB 3F           SRL     A                   
0649: 3C              INC     A                   
064A: CB 21           SLA     C                   
064C: 21 26 64        LD      HL,$6426            
064F: 36 01           LD      (HL),$01            
0651: CD 74 1C        CALL    $1C74               
0654: FF              RST     $38                 
0655: CB 25           SLA     L                   
0657: CB 14           RL      H                   
0659: 10 FA           DJNZ    $655                
065B: C9              RET                         

065C: 59 71 91 CD 83 6B 05 32 8E B2

; 89 113 145 205 131 107 5 50 142 178
           
0666: FF FF FF FF FF FF FF FF FF FF               
0670: FF FF FF FF FF FF FF FF FF FF FF FF FF FF FF FF             
0680: FF FF FF FF FF FF FF FF FF FF FF FF FF FF FF FF  
0690: FF FF FF FF FF FF FF FF FF FF FF FF FF FF FF FF  
06A0: FF FF FF FF FF FF FF FF FF FF FF FF FF FF FF FF  
06B0: FF FF FF FF FF FF FF FF FF FF FF FF FF FF FF FF  
06C0: FF FF FF FF FF FF FF FF FF FF FF FF FF FF FF FF  
06D0: FF FF FF FF FF FF FF FF FF FF FF FF FF FF FF FF  
06E0: FF FF FF FF FF FF FF FF FF FF FF FF FF FF FF FF  
06F0: FF FF FF FF FF FF FF FF FF FF FF FF FF FF FF FF  


0700: 3E 01           LD      A,$01               
0702: 32 D9 60        LD      ($60D9),A           
0705: CD FC 0E        CALL    $0EFC               
0708: 21 16 60        LD      HL,$6016            
070B: 4E              LD      C,(HL)              
070C: FE 16           CP      $16                 
070E: 38 27           JR      C,$737              
0710: 47              LD      B,A                 
0711: 79              LD      A,C                 
0712: A7              AND     A                   
0713: 32 7B 60        LD      ($607B),A           
0716: 20 19           JR      NZ,$731             
0718: CD 38 17        CALL    $1738               
071B: AF              XOR     A                   
071C: 32 D9 60        LD      ($60D9),A           
071F: 3A 91 60        LD      A,($6091)           
0722: E6 0F           AND     $0F                 
0724: FE 0E           CP      $0E                 
0726: CA 13 1C        JP      Z,$1C13             
0729: 3E 01           LD      A,$01               
072B: 32 20 64        LD      ($6420),A           
072E: C3 13 1C        JP      $1C13               
0731: 0D              DEC     C                   
0732: 78              LD      A,B                 
0733: D6 0A           SUB     $0A                 
0735: 18 D5           JR      $70C                
0737: CD 1A 0F        CALL    $0F1A               
073A: 3A E1 60        LD      A,($60E1)           
073D: A7              AND     A                   
073E: C4 5B 10        CALL    NZ,$105B            
0741: AF              XOR     A                   
0742: 32 F9 60        LD      ($60F9),A           
0745: 32 0C 60        LD      ($600C),A           
0748: CD 9F 03        CALL    $039F               
074B: 21 18 60        LD      HL,$6018            
074E: AF              XOR     A                   
074F: 77              LD      (HL),A              
0750: 2C              INC     L                   
0751: 77              LD      (HL),A              
0752: 2C              INC     L                   
0753: 7E              LD      A,(HL)              
0754: 2C              INC     L                   
0755: 77              LD      (HL),A              
0756: 3A E1 60        LD      A,($60E1)           
0759: A7              AND     A                   
075A: 20 15           JR      NZ,$771             
075C: 3E 0A           LD      A,$0A               
075E: BE              CP      (HL)                
075F: 28 0A           JR      Z,$76B              
0761: 30 0E           JR      NC,$771             
0763: 3A 0A 60        LD      A,($600A)           
0766: 32 19 60        LD      ($6019),A           
0769: 18 06           JR      $771                
076B: 3A 0B 60        LD      A,($600B)           
076E: 32 19 60        LD      ($6019),A           
0771: CD FC 0E        CALL    $0EFC               
0774: 3A 1D 60        LD      A,($601D)           
0777: 32 41 60        LD      ($6041),A           
077A: 21 1F 60        LD      HL,$601F            
077D: 06 1F           LD      B,$1F               
077F: AF              XOR     A                   
0780: 77              LD      (HL),A              
0781: 2C              INC     L                   
0782: 10 FC           DJNZ    $780                
0784: 3E 02           LD      A,$02               
0786: 77              LD      (HL),A              
0787: 2C              INC     L                   
0788: 77              LD      (HL),A              
0789: 3D              DEC     A                   
078A: 2C              INC     L                   
078B: 77              LD      (HL),A              
078C: 21 0C 60        LD      HL,$600C            
078F: CB 4E           BIT     1,(HL)              
0791: 20 1C           JR      NZ,$7AF             
0793: 3A 1A 60        LD      A,($601A)           
0796: FE 11           CP      $11                 
0798: 38 15           JR      C,$7AF              
079A: FE 16           CP      $16                 
079C: 28 11           JR      Z,$7AF              
079E: D6 10           SUB     $10                 
07A0: CB 27           SLA     A                   
07A2: 21 28 60        LD      HL,$6028            
07A5: 85              ADD     A,L                 
07A6: 6F              LD      L,A                 
07A7: 3E FF           LD      A,$FF               
07A9: 77              LD      (HL),A              
07AA: 2D              DEC     L                   
07AB: 77              LD      (HL),A              
07AC: C3 FA 09        JP      $09FA               
07AF: CD 21 0E        CALL    $0E21               
07B2: 2E 41           LD      L,$41               
07B4: 7E              LD      A,(HL)              
07B5: 2C              INC     L                   
07B6: 77              LD      (HL),A              
07B7: 2E 3F           LD      L,$3F               
07B9: 6E              LD      L,(HL)              
07BA: 4E              LD      C,(HL)              
07BB: CD 44 0E        CALL    $0E44               
07BE: 3E F0           LD      A,$F0               
07C0: B9              CP      C                   
07C1: DA 7D 09        JP      C,$097D             
07C4: 0C              INC     C                   
07C5: 2E 0C           LD      L,$0C               
07C7: CB 4E           BIT     1,(HL)              
07C9: 28 25           JR      Z,$7F0              
07CB: 2A D4 60        LD      HL,($60D4)          
07CE: 23              INC     HL                  
07CF: 16 00           LD      D,$00               
07D1: 3A 40 60        LD      A,($6040)           
07D4: 5F              LD      E,A                 
07D5: A7              AND     A                   
07D6: ED 52           SBC     HL,DE               
07D8: 22 D6 60        LD      ($60D6),HL          
07DB: EB              EX      DE,HL               
07DC: 26 00           LD      H,$00               
07DE: 69              LD      L,C                 
07DF: CD 36 14        CALL    $1436               
07E2: EB              EX      DE,HL               
07E3: 21 40 60        LD      HL,$6040            
07E6: 7E              LD      A,(HL)              
07E7: 07              RLCA                        
07E8: C6 42           ADD     A,$42               
07EA: 6F              LD      L,A                 
07EB: 72              LD      (HL),D              
07EC: 2D              DEC     L                   
07ED: 73              LD      (HL),E              
07EE: 18 20           JR      $810                
07F0: 2E 40           LD      L,$40               
07F2: 3E 01           LD      A,$01               
07F4: BE              CP      (HL)                
07F5: 38 D4           JR      C,$7CB              
07F7: 2A D4 60        LD      HL,($60D4)          
07FA: 16 00           LD      D,$00               
07FC: 3A 19 60        LD      A,($6019)           
07FF: 5F              LD      E,A                 
0800: ED 52           SBC     HL,DE               
0802: EB              EX      DE,HL               
0803: 26 00           LD      H,$00               
0805: 69              LD      L,C                 
0806: CD 36 14        CALL    $1436               
0809: EB              EX      DE,HL               
080A: 21 44 60        LD      HL,$6044            
080D: 72              LD      (HL),D              
080E: 2D              DEC     L                   
080F: 73              LD      (HL),E              
0810: 2E 40           LD      L,$40               
0812: 46              LD      B,(HL)              
0813: 2E 43           LD      L,$43               
0815: 5E              LD      E,(HL)              
0816: 2C              INC     L                   
0817: 56              LD      D,(HL)              
0818: E5              PUSH    HL                  
0819: EB              EX      DE,HL               
081A: 18 0B           JR      $827                
081C: E1              POP     HL                  
081D: 2C              INC     L                   
081E: 5E              LD      E,(HL)              
081F: 2C              INC     L                   
0820: 56              LD      D,(HL)              
0821: E5              PUSH    HL                  
0822: C5              PUSH    BC                  
0823: CD 83 14        CALL    $1483               
0826: C1              POP     BC                  
0827: 4D              LD      C,L                 
0828: 7C              LD      A,H                 
0829: 22 49 60        LD      ($6049),HL          
082C: 10 EE           DJNZ    $81C                
082E: E1              POP     HL                  
082F: 2E 1B           LD      L,$1B               
0831: 7E              LD      A,(HL)              
0832: 2E 3E           LD      L,$3E               
0834: 86              ADD     A,(HL)              
0835: 2D              DEC     L                   
0836: 86              ADD     A,(HL)              
0837: 2D              DEC     L                   
0838: 86              ADD     A,(HL)              
0839: 2D              DEC     L                   
083A: 77              LD      (HL),A              
083B: 31 F8 67        LD      SP,$67F8            
083E: 3E 11           LD      A,$11               
0840: BE              CP      (HL)                
0841: CA 08 09        JP      Z,$0908             
0844: 30 16           JR      NC,$85C             
0846: 3E 15           LD      A,$15               
0848: BE              CP      (HL)                
0849: D2 33 09        JP      NC,$0933            
084C: 2E 42           LD      L,$42               
084E: AF              XOR     A                   
084F: BE              CP      (HL)                
0850: CA 6A 09        JP      Z,$096A             
0853: 35              DEC     (HL)                
0854: 2E 3B           LD      L,$3B               
0856: 7E              LD      A,(HL)              
0857: D6 0A           SUB     $0A                 
0859: 77              LD      (HL),A              
085A: 18 DF           JR      $83B                
085C: 2E 0C           LD      L,$0C               
085E: CB 4E           BIT     1,(HL)              
0860: 28 39           JR      Z,$89B              
0862: 2E 40           LD      L,$40               
0864: 3E 01           LD      A,$01               
0866: BE              CP      (HL)                
0867: CA FF 08        JP      Z,$08FF             
086A: 2E 3B           LD      L,$3B               
086C: 56              LD      D,(HL)              
086D: 3E 0B           LD      A,$0B               
086F: BE              CP      (HL)                
0870: 30 15           JR      NC,$887             
0872: 2E 42           LD      L,$42               
0874: AF              XOR     A                   
0875: BE              CP      (HL)                
0876: 20 0F           JR      NZ,$887             
0878: 2E 1A           LD      L,$1A               
087A: 7E              LD      A,(HL)              
087B: FE 0C           CP      $0C                 
087D: 38 02           JR      C,$881              
087F: D6 0A           SUB     $0A                 
0881: 5F              LD      E,A                 
0882: CD 1B 11        CALL    $111B               
0885: 30 0B           JR      NC,$892             
0887: 21 40 60        LD      HL,$6040            
088A: 3E 02           LD      A,$02               
088C: BE              CP      (HL)                
088D: D2 4F 09        JP      NC,$094F            
0890: 18 11           JR      $8A3                
0892: D9              EXX                         
0893: 2E 37           LD      L,$37               
0895: CD 67 0E        CALL    $0E67               
0898: C3 7D 09        JP      $097D               
089B: 2E 40           LD      L,$40               
089D: 3E 02           LD      A,$02               
089F: BE              CP      (HL)                
08A0: D2 4F 09        JP      NC,$094F            
08A3: 2A 49 60        LD      HL,($6049)          
08A6: AF              XOR     A                   
08A7: CB 3C           SRL     H                   
08A9: CB 1D           RR      L                   
08AB: 1F              RRA                         
08AC: 4F              LD      C,A                 
08AD: EB              EX      DE,HL               
08AE: 21 C8 60        LD      HL,$60C8            
08B1: 71              LD      (HL),C              
08B2: 2C              INC     L                   
08B3: 73              LD      (HL),E              
08B4: 2C              INC     L                   
08B5: 72              LD      (HL),D              
08B6: EB              EX      DE,HL               
08B7: 06 05           LD      B,$05               
08B9: CB 3C           SRL     H                   
08BB: CB 1D           RR      L                   
08BD: 1F              RRA                         
08BE: 10 F9           DJNZ    $8B9                
08C0: 4F              LD      C,A                 
08C1: 54              LD      D,H                 
08C2: 5D              LD      E,L                 
08C3: 87              ADD     A,A                 
08C4: ED 6A           ADC     HL,HL               
08C6: 06 05           LD      B,$05               
08C8: 81              ADD     A,C                 
08C9: ED 5A           ADC     HL,DE               
08CB: E5              PUSH    HL                  
08CC: F5              PUSH    AF                  
08CD: 10 F9           DJNZ    $8C8                
08CF: 4F              LD      C,A                 
08D0: 3A C8 60        LD      A,($60C8)           
08D3: ED 5B C9 60     LD      DE,($60C9)          
08D7: 81              ADD     A,C                 
08D8: ED 5A           ADC     HL,DE               
08DA: E5              PUSH    HL                  
08DB: F5              PUSH    AF                  
08DC: 21 C7 60        LD      HL,$60C7            
08DF: D9              EXX                         
08E0: 21 34 60        LD      HL,$6034            
08E3: D9              EXX                         
08E4: 06 06           LD      B,$06               
08E6: F1              POP     AF                  
08E7: 86              ADD     A,(HL)              
08E8: 77              LD      (HL),A              
08E9: 2D              DEC     L                   
08EA: D9              EXX                         
08EB: C1              POP     BC                  
08EC: E5              PUSH    HL                  
08ED: 56              LD      D,(HL)              
08EE: 2D              DEC     L                   
08EF: 5E              LD      E,(HL)              
08F0: 60              LD      H,B                 
08F1: 69              LD      L,C                 
08F2: ED 5A           ADC     HL,DE               
08F4: EB              EX      DE,HL               
08F5: E1              POP     HL                  
08F6: 72              LD      (HL),D              
08F7: 2D              DEC     L                   
08F8: 73              LD      (HL),E              
08F9: 2D              DEC     L                   
08FA: D9              EXX                         
08FB: 10 E9           DJNZ    $8E6                
08FD: 18 99           JR      $898                
08FF: D9              EXX                         
0900: 2E 39           LD      L,$39               
0902: CD 67 0E        CALL    $0E67               
0905: C3 6A 08        JP      $086A               
0908: 2E 42           LD      L,$42               
090A: AF              XOR     A                   
090B: BE              CP      (HL)                
090C: 28 25           JR      Z,$933              
090E: 2E 0C           LD      L,$0C               
0910: CB 4E           BIT     1,(HL)              
0912: 20 0B           JR      NZ,$91F             
0914: 3A 85 60        LD      A,($6085)           
0917: FE 24           CP      $24                 
0919: 38 04           JR      C,$91F              
091B: FE 2E           CP      $2E                 
091D: 20 14           JR      NZ,$933             
091F: 2E 40           LD      L,$40               
0921: 3E 01           LD      A,$01               
0923: BE              CP      (HL)                
0924: 20 06           JR      NZ,$92C             
0926: D9              EXX                         
0927: 2E 1F           LD      L,$1F               
0929: CD 67 0E        CALL    $0E67               
092C: 3A 40 60        LD      A,($6040)           
092F: D6 03           SUB     $03                 
0931: 38 1C           JR      C,$94F              
0933: 3A 3B 60        LD      A,($603B)           
0936: D6 10           SUB     $10                 
0938: 4F              LD      C,A                 
0939: 21 27 60        LD      HL,$6027            
093C: CD 71 0E        CALL    $0E71               
093F: 3A 40 60        LD      A,($6040)           
0942: D6 02           SUB     $02                 
0944: 30 37           JR      NC,$97D             
0946: 79              LD      A,C                 
0947: 21 1D 60        LD      HL,$601D            
094A: CD 71 0E        CALL    $0E71               
094D: 18 2E           JR      $97D                
094F: 3A 40 60        LD      A,($6040)           
0952: D6 02           SUB     $02                 
0954: 38 07           JR      C,$95D              
0956: 3E 02           LD      A,$02               
0958: 32 3C 60        LD      ($603C),A           
095B: 18 05           JR      $962                
095D: 3E 02           LD      A,$02               
095F: 32 3D 60        LD      ($603D),A           
0962: 2E 3F           LD      L,$3F               
0964: 77              LD      (HL),A              
0965: 2C              INC     L                   
0966: 34              INC     (HL)                
0967: C3 AF 07        JP      $07AF               
096A: D9              EXX                         
096B: 2E 33           LD      L,$33               
096D: CD 67 0E        CALL    $0E67               
0970: 3A 40 60        LD      A,($6040)           
0973: D6 02           SUB     $02                 
0975: 30 06           JR      NC,$97D             
0977: D9              EXX                         
0978: 2E 35           LD      L,$35               
097A: CD 67 0E        CALL    $0E67               
097D: 21 40 60        LD      HL,$6040            
0980: 3E 02           LD      A,$02               
0982: BE              CP      (HL)                
0983: 28 0B           JR      Z,$990              
0985: 30 12           JR      NC,$999             
0987: 2E 3C           LD      L,$3C               
0989: 34              INC     (HL)                
098A: 7E              LD      A,(HL)              
098B: 32 3F 60        LD      ($603F),A           
098E: 18 15           JR      $9A5                
0990: 2E 3D           LD      L,$3D               
0992: 34              INC     (HL)                
0993: 7E              LD      A,(HL)              
0994: 32 3F 60        LD      ($603F),A           
0997: 18 0C           JR      $9A5                
0999: 2E 3E           LD      L,$3E               
099B: 34              INC     (HL)                
099C: 7E              LD      A,(HL)              
099D: 2C              INC     L                   
099E: 77              LD      (HL),A              
099F: 2E 0C           LD      L,$0C               
09A1: CB 4E           BIT     1,(HL)              
09A3: 28 22           JR      Z,$9C7              
09A5: 3A 3F 60        LD      A,($603F)           
09A8: D6 0B           SUB     $0B                 
09AA: 28 31           JR      Z,$9DD              
09AC: DA AF 07        JP      C,$07AF             
09AF: 2E 41           LD      L,$41               
09B1: 35              DEC     (HL)                
09B2: 2D              DEC     L                   
09B3: 35              DEC     (HL)                
09B4: 3E 01           LD      A,$01               
09B6: BE              CP      (HL)                
09B7: 28 30           JR      Z,$9E9              
09B9: 30 39           JR      NC,$9F4             
09BB: 2E 3C           LD      L,$3C               
09BD: AF              XOR     A                   
09BE: 77              LD      (HL),A              
09BF: 2C              INC     L                   
09C0: 34              INC     (HL)                
09C1: 7E              LD      A,(HL)              
09C2: 32 3F 60        LD      ($603F),A           
09C5: 18 DE           JR      $9A5                
09C7: 3A E1 60        LD      A,($60E1)           
09CA: A7              AND     A                   
09CB: 20 D8           JR      NZ,$9A5             
09CD: 2E 1A           LD      L,$1A               
09CF: 7E              LD      A,(HL)              
09D0: 2E 3F           LD      L,$3F               
09D2: 86              ADD     A,(HL)              
09D3: 2E 3B           LD      L,$3B               
09D5: 77              LD      (HL),A              
09D6: 3E 15           LD      A,$15               
09D8: BE              CP      (HL)                
09D9: 28 BE           JR      Z,$999              
09DB: 18 C8           JR      $9A5                
09DD: 0E 01           LD      C,$01               
09DF: CD 38 00        CALL    $0038               
09E2: 21 41 60        LD      HL,$6041            
09E5: 34              INC     (HL)                
09E6: C3 AF 07        JP      $07AF               
09E9: AF              XOR     A                   
09EA: 2E 3D           LD      L,$3D               
09EC: 77              LD      (HL),A              
09ED: 2C              INC     L                   
09EE: 34              INC     (HL)                
09EF: 7E              LD      A,(HL)              
09F0: 2C              INC     L                   
09F1: 77              LD      (HL),A              
09F2: 18 B1           JR      $9A5                
09F4: 2E 0C           LD      L,$0C               
09F6: CB 4E           BIT     1,(HL)              
09F8: 20 29           JR      NZ,$A23             
09FA: 2A 33 60        LD      HL,($6033)          
09FD: 22 64 60        LD      ($6064),HL          
0A00: 22 4C 60        LD      ($604C),HL          
0A03: 21 4E 60        LD      HL,$604E            
0A06: EB              EX      DE,HL               
0A07: 21 29 60        LD      HL,$6029            
0A0A: 06 00           LD      B,$00               
0A0C: 0E 0A           LD      C,$0A               
0A0E: ED B0           LDIR                        
0A10: 3A 16 60        LD      A,($6016)           
0A13: 32 41 60        LD      ($6041),A           
0A16: 2E 0C           LD      L,$0C               
0A18: CB CE           SET     1,(HL)              
0A1A: 3A 18 60        LD      A,($6018)           
0A1D: 32 1B 60        LD      ($601B),A           
0A20: C3 7A 07        JP      $077A               
0A23: 2E 4E           LD      L,$4E               
0A25: 3E 04           LD      A,$04               
0A27: 5E              LD      E,(HL)              
0A28: 2C              INC     L                   
0A29: 56              LD      D,(HL)              
0A2A: 2C              INC     L                   
0A2B: 4E              LD      C,(HL)              
0A2C: 2C              INC     L                   
0A2D: 46              LD      B,(HL)              
0A2E: EB              EX      DE,HL               
0A2F: 09              ADD     HL,BC               
0A30: EB              EX      DE,HL               
0A31: 3D              DEC     A                   
0A32: 20 F6           JR      NZ,$A2A             
0A34: 2C              INC     L                   
0A35: 73              LD      (HL),E              
0A36: 2C              INC     L                   
0A37: 72              LD      (HL),D              
0A38: 2E 4E           LD      L,$4E               
0A3A: D9              EXX                         
0A3B: 21 5A 60        LD      HL,$605A            
0A3E: 06 05           LD      B,$05               
0A40: D9              EXX                         
0A41: 4E              LD      C,(HL)              
0A42: 2C              INC     L                   
0A43: 46              LD      B,(HL)              
0A44: EB              EX      DE,HL               
0A45: A7              AND     A                   
0A46: ED 42           SBC     HL,BC               
0A48: E5              PUSH    HL                  
0A49: EB              EX      DE,HL               
0A4A: 2C              INC     L                   
0A4B: D9              EXX                         
0A4C: D1              POP     DE                  
0A4D: 73              LD      (HL),E              
0A4E: 2C              INC     L                   
0A4F: 72              LD      (HL),D              
0A50: 2C              INC     L                   
0A51: 10 ED           DJNZ    $A40                
0A53: D9              EXX                         
0A54: ED 5B 64 60     LD      DE,($6064)          
0A58: D5              PUSH    DE                  
0A59: 2E 4E           LD      L,$4E               
0A5B: D9              EXX                         
0A5C: 2E 64           LD      L,$64               
0A5E: 06 05           LD      B,$05               
0A60: D1              POP     DE                  
0A61: 73              LD      (HL),E              
0A62: 2C              INC     L                   
0A63: 72              LD      (HL),D              
0A64: 2C              INC     L                   
0A65: D9              EXX                         
0A66: 4E              LD      C,(HL)              
0A67: 2C              INC     L                   
0A68: 46              LD      B,(HL)              
0A69: 2C              INC     L                   
0A6A: EB              EX      DE,HL               
0A6B: 09              ADD     HL,BC               
0A6C: E5              PUSH    HL                  
0A6D: EB              EX      DE,HL               
0A6E: D9              EXX                         
0A6F: 10 EF           DJNZ    $A60                
0A71: 2E 58           LD      L,$58               
0A73: D9              EXX                         
0A74: 06 01           LD      B,$01               
0A76: 2A 35 60        LD      HL,($6035)          
0A79: EB              EX      DE,HL               
0A7A: 21 6E 60        LD      HL,$606E            
0A7D: 73              LD      (HL),E              
0A7E: 2C              INC     L                   
0A7F: 72              LD      (HL),D              
0A80: 2E 39           LD      L,$39               
0A82: CD 60 14        CALL    $1460               
0A85: 06 04           LD      B,$04               
0A87: 2E 1F           LD      L,$1F               
0A89: CD 60 14        CALL    $1460               
0A8C: D9              EXX                         
0A8D: 2E 76           LD      L,$76               
0A8F: CB 3A           SRL     D                   
0A91: CB 1B           RR      E                   
0A93: 73              LD      (HL),E              
0A94: 2C              INC     L                   
0A95: 72              LD      (HL),D              
0A96: 2E 6E           LD      L,$6E               
0A98: AF              XOR     A                   
0A99: 77              LD      (HL),A              
0A9A: 2C              INC     L                   
0A9B: 77              LD      (HL),A              
0A9C: 2E 39           LD      L,$39               
0A9E: D9              EXX                         
0A9F: 06 01           LD      B,$01               
0AA1: 21 64 60        LD      HL,$6064            
0AA4: CD 60 14        CALL    $1460               
0AA7: 06 05           LD      B,$05               
0AA9: 2E 1F           LD      L,$1F               
0AAB: D9              EXX                         
0AAC: 2E 64           LD      L,$64               
0AAE: D9              EXX                         
0AAF: CD 60 14        CALL    $1460               
0AB2: D9              EXX                         
0AB3: CB 3A           SRL     D                   
0AB5: CB 1B           RR      E                   
0AB7: D5              PUSH    DE                  
0AB8: 2E 76           LD      L,$76               
0ABA: 5E              LD      E,(HL)              
0ABB: 2C              INC     L                   
0ABC: 56              LD      D,(HL)              
0ABD: E1              POP     HL                  
0ABE: ED 52           SBC     HL,DE               
0AC0: EB              EX      DE,HL               
0AC1: 21 70 60        LD      HL,$6070            
0AC4: 73              LD      (HL),E              
0AC5: 2C              INC     L                   
0AC6: 72              LD      (HL),D              
0AC7: 2E 58           LD      L,$58               
0AC9: D9              EXX                         
0ACA: 06 01           LD      B,$01               
0ACC: 2A 33 60        LD      HL,($6033)          
0ACF: EB              EX      DE,HL               
0AD0: 21 6E 60        LD      HL,$606E            
0AD3: 73              LD      (HL),E              
0AD4: 2C              INC     L                   
0AD5: 72              LD      (HL),D              
0AD6: 2E 37           LD      L,$37               
0AD8: CD 60 14        CALL    $1460               
0ADB: 06 04           LD      B,$04               
0ADD: 2E 29           LD      L,$29               
0ADF: CD 60 14        CALL    $1460               
0AE2: D9              EXX                         
0AE3: 2E 78           LD      L,$78               
0AE5: CB 3A           SRL     D                   
0AE7: CB 1B           RR      E                   
0AE9: 73              LD      (HL),E              
0AEA: 2C              INC     L                   
0AEB: 72              LD      (HL),D              
0AEC: 2E 6E           LD      L,$6E               
0AEE: AF              XOR     A                   
0AEF: 77              LD      (HL),A              
0AF0: 2C              INC     L                   
0AF1: 77              LD      (HL),A              
0AF2: 2E 37           LD      L,$37               
0AF4: D9              EXX                         
0AF5: 06 01           LD      B,$01               
0AF7: 21 64 60        LD      HL,$6064            
0AFA: CD 60 14        CALL    $1460               
0AFD: 06 05           LD      B,$05               
0AFF: 2E 29           LD      L,$29               
0B01: D9              EXX                         
0B02: 2E 64           LD      L,$64               
0B04: D9              EXX                         
0B05: CD 60 14        CALL    $1460               
0B08: D9              EXX                         
0B09: CB 3A           SRL     D                   
0B0B: CB 1B           RR      E                   
0B0D: D5              PUSH    DE                  
0B0E: 2E 78           LD      L,$78               
0B10: 5E              LD      E,(HL)              
0B11: 2C              INC     L                   
0B12: 56              LD      D,(HL)              
0B13: E1              POP     HL                  
0B14: ED 52           SBC     HL,DE               
0B16: EB              EX      DE,HL               
0B17: 21 72 60        LD      HL,$6072            
0B1A: 73              LD      (HL),E              
0B1B: 2C              INC     L                   
0B1C: 72              LD      (HL),D              
0B1D: D9              EXX                         
0B1E: 3A 16 60        LD      A,($6016)           
0B21: 32 41 60        LD      ($6041),A           
0B24: 21 18 60        LD      HL,$6018            
0B27: 7E              LD      A,(HL)              
0B28: D6 10           SUB     $10                 
0B2A: 77              LD      (HL),A              
0B2B: 38 31           JR      C,$B5E              
0B2D: 28 2F           JR      Z,$B5E              
0B2F: D6 06           SUB     $06                 
0B31: 38 0F           JR      C,$B42              
0B33: 2E 41           LD      L,$41               
0B35: AF              XOR     A                   
0B36: BE              CP      (HL)                
0B37: 28 5A           JR      Z,$B93              
0B39: 35              DEC     (HL)                
0B3A: 2E 18           LD      L,$18               
0B3C: 7E              LD      A,(HL)              
0B3D: D6 0A           SUB     $0A                 
0B3F: 77              LD      (HL),A              
0B40: 18 E9           JR      $B2B                
0B42: 2E 18           LD      L,$18               
0B44: 7E              LD      A,(HL)              
0B45: CB 27           SLA     A                   
0B47: C6 58           ADD     A,$58               
0B49: 6F              LD      L,A                 
0B4A: 5E              LD      E,(HL)              
0B4B: 2C              INC     L                   
0B4C: 56              LD      D,(HL)              
0B4D: 7D              LD      A,L                 
0B4E: 2E 58           LD      L,$58               
0B50: 73              LD      (HL),E              
0B51: 2C              INC     L                   
0B52: 72              LD      (HL),D              
0B53: C6 09           ADD     A,$09               
0B55: 6F              LD      L,A                 
0B56: 5E              LD      E,(HL)              
0B57: 2C              INC     L                   
0B58: 56              LD      D,(HL)              
0B59: 2E 64           LD      L,$64               
0B5B: 73              LD      (HL),E              
0B5C: 2C              INC     L                   
0B5D: 72              LD      (HL),D              
0B5E: 2E 58           LD      L,$58               
0B60: 4E              LD      C,(HL)              
0B61: 2C              INC     L                   
0B62: 46              LD      B,(HL)              
0B63: CB 38           SRL     B                   
0B65: CB 19           RR      C                   
0B67: 2A 64 60        LD      HL,($6064)          
0B6A: CB 3C           SRL     H                   
0B6C: CB 1D           RR      L                   
0B6E: ED 42           SBC     HL,BC               
0B70: 22 74 60        LD      ($6074),HL          
0B73: 06 03           LD      B,$03               
0B75: 21 75 60        LD      HL,$6075            
0B78: CB 2E           SRA     (HL)                
0B7A: 2D              DEC     L                   
0B7B: CB 1E           RR      (HL)                
0B7D: 2D              DEC     L                   
0B7E: 10 F8           DJNZ    $B78                
0B80: CD E2 0D        CALL    $0DE2               
0B83: 38 1A           JR      C,$B9F              
0B85: 21 72 60        LD      HL,$6072            
0B88: 4E              LD      C,(HL)              
0B89: 2C              INC     L                   
0B8A: 46              LD      B,(HL)              
0B8B: 2A 74 60        LD      HL,($6074)          
0B8E: ED 42           SBC     HL,BC               
0B90: FA C9 0B        JP      M,$0BC9             
0B93: AF              XOR     A                   
0B94: 32 7A 60        LD      ($607A),A           
0B97: 2A 74 60        LD      HL,($6074)          
0B9A: 22 7C 60        LD      ($607C),HL          
0B9D: 18 42           JR      $BE1                
0B9F: 2E 72           LD      L,$72               
0BA1: 4E              LD      C,(HL)              
0BA2: 2C              INC     L                   
0BA3: 46              LD      B,(HL)              
0BA4: CB 28           SRA     B                   
0BA6: CB 19           RR      C                   
0BA8: 2E 70           LD      L,$70               
0BAA: 5E              LD      E,(HL)              
0BAB: 2C              INC     L                   
0BAC: 56              LD      D,(HL)              
0BAD: 62              LD      H,D                 
0BAE: 6B              LD      L,E                 
0BAF: 3A F9 60        LD      A,($60F9)           
0BB2: A7              AND     A                   
0BB3: C2 E3 0C        JP      NZ,$0CE3            
0BB6: ED 42           SBC     HL,BC               
0BB8: FA 85 0B        JP      M,$0B85             
0BBB: 2A 74 60        LD      HL,($6074)          
0BBE: CB 2C           SRA     H                   
0BC0: CB 1D           RR      L                   
0BC2: ED 52           SBC     HL,DE               
0BC4: FA D6 0B        JP      M,$0BD6             
0BC7: 18 CA           JR      $B93                
0BC9: 3E 01           LD      A,$01               
0BCB: 32 7A 60        LD      ($607A),A           
0BCE: 2A 72 60        LD      HL,($6072)          
0BD1: 22 7C 60        LD      ($607C),HL          
0BD4: 18 0B           JR      $BE1                
0BD6: 3E 06           LD      A,$06               
0BD8: 32 7A 60        LD      ($607A),A           
0BDB: 2A 70 60        LD      HL,($6070)          
0BDE: 22 7C 60        LD      ($607C),HL          
0BE1: 21 0C 60        LD      HL,$600C            
0BE4: CB 56           BIT     2,(HL)              
0BE6: 20 56           JR      NZ,$C3E             
0BE8: 2E 7A           LD      L,$7A               
0BEA: 7E              LD      A,(HL)              
0BEB: 2C              INC     L                   
0BEC: 77              LD      (HL),A              
0BED: 2A 7C 60        LD      HL,($607C)          
0BF0: 22 7E 60        LD      ($607E),HL          
0BF3: 3A 0F 60        LD      A,($600F)           
0BF6: A7              AND     A                   
0BF7: C2 46 0D        JP      NZ,$0D46            
0BFA: 21 0D 60        LD      HL,$600D            
0BFD: 7E              LD      A,(HL)              
0BFE: 2C              INC     L                   
0BFF: BE              CP      (HL)                
0C00: C2 46 0D        JP      NZ,$0D46            
0C03: 47              LD      B,A                 
0C04: 3A 00 60        LD      A,($6000)           
0C07: A7              AND     A                   
0C08: C2 46 0D        JP      NZ,$0D46            
0C0B: 3A 85 60        LD      A,($6085)           
0C0E: FE 63           CP      $63                 
0C10: 20 0C           JR      NZ,$C1E             
0C12: E5              PUSH    HL                  
0C13: 21 1E 60        LD      HL,$601E            
0C16: 3A 8A 60        LD      A,($608A)           
0C19: B6              OR      (HL)                
0C1A: E1              POP     HL                  
0C1B: C2 46 0D        JP      NZ,$0D46            
0C1E: AF              XOR     A                   
0C1F: 77              LD      (HL),A              
0C20: 3C              INC     A                   
0C21: 32 37 64        LD      ($6437),A           
0C24: 2E 0C           LD      L,$0C               
0C26: CB D6           SET     2,(HL)              
0C28: 78              LD      A,B                 
0C29: 32 1B 60        LD      ($601B),A           
0C2C: 32 18 60        LD      ($6018),A           
0C2F: 3A 16 60        LD      A,($6016)           
0C32: 32 41 60        LD      ($6041),A           
0C35: 2A 4C 60        LD      HL,($604C)          
0C38: 22 64 60        LD      ($6064),HL          
0C3B: C3 7A 07        JP      $077A               
0C3E: 21 7F 60        LD      HL,$607F            
0C41: 56              LD      D,(HL)              
0C42: 2D              DEC     L                   
0C43: 5E              LD      E,(HL)              
0C44: 2D              DEC     L                   
0C45: 46              LD      B,(HL)              
0C46: 2D              DEC     L                   
0C47: 4E              LD      C,(HL)              
0C48: 2D              DEC     L                   
0C49: 3E 06           LD      A,$06               
0C4B: BE              CP      (HL)                
0C4C: 28 04           JR      Z,$C52              
0C4E: CB 2A           SRA     D                   
0C50: CB 1B           RR      E                   
0C52: 2A 70 60        LD      HL,($6070)          
0C55: 3A 0D 60        LD      A,($600D)           
0C58: FE 0B           CP      $0B                 
0C5A: 28 02           JR      Z,$C5E              
0C5C: 60              LD      H,B                 
0C5D: 69              LD      L,C                 
0C5E: A7              AND     A                   
0C5F: ED 52           SBC     HL,DE               
0C61: FA 6C 0C        JP      M,$0C6C             
0C64: 21 7A 60        LD      HL,$607A            
0C67: 36 09           LD      (HL),$09            
0C69: C3 E8 0B        JP      $0BE8               
0C6C: 3A F9 60        LD      A,($60F9)           
0C6F: A7              AND     A                   
0C70: C2 3C 0D        JP      NZ,$0D3C            
0C73: 3A 85 60        LD      A,($6085)           
0C76: FE 2E           CP      $2E                 
0C78: CA 3C 0D        JP      Z,$0D3C             
0C7B: FE 2C           CP      $2C                 
0C7D: DA 3C 0D        JP      C,$0D3C             
0C80: 2A D4 60        LD      HL,($60D4)          
0C83: 2B              DEC     HL                  
0C84: 22 D4 60        LD      ($60D4),HL          
0C87: 01 06 00        LD      BC,$0006            
0C8A: 21 7A 60        LD      HL,$607A            
0C8D: 11 FA 60        LD      DE,$60FA            
0C90: ED B0           LDIR                        
0C92: 2A 7C 60        LD      HL,($607C)          
0C95: CB 25           SLA     L                   
0C97: CB 14           RL      H                   
0C99: 22 7C 60        LD      ($607C),HL          
0C9C: 21 0D 60        LD      HL,$600D            
0C9F: 3E 0A           LD      A,$0A               
0CA1: BE              CP      (HL)                
0CA2: DA 3C 0D        JP      C,$0D3C             
0CA5: 32 F9 60        LD      ($60F9),A           
0CA8: 3A F9 60        LD      A,($60F9)           
0CAB: FE 07           CP      $07                 
0CAD: 38 6D           JR      C,$D1C              
0CAF: 21 0D 60        LD      HL,$600D            
0CB2: 28 12           JR      Z,$CC6              
0CB4: 3D              DEC     A                   
0CB5: 32 F9 60        LD      ($60F9),A           
0CB8: 96              SUB     (HL)                
0CB9: 38 0B           JR      C,$CC6              
0CBB: 3C              INC     A                   
0CBC: 3C              INC     A                   
0CBD: 2C              INC     L                   
0CBE: 77              LD      (HL),A              
0CBF: 6F              LD      L,A                 
0CC0: 7E              LD      A,(HL)              
0CC1: A7              AND     A                   
0CC2: 28 E4           JR      Z,$CA8              
0CC4: 18 10           JR      $CD6                
0CC6: 3E 06           LD      A,$06               
0CC8: 32 F9 60        LD      ($60F9),A           
0CCB: 2C              INC     L                   
0CCC: 36 0B           LD      (HL),$0B            
0CCE: 21 16 60        LD      HL,$6016            
0CD1: 34              INC     (HL)                
0CD2: 3E 0B           LD      A,$0B               
0CD4: 18 E9           JR      $CBF                
0CD6: 21 0D 60        LD      HL,$600D            
0CD9: 7E              LD      A,(HL)              
0CDA: 2C              INC     L                   
0CDB: 86              ADD     A,(HL)              
0CDC: 2E 0C           LD      L,$0C               
0CDE: CB 96           RES     2,(HL)              
0CE0: C3 29 0C        JP      $0C29               
0CE3: ED 42           SBC     HL,BC               
0CE5: FA A8 0C        JP      M,$0CA8             
0CE8: CB 25           SLA     L                   
0CEA: CB 14           RL      H                   
0CEC: CB 25           SLA     L                   
0CEE: CB 14           RL      H                   
0CF0: E5              PUSH    HL                  
0CF1: D9              EXX                         
0CF2: D1              POP     DE                  
0CF3: D9              EXX                         
0CF4: 21 00 60        LD      HL,$6000            
0CF7: 3A 0E 60        LD      A,($600E)           
0CFA: 85              ADD     A,L                 
0CFB: 6F              LD      L,A                 
0CFC: 6E              LD      L,(HL)              
0CFD: 26 00           LD      H,$00               
0CFF: ED 5B D4 60     LD      DE,($60D4)          
0D03: CD 36 14        CALL    $1436               
0D06: 7C              LD      A,H                 
0D07: 4D              LD      C,L                 
0D08: D9              EXX                         
0D09: D5              PUSH    DE                  
0D0A: D9              EXX                         
0D0B: D1              POP     DE                  
0D0C: CD 83 14        CALL    $1483               
0D0F: 22 43 60        LD      ($6043),HL          
0D12: EB              EX      DE,HL               
0D13: 2A 7C 60        LD      HL,($607C)          
0D16: 19              ADD     HL,DE               
0D17: 22 7C 60        LD      ($607C),HL          
0D1A: 18 8C           JR      $CA8                
0D1C: 2A 7C 60        LD      HL,($607C)          
0D1F: CB 2C           SRA     H                   
0D21: CB 1D           RR      L                   
0D23: 22 FC 60        LD      ($60FC),HL          
0D26: 01 06 00        LD      BC,$0006            
0D29: 11 7A 60        LD      DE,$607A            
0D2C: 21 FA 60        LD      HL,$60FA            
0D2F: ED B0           LDIR                        
0D31: AF              XOR     A                   
0D32: 32 0E 60        LD      ($600E),A           
0D35: 3C              INC     A                   
0D36: 32 7A 60        LD      ($607A),A           
0D39: C3 3E 0C        JP      $0C3E               
0D3C: AF              XOR     A                   
0D3D: 32 37 64        LD      ($6437),A           
0D40: 3A 0D 60        LD      A,($600D)           
0D43: 32 0E 60        LD      ($600E),A           
0D46: AF              XOR     A                   
0D47: 32 83 60        LD      ($6083),A           
0D4A: 2A 7E 60        LD      HL,($607E)          
0D4D: 7C              LD      A,H                 
0D4E: A7              AND     A                   
0D4F: F2 B2 0D        JP      P,$0DB2             
0D52: EB              EX      DE,HL               
0D53: 21 00 00        LD      HL,$0000            
0D56: A7              AND     A                   
0D57: ED 52           SBC     HL,DE               
0D59: 44              LD      B,H                 
0D5A: 4D              LD      C,L                 
0D5B: 3A 7B 60        LD      A,($607B)           
0D5E: FE 05           CP      $05                 
0D60: 38 04           JR      C,$D66              
0D62: CB 21           SLA     C                   
0D64: CB 10           RL      B                   
0D66: 78              LD      A,B                 
0D67: D6 20           SUB     $20                 
0D69: F2 AD 0D        JP      P,$0DAD             
0D6C: 3A 85 60        LD      A,($6085)           
0D6F: FE 63           CP      $63                 
0D71: 20 3F           JR      NZ,$DB2             
0D73: 3A 1A 60        LD      A,($601A)           
0D76: FE 0A           CP      $0A                 
0D78: 38 38           JR      C,$DB2              
0D7A: C5              PUSH    BC                  
0D7B: ED 5B D4 60     LD      DE,($60D4)          
0D7F: 26 00           LD      H,$00               
0D81: 28 05           JR      Z,$D88              
0D83: 3A 0A 60        LD      A,($600A)           
0D86: 18 03           JR      $D8B                
0D88: 3A 0B 60        LD      A,($600B)           
0D8B: 6F              LD      L,A                 
0D8C: CD 36 14        CALL    $1436               
0D8F: C1              POP     BC                  
0D90: E5              PUSH    HL                  
0D91: EB              EX      DE,HL               
0D92: 21 00 00        LD      HL,$0000            
0D95: A7              AND     A                   
0D96: ED 52           SBC     HL,DE               
0D98: EB              EX      DE,HL               
0D99: 78              LD      A,B                 
0D9A: CD 83 14        CALL    $1483               
0D9D: D1              POP     DE                  
0D9E: CB 2A           SRA     D                   
0DA0: CB 1B           RR      E                   
0DA2: CB 2A           SRA     D                   
0DA4: CB 1B           RR      E                   
0DA6: 19              ADD     HL,DE               
0DA7: 7C              LD      A,H                 
0DA8: D6 20           SUB     $20                 
0DAA: FA B2 0D        JP      M,$0DB2             
0DAD: 3E 01           LD      A,$01               
0DAF: 32 83 60        LD      ($6083),A           
0DB2: CD FC 13        CALL    $13FC               
0DB5: CD 19 17        CALL    $1719               
0DB8: 30 06           JR      NC,$DC0             
0DBA: 3A 0D 60        LD      A,($600D)           
0DBD: 32 0E 60        LD      ($600E),A           
0DC0: AF              XOR     A                   
0DC1: 32 D9 60        LD      ($60D9),A           
0DC4: CD 38 17        CALL    $1738               
0DC7: CD 7B 1C        CALL    $1C7B               
0DCA: 3A 83 60        LD      A,($6083)           
0DCD: A7              AND     A                   
0DCE: 28 0A           JR      Z,$DDA              
0DD0: 32 31 64        LD      ($6431),A           
0DD3: CD 13 1C        CALL    $1C13               
0DD6: AF              XOR     A                   
0DD7: 32 31 64        LD      ($6431),A           
0DDA: CD 30 17        CALL    $1730               
0DDD: 0E 00           LD      C,$00               
0DDF: CD 38 00        CALL    $0038               
0DE2: 3A 0F 60        LD      A,($600F)           
0DE5: FE 01           CP      $01                 
0DE7: D0              RET     NC                  
0DE8: 3A 8A 60        LD      A,($608A)           
0DEB: A7              AND     A                   
0DEC: 21 85 60        LD      HL,$6085            
0DEF: 20 28           JR      NZ,$E19             
0DF1: 3A 1E 60        LD      A,($601E)           
0DF4: A7              AND     A                   
0DF5: 20 22           JR      NZ,$E19             
0DF7: 3A 0C 60        LD      A,($600C)           
0DFA: CB 57           BIT     2,A                 
0DFC: 28 02           JR      Z,$E00              
0DFE: A7              AND     A                   
0DFF: C9              RET                         
0E00: 3E 24           LD      A,$24               
0E02: BE              CP      (HL)                
0E03: D8              RET     C                   
0E04: 3A 1B 60        LD      A,($601B)           
0E07: FE 14           CP      $14                 
0E09: 28 08           JR      Z,$E13              
0E0B: FE 0C           CP      $0C                 
0E0D: D0              RET     NC                  
0E0E: 47              LD      B,A                 
0E0F: 3E 09           LD      A,$09               
0E11: B8              CP      B                   
0E12: C9              RET                         
0E13: 21 16 60        LD      HL,$6016            
0E16: AF              XOR     A                   
0E17: BE              CP      (HL)                
0E18: C9              RET                         
0E19: 3E 2E           LD      A,$2E               
0E1B: BE              CP      (HL)                
0E1C: C8              RET     Z                   
0E1D: 3E 2C           LD      A,$2C               
0E1F: BE              CP      (HL)                
0E20: C9              RET                         
0E21: 3A F9 60        LD      A,($60F9)           
0E24: A7              AND     A                   
0E25: 28 09           JR      Z,$E30              
0E27: 3A 0E 60        LD      A,($600E)           
0E2A: 21 00 60        LD      HL,$6000            
0E2D: 85              ADD     A,L                 
0E2E: 6F              LD      L,A                 
0E2F: 35              DEC     (HL)                
0E30: 21 3E 60        LD      HL,$603E            
0E33: 6E              LD      L,(HL)              
0E34: 35              DEC     (HL)                
0E35: AF              XOR     A                   
0E36: 2E 3D           LD      L,$3D               
0E38: BE              CP      (HL)                
0E39: C8              RET     Z                   
0E3A: 6E              LD      L,(HL)              
0E3B: 35              DEC     (HL)                
0E3C: 2E 3C           LD      L,$3C               
0E3E: AF              XOR     A                   
0E3F: BE              CP      (HL)                
0E40: C8              RET     Z                   
0E41: 6E              LD      L,(HL)              
0E42: 35              DEC     (HL)                
0E43: C9              RET                         
0E44: 3A F9 60        LD      A,($60F9)           
0E47: A7              AND     A                   
0E48: 28 09           JR      Z,$E53              
0E4A: 3A 0E 60        LD      A,($600E)           
0E4D: 21 00 60        LD      HL,$6000            
0E50: 85              ADD     A,L                 
0E51: 6F              LD      L,A                 
0E52: 34              INC     (HL)                
0E53: 21 3E 60        LD      HL,$603E            
0E56: 6E              LD      L,(HL)              
0E57: 34              INC     (HL)                
0E58: 2E 3D           LD      L,$3D               
0E5A: AF              XOR     A                   
0E5B: BE              CP      (HL)                
0E5C: C8              RET     Z                   
0E5D: 6E              LD      L,(HL)              
0E5E: 34              INC     (HL)                
0E5F: 2E 3C           LD      L,$3C               
0E61: AF              XOR     A                   
0E62: BE              CP      (HL)                
0E63: C8              RET     Z                   
0E64: 6E              LD      L,(HL)              
0E65: 34              INC     (HL)                
0E66: C9              RET                         
0E67: ED 4B 49 60     LD      BC,($6049)          
0E6B: 26 60           LD      H,$60               
0E6D: CD 82 0E        CALL    $0E82               
0E70: C9              RET                         
0E71: D9              EXX                         
0E72: ED 4B 49 60     LD      BC,($6049)          
0E76: D9              EXX                         
0E77: CD 7B 0E        CALL    $0E7B               
0E7A: C9              RET                         
0E7B: E5              PUSH    HL                  
0E7C: D9              EXX                         
0E7D: E1              POP     HL                  
0E7E: CB 27           SLA     A                   
0E80: 85              ADD     A,L                 
0E81: 6F              LD      L,A                 
0E82: E5              PUSH    HL                  
0E83: 5E              LD      E,(HL)              
0E84: 2C              INC     L                   
0E85: 56              LD      D,(HL)              
0E86: EB              EX      DE,HL               
0E87: 09              ADD     HL,BC               
0E88: DC 92 0E        CALL    C,$0E92             
0E8B: EB              EX      DE,HL               
0E8C: E1              POP     HL                  
0E8D: 73              LD      (HL),E              
0E8E: 2C              INC     L                   
0E8F: 72              LD      (HL),D              
0E90: D9              EXX                         
0E91: C9              RET                         
0E92: 21 FF FF        LD      HL,$FFFF            
0E95: C9              RET                         
0E96: E5              PUSH    HL                  
0E97: 5E              LD      E,(HL)              
0E98: 2C              INC     L                   
0E99: 56              LD      D,(HL)              
0E9A: 67              LD      H,A                 
0E9B: 69              LD      L,C                 
0E9C: 19              ADD     HL,DE               
0E9D: EB              EX      DE,HL               
0E9E: E1              POP     HL                  
0E9F: 73              LD      (HL),E              
0EA0: 2C              INC     L                   
0EA1: 72              LD      (HL),D              
0EA2: 2C              INC     L                   
0EA3: 10 F1           DJNZ    $E96                
0EA5: C9              RET                         
0EA6: 21 01 60        LD      HL,$6001            
0EA9: 11 00 00        LD      DE,$0000            
0EAC: 06 0A           LD      B,$0A               
0EAE: 2C              INC     L                   
0EAF: 7B              LD      A,E                 
0EB0: 86              ADD     A,(HL)              
0EB1: 5F              LD      E,A                 
0EB2: 30 01           JR      NC,$EB5             
0EB4: 14              INC     D                   
0EB5: 10 F7           DJNZ    $EAE                
0EB7: EB              EX      DE,HL               
0EB8: 22 D4 60        LD      ($60D4),HL          
0EBB: 22 D6 60        LD      ($60D6),HL          
0EBE: 22 81 60        LD      ($6081),HL          
0EC1: C9              RET                         
0EC2: CD 38 17        CALL    $1738               
0EC5: CD A6 0E        CALL    $0EA6               
0EC8: E5              PUSH    HL                  
0EC9: CD FC 13        CALL    $13FC               
0ECC: E1              POP     HL                  
0ECD: 3E 01           LD      A,$01               
0ECF: 32 26 64        LD      ($6426),A           
0ED2: ED 5B 0A 60     LD      DE,($600A)          
0ED6: AF              XOR     A                   
0ED7: 57              LD      D,A                 
0ED8: ED 52           SBC     HL,DE               
0EDA: ED 52           SBC     HL,DE               
0EDC: ED 52           SBC     HL,DE               
0EDE: 7D              LD      A,L                 
0EDF: FA E5 0E        JP      M,$0EE5             
0EE2: 37              SCF                         
0EE3: 18 08           JR      $EED                
0EE5: 2F              CPL                         
0EE6: 3C              INC     A                   
0EE7: A7              AND     A                   
0EE8: 21 7B 60        LD      HL,$607B            
0EEB: 36 00           LD      (HL),$00            
0EED: CD 74 1C        CALL    $1C74               
0EF0: CD D2 1D        CALL    $1DD2               
0EF3: CD 30 17        CALL    $1730               
0EF6: C3 AD 1A        JP      $1AAD               
0EF9: CD 38 00        CALL    $0038               
0EFC: 21 0D 60        LD      HL,$600D            
0EFF: 0E 0B           LD      C,$0B               
0F01: 06 08           LD      B,$08               
0F03: AF              XOR     A                   
0F04: 5F              LD      E,A                 
0F05: 86              ADD     A,(HL)              
0F06: 57              LD      D,A                 
0F07: 79              LD      A,C                 
0F08: BE              CP      (HL)                
0F09: 7A              LD      A,D                 
0F0A: CC 18 0F        CALL    Z,$0F18             
0F0D: 2C              INC     L                   
0F0E: 10 F5           DJNZ    $F05                
0F10: 32 18 60        LD      ($6018),A           
0F13: 21 16 60        LD      HL,$6016            
0F16: 73              LD      (HL),E              
0F17: C9              RET                         
0F18: 1C              INC     E                   
0F19: C9              RET                         

0F1A: F5              PUSH    AF                  
0F1B: C5              PUSH    BC                  
0F1C: 3A 01 60        LD      A,($6001)           
0F1F: 47              LD      B,A                 
0F20: 0E 34           LD      C,$34               ; 52
0F22: AF              XOR     A                   
0F23: 57              LD      D,A                 
0F24: 5F              LD      E,A                 
0F25: 81              ADD     A,C                 
0F26: 30 01           JR      NC,$F29             
0F28: 14              INC     D                   
0F29: 10 FA           DJNZ    $F25                
0F2B: 5F              LD      E,A                 
0F2C: 1B              DEC     DE                  
0F2D: 1B              DEC     DE                  
0F2E: 1B              DEC     DE                  
0F2F: D5              PUSH    DE                  
0F30: CD 9F 03        CALL    $039F               
0F33: D1              POP     DE                  
0F34: AF              XOR     A                   
0F35: ED 52           SBC     HL,DE               
0F37: C2 F9 0F        JP      NZ,$0FF9            
0F3A: 3A 01 60        LD      A,($6001)           
0F3D: FE 01           CP      $01                 
0F3F: 20 50           JR      NZ,$F91             
0F41: 3A 1A 60        LD      A,($601A)           
0F44: FE 03           CP      $03                 
0F46: 20 1B           JR      NZ,$F63             
0F48: 21 0D 60        LD      HL,$600D            
0F4B: 7E              LD      A,(HL)              
0F4C: 23              INC     HL                  
0F4D: BE              CP      (HL)                
0F4E: C2 F9 0F        JP      NZ,$0FF9            
0F51: FE 02           CP      $02                 
0F53: C2 F9 0F        JP      NZ,$0FF9            
0F56: 3A 85 60        LD      A,($6085)           
0F59: FE 29           CP      $29                 
0F5B: C2 F9 0F        JP      NZ,$0FF9            
0F5E: 3E 09           LD      A,$09               
0F60: C3 E9 0F        JP      $0FE9               
0F63: FE 06           CP      $06                 
0F65: C2 F9 0F        JP      NZ,$0FF9            
0F68: CD FC 0E        CALL    $0EFC               
0F6B: FE 0C           CP      $0C                 
0F6D: 20 15           JR      NZ,$F84             
0F6F: 7B              LD      A,E                 
0F70: A7              AND     A                   
0F71: C2 F9 0F        JP      NZ,$0FF9            
0F74: 21 0D 60        LD      HL,$600D            
0F77: 7E              LD      A,(HL)              
0F78: FE 0A           CP      $0A                 
0F7A: 28 04           JR      Z,$F80              
0F7C: FE 02           CP      $02                 
0F7E: 20 79           JR      NZ,$FF9             
0F80: 3E 01           LD      A,$01               
0F82: 18 65           JR      $FE9                
0F84: FE 13           CP      $13                 
0F86: 20 71           JR      NZ,$FF9             
0F88: 7B              LD      A,E                 
0F89: FE 01           CP      $01                 
0F8B: 20 6C           JR      NZ,$FF9             
0F8D: 3E 06           LD      A,$06               
0F8F: 18 58           JR      $FE9                
0F91: 3A 1A 60        LD      A,($601A)           
0F94: FE 04           CP      $04                 
0F96: 28 44           JR      Z,$FDC              
0F98: FE 02           CP      $02                 
0F9A: 20 5D           JR      NZ,$FF9             
0F9C: CD FC 0E        CALL    $0EFC               
0F9F: FE 0C           CP      $0C                 
0FA1: 20 16           JR      NZ,$FB9             
0FA3: 7B              LD      A,E                 
0FA4: A7              AND     A                   
0FA5: 20 52           JR      NZ,$FF9             
0FA7: 3A 0D 60        LD      A,($600D)           
0FAA: FE 06           CP      $06                 
0FAC: 20 4B           JR      NZ,$FF9             
0FAE: 3A 85 60        LD      A,($6085)           
0FB1: FE 29           CP      $29                 
0FB3: 20 44           JR      NZ,$FF9             
0FB5: 3E 01           LD      A,$01               
0FB7: 18 30           JR      $FE9                
0FB9: FE 11           CP      $11                 
0FBB: 20 09           JR      NZ,$FC6             
0FBD: 7B              LD      A,E                 
0FBE: FE 01           CP      $01                 
0FC0: 20 04           JR      NZ,$FC6             
0FC2: 3E 01           LD      A,$01               
0FC4: 18 23           JR      $FE9                
0FC6: 3A 01 60        LD      A,($6001)           
0FC9: FE 04           CP      $04                 
0FCB: 38 2C           JR      C,$FF9              
0FCD: CD FC 0E        CALL    $0EFC               
0FD0: FE 09           CP      $09                 
0FD2: 20 25           JR      NZ,$FF9             
0FD4: 7B              LD      A,E                 
0FD5: A7              AND     A                   
0FD6: 20 21           JR      NZ,$FF9             
0FD8: 3E 01           LD      A,$01               
0FDA: 18 0D           JR      $FE9                
0FDC: CD FC 0E        CALL    $0EFC               
0FDF: FE 0E           CP      $0E                 
0FE1: 20 16           JR      NZ,$FF9             
0FE3: 7B              LD      A,E                 
0FE4: A7              AND     A                   
0FE5: 28 12           JR      Z,$FF9              
0FE7: 3E 01           LD      A,$01               
0FE9: C1              POP     BC                  
0FEA: C1              POP     BC                  
0FEB: E1              POP     HL                  
0FEC: 32 7B 60        LD      ($607B),A           
0FEF: AF              XOR     A                   
0FF0: 32 83 60        LD      ($6083),A           
0FF3: CD C8 1D        CALL    $1DC8               
0FF6: C3 B2 0D        JP      $0DB2               
0FF9: C1              POP     BC                  
0FFA: F1              POP     AF                  
0FFB: 21 07 65        LD      HL,$6507            
0FFE: 71              LD      (HL),C              
0FFF: FE 15           CP      $15                 
1001: 28 40           JR      Z,$1043             
1003: 47              LD      B,A                 
1004: 3A 0F 60        LD      A,($600F)           
1007: A7              AND     A                   
1008: 20 20           JR      NZ,$102A            
100A: 78              LD      A,B                 
100B: FE 12           CP      $12                 
100D: DA 11 11        JP      C,$1111             
1010: 79              LD      A,C                 
1011: A7              AND     A                   
1012: C2 11 11        JP      NZ,$1111            
1015: 78              LD      A,B                 
1016: FE 14           CP      $14                 
1018: CA 11 11        JP      Z,$1111             
101B: 21 0D 60        LD      HL,$600D            
101E: 3E 0A           LD      A,$0A               
1020: BE              CP      (HL)                
1021: 28 20           JR      Z,$1043             
1023: 2C              INC     L                   
1024: BE              CP      (HL)                
1025: 28 1C           JR      Z,$1043             
1027: C3 11 11        JP      $1111               
102A: 79              LD      A,C                 
102B: A7              AND     A                   
102C: 78              LD      A,B                 
102D: 28 0B           JR      Z,$103A             
102F: FE 11           CP      $11                 
1031: 38 1B           JR      C,$104E             
1033: FE 13           CP      $13                 
1035: 30 0C           JR      NC,$1043            
1037: C3 11 11        JP      $1111               
103A: FE 0C           CP      $0C                 
103C: 38 10           JR      C,$104E             
103E: FE 12           CP      $12                 
1040: DA 11 11        JP      C,$1111             
1043: E1              POP     HL                  
1044: AF              XOR     A                   
1045: 32 7B 60        LD      ($607B),A           
1048: 32 83 60        LD      ($6083),A           
104B: C3 B2 0D        JP      $0DB2               
104E: E1              POP     HL                  
104F: 3E 01           LD      A,$01               
1051: 32 7B 60        LD      ($607B),A           
1054: AF              XOR     A                   
1055: 32 83 60        LD      ($6083),A           
1058: C3 B2 0D        JP      $0DB2               
105B: AF              XOR     A                   
105C: 32 E2 60        LD      ($60E2),A           
105F: 32 E3 60        LD      ($60E3),A           
1062: 3A E0 60        LD      A,($60E0)           
1065: FE 0B           CP      $0B                 
1067: CC 89 10        CALL    Z,$1089             
106A: 3A E1 60        LD      A,($60E1)           
106D: FE 0B           CP      $0B                 
106F: CC 89 10        CALL    Z,$1089             
1072: 21 E0 60        LD      HL,$60E0            
1075: 86              ADD     A,(HL)              
1076: 47              LD      B,A                 
1077: 32 E3 60        LD      ($60E3),A           
107A: 3A E2 60        LD      A,($60E2)           
107D: FE 02           CP      $02                 
107F: C0              RET     NZ                  
1080: 3A E3 60        LD      A,($60E3)           
1083: D6 0A           SUB     $0A                 
1085: 32 E3 60        LD      ($60E3),A           
1088: C9              RET                         
1089: 21 E2 60        LD      HL,$60E2            
108C: 34              INC     (HL)                
108D: C9              RET                         
108E: 3A E3 60        LD      A,($60E3)           
1091: 4F              LD      C,A                 
1092: 3E 11           LD      A,$11               
1094: B9              CP      C                   
1095: 30 03           JR      NC,$109A            
1097: 59              LD      E,C                 
1098: 18 73           JR      $110D               
109A: 3A E2 60        LD      A,($60E2)           
109D: A7              AND     A                   
109E: 28 13           JR      Z,$10B3             
10A0: 1E 11           LD      E,$11               
10A2: 79              LD      A,C                 
10A3: FE 11           CP      $11                 
10A5: 30 66           JR      NC,$110D            
10A7: 3E 1C           LD      A,$1C               
10A9: 91              SUB     C                   
10AA: 5F              LD      E,A                 
10AB: 79              LD      A,C                 
10AC: FE 10           CP      $10                 
10AE: 20 5D           JR      NZ,$110D            
10B0: 1C              INC     E                   
10B1: 18 5A           JR      $110D               
10B3: 79              LD      A,C                 
10B4: FE 0C           CP      $0C                 
10B6: 38 0A           JR      C,$10C2             
10B8: FE 11           CP      $11                 
10BA: 1E 0C           LD      E,$0C               
10BC: 38 4F           JR      C,$110D             
10BE: 1E 11           LD      E,$11               
10C0: 18 4B           JR      $110D               
10C2: FE 07           CP      $07                 
10C4: 30 06           JR      NC,$10CC            
10C6: 3E 12           LD      A,$12               
10C8: 91              SUB     C                   
10C9: 5F              LD      E,A                 
10CA: 18 41           JR      $110D               
10CC: 79              LD      A,C                 
10CD: FE 09           CP      $09                 
10CF: 1E 11           LD      E,$11               
10D1: 38 3A           JR      C,$110D             
10D3: 21 E0 60        LD      HL,$60E0            
10D6: 20 0E           JR      NZ,$10E6            
10D8: 1E 10           LD      E,$10               
10DA: 7E              LD      A,(HL)              
10DB: FE 04           CP      $04                 
10DD: 28 2E           JR      Z,$110D             
10DF: FE 05           CP      $05                 
10E1: 28 2A           JR      Z,$110D             
10E3: 1C              INC     E                   
10E4: 18 27           JR      $110D               
10E6: FE 0B           CP      $0B                 
10E8: 28 0E           JR      Z,$10F8             
10EA: 1E 11           LD      E,$11               
10EC: 7E              LD      A,(HL)              
10ED: FE 04           CP      $04                 
10EF: 28 1C           JR      Z,$110D             
10F1: FE 06           CP      $06                 
10F3: 28 18           JR      Z,$110D             
10F5: 1D              DEC     E                   
10F6: 18 15           JR      $110D               
10F8: 1E 10           LD      E,$10               
10FA: 7E              LD      A,(HL)              
10FB: FE 02           CP      $02                 
10FD: 28 0E           JR      Z,$110D             
10FF: FE 09           CP      $09                 
1101: 28 0A           JR      Z,$110D             
1103: 1D              DEC     E                   
1104: FE 03           CP      $03                 
1106: 28 05           JR      Z,$110D             
1108: FE 08           CP      $08                 
110A: 28 01           JR      Z,$110D             
110C: 1D              DEC     E                   
110D: 7A              LD      A,D                 
110E: BB              CP      E                   
110F: D1              POP     DE                  
1110: C9              RET                         
1111: 3A 08 65        LD      A,($6508)           
1114: A7              AND     A                   
1115: C8              RET     Z                   
1116: 3A E1 60        LD      A,($60E1)           
1119: A7              AND     A                   
111A: C0              RET     NZ                  
111B: D5              PUSH    DE                  
111C: 3A E1 60        LD      A,($60E1)           
111F: A7              AND     A                   
1120: C2 8E 10        JP      NZ,$108E            
1123: CD E0 16        CALL    $16E0               
1126: 20 03           JR      NZ,$112B            
1128: CD 21 0E        CALL    $0E21               
112B: 21 02 60        LD      HL,$6002            
112E: 7E              LD      A,(HL)              
112F: 2C              INC     L                   
1130: 86              ADD     A,(HL)              
1131: 2C              INC     L                   
1132: 5E              LD      E,(HL)              
1133: CB 23           SLA     E                   
1135: 83              ADD     A,E                 
1136: 2C              INC     L                   
1137: 5E              LD      E,(HL)              
1138: CB 23           SLA     E                   
113A: 83              ADD     A,E                 
113B: 2C              INC     L                   
113C: 86              ADD     A,(HL)              
113D: 2C              INC     L                   
113E: 86              ADD     A,(HL)              
113F: 5F              LD      E,A                 
1140: 21 0A 60        LD      HL,$600A            
1143: 7E              LD      A,(HL)              
1144: 17              RLA                         
1145: 93              SUB     E                   
1146: F5              PUSH    AF                  
1147: 30 02           JR      NC,$114B            
1149: 2F              CPL                         
114A: 3C              INC     A                   
114B: 5F              LD      E,A                 
114C: 16 00           LD      D,$00               
114E: 0E 7E           LD      C,$7E               
1150: 2A D6 60        LD      HL,($60D6)          
1153: 2B              DEC     HL                  
1154: CD E0 16        CALL    $16E0               
1157: 28 1A           JR      Z,$1173             
1159: D5              PUSH    DE                  
115A: C5              PUSH    BC                  
115B: 21 02 60        LD      HL,$6002            
115E: 11 00 00        LD      DE,$0000            
1161: 06 0A           LD      B,$0A               
1163: AF              XOR     A                   
1164: 86              ADD     A,(HL)              
1165: 23              INC     HL                  
1166: 30 01           JR      NC,$1169            
1168: 14              INC     D                   
1169: 10 F9           DJNZ    $1164               
116B: 5F              LD      E,A                 
116C: EB              EX      DE,HL               
116D: C1              POP     BC                  
116E: D1              POP     DE                  
116F: CB 25           SLA     L                   
1171: CB 14           RL      H                   
1173: EB              EX      DE,HL               
1174: AF              XOR     A                   
1175: ED 52           SBC     HL,DE               
1177: 30 0B           JR      NC,$1184            
1179: 19              ADD     HL,DE               
117A: CD 36 14        CALL    $1436               
117D: 23              INC     HL                  
117E: CD AC 14        CALL    $14AC               
1181: 7C              LD      A,H                 
1182: 18 01           JR      $1185               
1184: 79              LD      A,C                 
1185: C6 80           ADD     A,$80               
1187: 30 02           JR      NC,$118B            
1189: 3E FE           LD      A,$FE               
118B: 4F              LD      C,A                 
118C: F1              POP     AF                  
118D: 30 04           JR      NC,$1193            
118F: 79              LD      A,C                 
1190: ED 44           NEG                         
1192: 4F              LD      C,A                 
1193: 3A 08 65        LD      A,($6508)           
1196: A7              AND     A                   
1197: 28 02           JR      Z,$119B             
1199: D1              POP     DE                  
119A: C9              RET                         
119B: D1              POP     DE                  
119C: 21 E6 11        LD      HL,$11E6            
119F: 7A              LD      A,D                 
11A0: D6 0B           SUB     $0B                 
11A2: CD AD 11        CALL    $11AD               
11A5: 79              LD      A,C                 
11A6: BE              CP      (HL)                
11A7: F5              PUSH    AF                  
11A8: CD 44 0E        CALL    $0E44               
11AB: F1              POP     AF                  
11AC: C9              RET                         
11AD: 47              LD      B,A                 
11AE: 3E F4           LD      A,$F4               
11B0: C6 0C           ADD     A,$0C               
11B2: 10 FC           DJNZ    $11B0               
11B4: 85              ADD     A,L                 
11B5: 6F              LD      L,A                 
11B6: 30 01           JR      NC,$11B9            
11B8: 24              INC     H                   
11B9: 06 FE           LD      B,$FE               
11BB: 7B              LD      A,E                 
11BC: FE 06           CP      $06                 
11BE: 20 0A           JR      NZ,$11CA            
11C0: 3A 85 60        LD      A,($6085)           
11C3: FE 23           CP      $23                 
11C5: 20 18           JR      NZ,$11DF            
11C7: 04              INC     B                   
11C8: 18 15           JR      $11DF               
11CA: FE 0B           CP      $0B                 
11CC: 20 0B           JR      NZ,$11D9            
11CE: 3A 85 60        LD      A,($6085)           
11D1: FE 23           CP      $23                 
11D3: 20 04           JR      NZ,$11D9            
11D5: 04              INC     B                   
11D6: 04              INC     B                   
11D7: 18 06           JR      $11DF               
11D9: 7B              LD      A,E                 
11DA: FE 07           CP      $07                 
11DC: 38 01           JR      C,$11DF             
11DE: 04              INC     B                   
11DF: 7B              LD      A,E                 
11E0: 80              ADD     A,B                 
11E1: 85              ADD     A,L                 
11E2: 6F              LD      L,A                 
11E3: D0              RET     NC                  
11E4: 24              INC     H                   
11E5: C9              RET                         

11E6: 99              SBC     C                   
11E7: 8A              ADC     A,D                 
11E8: 80              ADD     A,B                 
11E9: 76              HALT                        
11EA: 76              HALT                        
11EB: 67              LD      H,A                 
11EC: FF              RST     $38                 
11ED: FF              RST     $38                 
11EE: FF              RST     $38                 
11EF: FF              RST     $38                 
11F0: FF              RST     $38                 
11F1: FF              RST     $38                 
11F2: 7B              LD      A,E                 
11F3: 71              LD      (HL),C              
11F4: 67              LD      H,A                 
11F5: 59              LD      E,C                 
11F6: 5E              LD      E,(HL)              
11F7: 54              LD      D,H                 
11F8: FF              RST     $38                 
11F9: FF              RST     $38                 
11FA: FF              RST     $38                 
11FB: FF              RST     $38                 
11FC: FE E2           CP      $E2                 
11FE: 67              LD      H,A                 
11FF: 5E              LD      E,(HL)              
1200: 54              LD      D,H                 
1201: 45              LD      B,L                 
1202: 4A              LD      C,D                 
1203: 40              LD      B,B                 
1204: F6 FE           OR      $FE                 
1206: FE C5           CP      $C5                 
1208: E2 C0 54        JP      PO,$54C0            
120B: 4F              LD      C,A                 
120C: 40              LD      B,B                 
120D: 31 31 27        LD      SP,$2731            
1210: E7              RST     $20                 
1211: E2 C5 9E        JP      PO,$9EC5            
1214: D4 AC 3B        CALL    NC,$3BAC            
1217: 31 27 1E        LD      SP,$1E27            
121A: 22 19 C5        LD      ($C519),HL          
121D: C0              RET     NZ                  
121E: A2              AND     D                   
121F: 80              ADD     A,B                 
1220: C0              RET     NZ                  
1221: 99              SBC     C                 
1222: FF              RST     $38                 
1223: FF              RST     $38                 
1224: FF              RST     $38                 
1225: FF              RST     $38                 
1226: FF              RST     $38                 
1227: FF              RST     $38                 
1228: FF              RST     $38                 
1229: FF              RST     $38                 
122A: FF              RST     $38                 
122B: FF              RST     $38                 
122C: FF              RST     $38                 
122D: FF              RST     $38                 
122E: FF              RST     $38                 
122F: FF              RST     $38                 
1230: FF              RST     $38                 
1231: FF              RST     $38                 
1232: FF              RST     $38                 
1233: FF              RST     $38                 
1234: FF              RST     $38                 
1235: FF              RST     $38                 
1236: FF              RST     $38                 
1237: FF              RST     $38                 
1238: FF              RST     $38                 
1239: FF              RST     $38                 
123A: FF              RST     $38                 
123B: FF              RST     $38                 
123C: FF              RST     $38                 
123D: FF              RST     $38                 
123E: FF              RST     $38                 
123F: FF              RST     $38                 
1240: FF              RST     $38                 
1241: FF              RST     $38                 
1242: FF              RST     $38                 
1243: FF              RST     $38                 
1244: FF              RST     $38                 
1245: FF              RST     $38                 
1246: FF              RST     $38                 
1247: FF              RST     $38                 
1248: FF              RST     $38                 
1249: FF              RST     $38                 
124A: FF              RST     $38                 
124B: FF              RST     $38                 
124C: FF              RST     $38                 
124D: FF              RST     $38                 
124E: FF              RST     $38                 
124F: FF              RST     $38                 
1250: FF              RST     $38                 
1251: FF              RST     $38                 
1252: FF              RST     $38                 
1253: FF              RST     $38                 
1254: FF              RST     $38                 
1255: FF              RST     $38                 
1256: FF              RST     $38                 
1257: FF              RST     $38                 
1258: FF              RST     $38                 
1259: FF              RST     $38                 
125A: FF              RST     $38                 
125B: FF              RST     $38                 
125C: FF              RST     $38                 
125D: FF              RST     $38                 
125E: FF              RST     $38                 
125F: FF              RST     $38                 
1260: FF              RST     $38                 
1261: FF              RST     $38                 
1262: FF              RST     $38                 
1263: FF              RST     $38                 
1264: FF              RST     $38                 
1265: FF              RST     $38                 
1266: FF              RST     $38                 
1267: FF              RST     $38                 
1268: FF              RST     $38                 
1269: FF              RST     $38                 
126A: FF              RST     $38                 
126B: FF              RST     $38                 
126C: FF              RST     $38                 
126D: FF              RST     $38                 
126E: FF              RST     $38                 
126F: FF              RST     $38                 
1270: FF              RST     $38                 
1271: FF              RST     $38                 
1272: FF              RST     $38                 
1273: FF              RST     $38                 
1274: FF              RST     $38                 
1275: FF              RST     $38                 
1276: FF              RST     $38                 
1277: FF              RST     $38                 
1278: FF              RST     $38                 
1279: FF              RST     $38                 
127A: FF              RST     $38                 
127B: FF              RST     $38                 
127C: FF              RST     $38                 
127D: FF              RST     $38                 
127E: FF              RST     $38                 
127F: FF              RST     $38                 
1280: FF              RST     $38                 
1281: FF              RST     $38                 
1282: FF              RST     $38                 
1283: FF              RST     $38                 
1284: FF              RST     $38                 
1285: FF              RST     $38                 
1286: FF              RST     $38                 
1287: FF              RST     $38                 
1288: FF              RST     $38                 
1289: FF              RST     $38                 
128A: FF              RST     $38                 
128B: FF              RST     $38                 
128C: FF              RST     $38                 
128D: FF              RST     $38                 
128E: FF              RST     $38                 
128F: FF              RST     $38                 
1290: FF              RST     $38                 
1291: FF              RST     $38                 
1292: FF              RST     $38                 
1293: FF              RST     $38                 
1294: FF              RST     $38                 
1295: FF              RST     $38                 
1296: FF              RST     $38                 
1297: FF              RST     $38                 
1298: FF              RST     $38                 
1299: FF              RST     $38                 
129A: FF              RST     $38                 
129B: FF              RST     $38                 
129C: FF              RST     $38                 
129D: FF              RST     $38                 
129E: FF              RST     $38                 
129F: FF              RST     $38                 
12A0: FF              RST     $38                 
12A1: FF              RST     $38                 
12A2: FF              RST     $38                 
12A3: FF              RST     $38                 
12A4: FF              RST     $38                 
12A5: FF              RST     $38                 
12A6: FF              RST     $38                 
12A7: FF              RST     $38                 
12A8: FF              RST     $38                 
12A9: FF              RST     $38                 
12AA: FF              RST     $38                 
12AB: FF              RST     $38                 
12AC: FF              RST     $38                 
12AD: FF              RST     $38                 
12AE: FF              RST     $38                 
12AF: FF              RST     $38                 
12B0: FF              RST     $38                 
12B1: FF              RST     $38                 
12B2: FF              RST     $38                 
12B3: FF              RST     $38                 
12B4: FF              RST     $38                 
12B5: FF              RST     $38                 
12B6: FF              RST     $38                 
12B7: FF              RST     $38                 
12B8: FF              RST     $38                 
12B9: FF              RST     $38                 
12BA: FF              RST     $38                 
12BB: FF              RST     $38                 
12BC: FF              RST     $38                 
12BD: FF              RST     $38                 
12BE: FF              RST     $38                 
12BF: FF              RST     $38                 
12C0: FF              RST     $38                 
12C1: FF              RST     $38                 
12C2: FF              RST     $38                 
12C3: FF              RST     $38                 
12C4: FF              RST     $38                 
12C5: FF              RST     $38                 
12C6: FF              RST     $38                 
12C7: FF              RST     $38                 
12C8: FF              RST     $38                 
12C9: FF              RST     $38                 
12CA: FF              RST     $38                 
12CB: FF              RST     $38                 
12CC: FF              RST     $38                 
12CD: FF              RST     $38                 
12CE: FF              RST     $38                 
12CF: FF              RST     $38                 
12D0: FF              RST     $38                 
12D1: FF              RST     $38                 
12D2: FF              RST     $38                 
12D3: FF              RST     $38                 
12D4: FF              RST     $38                 
12D5: FF              RST     $38                 
12D6: FF              RST     $38                 
12D7: FF              RST     $38                 
12D8: FF              RST     $38                 
12D9: FF              RST     $38                 
12DA: FF              RST     $38                 
12DB: FF              RST     $38                 
12DC: FF              RST     $38                 
12DD: FF              RST     $38                 
12DE: FF              RST     $38                 
12DF: FF              RST     $38                 
12E0: FF              RST     $38                 
12E1: FF              RST     $38                 
12E2: FF              RST     $38                 
12E3: FF              RST     $38                 
12E4: FF              RST     $38                 
12E5: FF              RST     $38                 
12E6: FF              RST     $38                 
12E7: FF              RST     $38                 
12E8: FF              RST     $38                 
12E9: FF              RST     $38                 
12EA: FF              RST     $38                 
12EB: FF              RST     $38                 
12EC: FF              RST     $38                 
12ED: FF              RST     $38                 
12EE: FF              RST     $38                 
12EF: FF              RST     $38                 
12F0: FF              RST     $38                 
12F1: FF              RST     $38                 
12F2: FF              RST     $38                 
12F3: FF              RST     $38                 
12F4: FF              RST     $38                 
12F5: FF              RST     $38                 
12F6: FF              RST     $38                 
12F7: FF              RST     $38                 
12F8: FF              RST     $38                 
12F9: FF              RST     $38                 
12FA: FF              RST     $38                 
12FB: FF              RST     $38                 
12FC: FF              RST     $38                 
12FD: FF              RST     $38                 
12FE: FF              RST     $38                 
12FF: FF              RST     $38                 


1300: C5              PUSH    BC                  
1301: D5              PUSH    DE                  
1302: E5              PUSH    HL                  
1303: 08              EX      AF,AF'              
1304: F5              PUSH    AF                  
1305: 08              EX      AF,AF'              
1306: D9              EXX                         
1307: C5              PUSH    BC                  
1308: D5              PUSH    DE                  
1309: E5              PUSH    HL                  
130A: D9              EXX                         
130B: 3A 04 65        LD      A,($6504)           
130E: B1              OR      C                   
130F: CA 7D 13        JP      Z,$137D             
1312: 2A 00 65        LD      HL,($6500)          
1315: ED 5B 02 65     LD      DE,($6502)          
1319: 06 40           LD      B,$40               
131B: 7B              LD      A,E                 
131C: 86              ADD     A,(HL)              
131D: 23              INC     HL                  
131E: 5F              LD      E,A                 
131F: 10 FA           DJNZ    $131B               
1321: 14              INC     D                   
1322: 22 00 65        LD      ($6500),HL          
1325: ED 53 02 65     LD      ($6502),DE          
1329: EB              EX      DE,HL               
132A: 21 00 20        LD      HL,$2000            
132D: AF              XOR     A                   
132E: ED 52           SBC     HL,DE               
1330: 38 3A           JR      C,$136C             
1332: 28 14           JR      Z,$1348             
1334: 06 0F           LD      B,$0F               ; Delay ...
1336: 10 FE           DJNZ    $1336               ; ... of $0F
;
1338: 06 58           LD      B,$58               ; Delay ...
133A: 10 FE           DJNZ    $133A               ; ... of $58 ?? debounce 
133C: D9              EXX                         
133D: E1              POP     HL                  
133E: D1              POP     DE                  
133F: C1              POP     BC                  
1340: D9              EXX                         
1341: 08              EX      AF,AF'              
1342: F1              POP     AF                  
1343: 08              EX      AF,AF'              
1344: E1              POP     HL                  
1345: D1              POP     DE                  
1346: C1              POP     BC                  
1347: C9              RET                         

1348: 21 FF 1F        LD      HL,$1FFF            
134B: 3A 02 65        LD      A,($6502)           
134E: 96              SUB     (HL)                
134F: 32 02 65        LD      ($6502),A           
1352: BE              CP      (HL)                
1353: 08              EX      AF,AF'              
1354: C5              PUSH    BC                  
1355: CD 01 17        CALL    $1701               ; Are we in RAM or ROM?
1358: C1              POP     BC                  
1359: 20 03           JR      NZ,$135E            ; ROM ... ??
135B: 00              NOP                         
135C: 18 03           JR      $1361               

135E: 08              EX      AF,AF'              
135F: 20 0B           JR      NZ,$136C            
1361: 21 00 00        LD      HL,$0000            
1364: 22 02 65        LD      ($6502),HL          
1367: 22 00 65        LD      ($6500),HL          
136A: 18 CC           JR      $1338               ; Debounce and out

136C: 3E 01           LD      A,$01               
136E: 32 3B 64        LD      ($643B),A           
1371: 21 00 00        LD      HL,$0000            
1374: 22 02 65        LD      ($6502),HL          
1377: 22 00 65        LD      ($6500),HL          
137A: C3 99 00        JP      $0099               

137D: 21 00 E0        LD      HL,$E000            
1380: 16 00           LD      D,$00               
1382: 06 02           LD      B,$02               
1384: 0E 08           LD      C,$08               
1386: C5              PUSH    BC                  ; 
1387: 06 02           LD      B,$02               ; 
1389: C5              PUSH    BC                  
138A: E5              PUSH    HL                  
138B: 41              LD      B,C                 
138C: 1E 00           LD      E,$00               
138E: C5              PUSH    BC                  
138F: 06 00           LD      B,$00               
1391: 7B              LD      A,E                 
1392: 86              ADD     A,(HL)              
1393: 23              INC     HL                  
1394: 5F              LD      E,A                 
1395: 10 FA           DJNZ    $1391               
;
1397: CD 01 17        CALL    $1701               ; Are we in RAM or ROM?
139A: 20 04           JR      NZ,$13A0            ; ROM ... read from port 02 ??
139C: DB 22           IN      A,($22)             ; I/O IN Read from port 22
139E: 18 02           JR      $13A2               ; Continue with value
13A0: DB 02           IN      A,($02)             ; I/O IN Read from port 02 ??
13A2: 2F              CPL                         ; TTL inputs come in flipped
13A3: A7              AND     A                   ; Is anything pressed?
;
13A4: 28 07           JR      Z,$13AD             
13A6: C1              POP     BC                  
13A7: C1              POP     BC                  
13A8: C1              POP     BC                  
13A9: C1              POP     BC                  
13AA: C3 38 13        JP      $1338               ; Debounce and out

13AD: C1              POP     BC                  
13AE: 10 DE           DJNZ    $138E               
13B0: D5              PUSH    DE                  
13B1: D9              EXX                         
13B2: D5              PUSH    DE                  
13B3: E1              POP     HL                  
13B4: D1              POP     DE                  
13B5: D9              EXX                         
13B6: E1              POP     HL                  
13B7: C1              POP     BC                  
13B8: 10 CF           DJNZ    $1389               
13BA: D9              EXX                         
13BB: 7D              LD      A,L                 
13BC: D9              EXX                         
13BD: BB              CP      E                   
13BE: 28 1B           JR      Z,$13DB             
13C0: 2B              DEC     HL                  
13C1: D5              PUSH    DE                  
13C2: 11 00 E0        LD      DE,$E000            
13C5: AF              XOR     A                   
13C6: ED 52           SBC     HL,DE               
13C8: E1              POP     HL                  
13C9: 30 08           JR      NC,$13D3            
13CB: 11 00 60        LD      DE,$6000            
13CE: 7A              LD      A,D                 
13CF: B4              OR      H                   
13D0: 57              LD      D,A                 
13D1: 18 08           JR      $13DB               
13D3: CB 3A           SRL     D                   
13D5: CB 3A           SRL     D                   
13D7: CB 3A           SRL     D                   
13D9: CB 3A           SRL     D                   
13DB: 21 00 60        LD      HL,$6000            
13DE: 1E 00           LD      E,$00               
13E0: C1              POP     BC                  
13E1: 0E 07           LD      C,$07               
13E3: 10 A1           DJNZ    $1386               
13E5: 7A              LD      A,D                 
13E6: A7              AND     A                   
13E7: CA 38 13        JP      Z,$1338             
13EA: E1              POP     HL                  
13EB: 5A              LD      E,D                 
13EC: D5              PUSH    DE                  
13ED: CD 3C 1C        CALL    $1C3C               
13F0: CD D2 1D        CALL    $1DD2               
13F3: D1              POP     DE                  
13F4: 3E 01           LD      A,$01               
13F6: 32 27 64        LD      ($6427),A           
13F9: CD 20 00        CALL    $0020               
13FC: 21 02 60        LD      HL,$6002            
13FF: 3A 01 60        LD      A,($6001)           
1402: CB 27           SLA     A                   
1404: CB 27           SLA     A                   
1406: 06 08           LD      B,$08               
1408: BE              CP      (HL)                
1409: 38 1D           JR      C,$1428             
140B: 23              INC     HL                  
140C: 10 FA           DJNZ    $1408               
140E: 23              INC     HL                  
140F: BE              CP      (HL)                
1410: 38 16           JR      C,$1428             
1412: 2B              DEC     HL                  
1413: CB 27           SLA     A                   
1415: CB 27           SLA     A                   
1417: BE              CP      (HL)                
1418: 38 0E           JR      C,$1428             
141A: 21 0D 60        LD      HL,$600D            
141D: 3E 0B           LD      A,$0B               
141F: 06 08           LD      B,$08               
1421: BE              CP      (HL)                
1422: 38 04           JR      C,$1428             
1424: 23              INC     HL                  
1425: 10 FA           DJNZ    $1421               
1427: C9              RET                         
1428: E1              POP     HL                  
1429: 3E 01           LD      A,$01               
142B: 32 4C 64        LD      ($644C),A           
142E: CD 3C 1C        CALL    $1C3C               
1431: 0E 00           LD      C,$00               
1433: CD 38 00        CALL    $0038               
1436: D9              EXX                         
1437: 21 00 00        LD      HL,$0000            
143A: 06 10           LD      B,$10               
143C: CB 25           SLA     L                   
143E: CB 14           RL      H                   
1440: D9              EXX                         
1441: CB 25           SLA     L                   
1443: CB 14           RL      H                   
1445: 38 0A           JR      C,$1451             
1447: 7C              LD      A,H                 
1448: BA              CP      D                   
1449: 38 0D           JR      C,$1458             
144B: 20 04           JR      NZ,$1451            
144D: 7D              LD      A,L                 
144E: BB              CP      E                   
144F: 38 07           JR      C,$1458             
1451: AF              XOR     A                   
1452: ED 52           SBC     HL,DE               
1454: D9              EXX                         
1455: CB C5           SET     0,L                 
1457: D9              EXX                         
1458: D9              EXX                         
1459: 10 E1           DJNZ    $143C               
145B: 2B              DEC     HL                  
145C: E5              PUSH    HL                  
145D: D9              EXX                         
145E: E1              POP     HL                  
145F: C9              RET                         
1460: 5E              LD      E,(HL)              
1461: 2C              INC     L                   
1462: 56              LD      D,(HL)              
1463: 2C              INC     L                   
1464: D5              PUSH    DE                  
1465: D9              EXX                         
1466: 4E              LD      C,(HL)              
1467: 2C              INC     L                   
1468: 7E              LD      A,(HL)              
1469: 2C              INC     L                   
146A: D1              POP     DE                  
146B: E5              PUSH    HL                  
146C: CD 83 14        CALL    $1483               
146F: EB              EX      DE,HL               
1470: 21 6E 60        LD      HL,$606E            
1473: 4E              LD      C,(HL)              
1474: 2C              INC     L                   
1475: 46              LD      B,(HL)              
1476: E5              PUSH    HL                  
1477: EB              EX      DE,HL               
1478: 09              ADD     HL,BC               
1479: EB              EX      DE,HL               
147A: E1              POP     HL                  
147B: 72              LD      (HL),D              
147C: 2D              DEC     L                   
147D: 73              LD      (HL),E              
147E: E1              POP     HL                  
147F: D9              EXX                         
1480: 10 DE           DJNZ    $1460               
1482: C9              RET                         
1483: 06 10           LD      B,$10               
1485: 21 00 00        LD      HL,$0000            
1488: D9              EXX                         
1489: E5              PUSH    HL                  
148A: D5              PUSH    DE                  
148B: 11 00 00        LD      DE,$0000            
148E: 62              LD      H,D                 
148F: 6B              LD      L,E                 
1490: D9              EXX                         
1491: CB 3A           SRL     D                   
1493: CB 1B           RR      E                   
1495: D9              EXX                         
1496: CB 1A           RR      D                   
1498: CB 1B           RR      E                   
149A: D9              EXX                         
149B: CB 21           SLA     C                   
149D: 17              RLA                         
149E: 30 05           JR      NC,$14A5            
14A0: D9              EXX                         
14A1: 19              ADD     HL,DE               
14A2: D9              EXX                         
14A3: ED 5A           ADC     HL,DE               
14A5: 10 EA           DJNZ    $1491               
14A7: D9              EXX                         
14A8: D1              POP     DE                  
14A9: E1              POP     HL                  
14AA: D9              EXX                         
14AB: C9              RET                         
14AC: 7D              LD      A,L                 
14AD: FE 80           CP      $80                 
14AF: D8              RET     C                   
14B0: 24              INC     H                   
14B1: C9              RET                         


14B2: FF              RST     $38                 
14B3: FF              RST     $38                 
14B4: FF              RST     $38                 
14B5: FF              RST     $38                 
14B6: FF              RST     $38                 
14B7: FF              RST     $38                 
14B8: FF              RST     $38                 
14B9: FF              RST     $38                 
14BA: FF              RST     $38                 
14BB: FF              RST     $38                 
14BC: FF              RST     $38                 
14BD: FF              RST     $38                 
14BE: FF              RST     $38                 
14BF: FF              RST     $38                 
14C0: FF              RST     $38                 
14C1: FF              RST     $38                 
14C2: FF              RST     $38                 
14C3: FF              RST     $38                 
14C4: FF              RST     $38                 
14C5: FF              RST     $38                 
14C6: FF              RST     $38                 
14C7: FF              RST     $38                 
14C8: FF              RST     $38                 
14C9: FF              RST     $38                 
14CA: FF              RST     $38                 
14CB: FF              RST     $38                 
14CC: FF              RST     $38                 
14CD: FF              RST     $38                 
14CE: FF              RST     $38                 
14CF: FF              RST     $38                 
14D0: FF              RST     $38                 
14D1: FF              RST     $38                 
14D2: FF              RST     $38                 
14D3: FF              RST     $38                 
14D4: FF              RST     $38                 
14D5: FF              RST     $38                 
14D6: FF              RST     $38                 
14D7: FF              RST     $38                 
14D8: FF              RST     $38                 
14D9: FF              RST     $38                 
14DA: FF              RST     $38                 
14DB: FF              RST     $38                 
14DC: FF              RST     $38                 
14DD: FF              RST     $38                 
14DE: FF              RST     $38                 
14DF: FF              RST     $38                 
14E0: FF              RST     $38                 
14E1: FF              RST     $38                 
14E2: FF              RST     $38                 
14E3: FF              RST     $38                 
14E4: FF              RST     $38                 
14E5: FF              RST     $38                 
14E6: FF              RST     $38                 
14E7: FF              RST     $38                 
14E8: FF              RST     $38                 
14E9: FF              RST     $38                 
14EA: FF              RST     $38                 
14EB: FF              RST     $38                 
14EC: FF              RST     $38                 
14ED: FF              RST     $38                 
14EE: FF              RST     $38                 
14EF: FF              RST     $38                 
14F0: FF              RST     $38                 
14F1: FF              RST     $38                 
14F2: FF              RST     $38                 
14F3: FF              RST     $38                 
14F4: FF              RST     $38                 
14F5: FF              RST     $38                 
14F6: FF              RST     $38                 
14F7: FF              RST     $38                 
14F8: FF              RST     $38                 
14F9: FF              RST     $38                 
14FA: FF              RST     $38                 
14FB: FF              RST     $38                 
14FC: FF              RST     $38                 
14FD: FF              RST     $38                 
14FE: FF              RST     $38                 
14FF: FF              RST     $38                 



1500: E3              EX      (SP),HL             
1501: 08              EX      AF,AF'              
1502: D9              EXX                         
1503: F1              POP     AF                  
1504: F1              POP     AF                  
1505: C1              POP     BC                  
1506: D1              POP     DE                  
1507: E1              POP     HL                  
1508: FD E1           POP     IY                  
150A: DD E1           POP     IX                  
150C: 08              EX      AF,AF'              
150D: D9              EXX                         
150E: F1              POP     AF                  
150F: C1              POP     BC                  
1510: D1              POP     DE                  
1511: E3              EX      (SP),HL             
1512: C9              RET                         
1513: E3              EX      (SP),HL             
1514: D5              PUSH    DE                  
1515: C5              PUSH    BC                  
1516: F5              PUSH    AF                  
1517: DD E5           PUSH    IX                  
1519: FD E5           PUSH    IY                  
151B: 08              EX      AF,AF'              
151C: D9              EXX                         
151D: E5              PUSH    HL                  
151E: D5              PUSH    DE                  
151F: C5              PUSH    BC                  
1520: F5              PUSH    AF                  
1521: 08              EX      AF,AF'              
1522: D9              EXX                         
1523: E5              PUSH    HL                  
1524: C9              RET                         
1525: AF              XOR     A                   
1526: 21 00 61        LD      HL,$6100            
1529: 77              LD      (HL),A              
152A: E5              PUSH    HL                  
152B: D1              POP     DE                  
152C: 1C              INC     E                   
152D: 01 38 01        LD      BC,$0138            
1530: 0B              DEC     BC                  
1531: ED B0           LDIR                        
1533: C9              RET                         
1534: 21 90 62        LD      HL,$6290            
1537: 06 03           LD      B,$03               
1539: AF              XOR     A                   
153A: 77              LD      (HL),A              
153B: 2C              INC     L                   
153C: 10 FC           DJNZ    $153A               
153E: C9              RET                         

153F: AF              XOR     A                   
1540: 32 1E 60        LD      ($601E),A           
1543: 32 1A 60        LD      ($601A),A           
1546: 06 07           LD      B,$07               
1548: 2E 86           LD      L,$86               
154A: 77              LD      (HL),A              
154B: 2C              INC     L                   
154C: 10 FC           DJNZ    $154A               
154E: 3C              INC     A                   
154F: 32 7B 60        LD      ($607B),A           
1552: CD 0E 18        CALL    $180E               
1555: 7B              LD      A,E                 
1556: C9              RET                         

1557: 21 93 62        LD      HL,$6293            
155A: AF              XOR     A                   
155B: 06 2D           LD      B,$2D               
155D: 77              LD      (HL),A              
155E: 2C              INC     L                   
155F: 10 FC           DJNZ    $155D               
1561: C9              RET                         

1562: 3E 15           LD      A,$15               
1564: 2C              INC     L                   
1565: BD              CP      L                   
1566: C8              RET     Z                   
1567: 36 00           LD      (HL),$00            
1569: 18 F7           JR      $1562               

; This routine clears all of RAM from 6000 through 67F8. Since
; the stack is in RAM and the return is on the stack we first
; shuffle the return into the prime register set then back once
; the RAM is clear. Note the clever use of the block move LDIR
; instruction to copy a 0 all through RAM.
156B: D9              EXX                         ; Pop return ...
156C: E1              POP     HL                  ; ... address to ...
156D: D9              EXX                         ; ... HL' (about to clear RAM)
156E: 21 00 60        LD      HL,$6000            ; Start of RAM
1571: 36 00           LD      (HL),$00            ; Shifting in 0 to first RAM location
1573: E5              PUSH    HL                  ; Copy HL ...
1574: D1              POP     DE                  ; ... to DE
1575: 1C              INC     E                   ; DE is now 6001
1576: 01 F8 07        LD      BC,$07F8            ; Count is 7F8
1579: ED B0           LDIR                        ; Copy the 0 down through memory
157B: D9              EXX                         ; Push HL' ...
157C: E5              PUSH    HL                  ; ... return address ...
157D: D9              EXX                         ; ... back on stack
157E: C9              RET                         ; Return

157F: 21 00 63        LD      HL,$6300            
1582: 36 00           LD      (HL),$00            
1584: E5              PUSH    HL                  
1585: D1              POP     DE                  
1586: 13              INC     DE                  
1587: 01 FF 00        LD      BC,$00FF            
158A: ED B0           LDIR                        
158C: C9              RET                         

158D: 21 00 66        LD      HL,$6600            
1590: AF              XOR     A                   
1591: 47              LD      B,A                 
1592: 77              LD      (HL),A              
1593: 23              INC     HL                  
1594: 10 FC           DJNZ    $1592               
1596: C9              RET                         

1597: 21 50 64        LD      HL,$6450            
159A: 06 30           LD      B,$30               
159C: AF              XOR     A                   
159D: 77              LD      (HL),A              
159E: 23              INC     HL                  
159F: 10 FC           DJNZ    $159D               
15A1: C9              RET                         

15A2: 7B              LD      A,E                 
15A3: A7              AND     A                   
15A4: 28 01           JR      Z,$15A7             
15A6: 13              INC     DE                  
15A7: C5              PUSH    BC                  
15A8: D9              EXX                         
15A9: C1              POP     BC                  
15AA: D9              EXX                         
15AB: 44              LD      B,H                 
15AC: 4D              LD      C,L                 
15AD: 19              ADD     HL,DE               
15AE: 23              INC     HL                  
15AF: D5              PUSH    DE                  
15B0: 2B              DEC     HL                  
15B1: D1              POP     DE                  
15B2: D5              PUSH    DE                  
15B3: 1A              LD      A,(DE)              
15B4: 77              LD      (HL),A              
15B5: 62              LD      H,D                 
15B6: 6B              LD      L,E                 
15B7: 23              INC     HL                  
15B8: C5              PUSH    BC                  
15B9: ED B0           LDIR                        
15BB: C1              POP     BC                  
15BC: D9              EXX                         
15BD: 0B              DEC     BC                  
15BE: 78              LD      A,B                 
15BF: B1              OR      C                   
15C0: D9              EXX                         
15C1: 20 ED           JR      NZ,$15B0            
15C3: 2B              DEC     HL                  
15C4: 77              LD      (HL),A              
15C5: D1              POP     DE                  
15C6: C9              RET                         

15C7: C5              PUSH    BC                  
15C8: D5              PUSH    DE                  
15C9: E5              PUSH    HL                  
15CA: ED 5B 4E 62     LD      DE,($624E)          
15CE: 2A 3E 62        LD      HL,($623E)          
15D1: E5              PUSH    HL                  
15D2: AF              XOR     A                   
15D3: ED 52           SBC     HL,DE               
15D5: 44              LD      B,H                 
15D6: 4D              LD      C,L                 
15D7: E1              POP     HL                  
15D8: 54              LD      D,H                 
15D9: 5D              LD      E,L                 
15DA: 2D              DEC     L                   
15DB: ED B8           LDDR                        
15DD: 12              LD      (DE),A              
15DE: E1              POP     HL                  
15DF: D1              POP     DE                  
15E0: C1              POP     BC                  
15E1: C9              RET                         

15E2: 21 80 64        LD      HL,$6480            
15E5: E5              PUSH    HL                  
15E6: E5              PUSH    HL                  
15E7: 3A 50 62        LD      A,($6250)           
15EA: A7              AND     A                   
15EB: 17              RLA                         
15EC: 17              RLA                         
15ED: 4F              LD      C,A                 
15EE: 85              ADD     A,L                 
15EF: 6F              LD      L,A                 
15F0: AF              XOR     A                   
15F1: 47              LD      B,A                 
15F2: E5              PUSH    HL                  
15F3: D1              POP     DE                  
15F4: E1              POP     HL                  
15F5: C5              PUSH    BC                  
15F6: 0E 04           LD      C,$04               
15F8: ED B0           LDIR                        
15FA: C1              POP     BC                  
15FB: D1              POP     DE                  
15FC: ED B0           LDIR                        
15FE: 06 04           LD      B,$04               
1600: 12              LD      (DE),A              
1601: 13              INC     DE                  
1602: 10 FC           DJNZ    $1600               
1604: C9              RET                         

1605: 4F              LD      C,A                 
1606: AF              XOR     A                   
1607: 47              LD      B,A                 
1608: 11 00 61        LD      DE,$6100            
160B: 2A 40 62        LD      HL,($6240)          
160E: E5              PUSH    HL                  
160F: B9              CP      C                   
1610: 28 03           JR      Z,$1615             
1612: 23              INC     HL                  
1613: ED B0           LDIR                        
1615: C1              POP     BC                  
1616: 47              LD      B,A                 
1617: D5              PUSH    DE                  
1618: E1              POP     HL                  
1619: 1C              INC     E                   
161A: 36 0F           LD      (HL),$0F            
161C: ED B0           LDIR                        
161E: C9              RET                         
161F: C5              PUSH    BC                  
1620: D5              PUSH    DE                  
1621: E5              PUSH    HL                  
1622: C5              PUSH    BC                  
1623: 21 20 63        LD      HL,$6320            
1626: 11 00 61        LD      DE,$6100            
1629: 01 E0 00        LD      BC,$00E0            
162C: ED B0           LDIR                        
162E: 3A 50 62        LD      A,($6250)           
1631: 3D              DEC     A                   
1632: 47              LD      B,A                 
1633: 11 20 63        LD      DE,$6320            
1636: 21 20 61        LD      HL,$6120            
1639: C5              PUSH    BC                  
163A: 01 1A 00        LD      BC,$001A            
163D: ED B0           LDIR                        
163F: 06 06           LD      B,$06               
1641: 13              INC     DE                  
1642: 23              INC     HL                  
1643: 10 FC           DJNZ    $1641               
1645: C1              POP     BC                  
1646: 10 F1           DJNZ    $1639               
1648: ED 5B 4E 64     LD      DE,($644E)          
164C: 21 00 61        LD      HL,$6100            
164F: 01 1A 00        LD      BC,$001A            
1652: ED B0           LDIR                        
1654: C1              POP     BC                  
1655: 10 CB           DJNZ    $1622               
1657: CD 25 15        CALL    $1525               
165A: E1              POP     HL                  
165B: D1              POP     DE                  
165C: C1              POP     BC                  
165D: C9              RET                         
165E: C5              PUSH    BC                  
165F: D5              PUSH    DE                  
1660: E5              PUSH    HL                  
1661: ED 5B 4E 62     LD      DE,($624E)          
1665: 2A 3E 62        LD      HL,($623E)          
1668: AF              XOR     A                   
1669: ED 52           SBC     HL,DE               
166B: 44              LD      B,H                 
166C: 4D              LD      C,L                 
166D: 62              LD      H,D                 
166E: 6B              LD      L,E                 
166F: 2C              INC     L                   
1670: ED B0           LDIR                        
1672: 12              LD      (DE),A              
1673: E1              POP     HL                  
1674: D1              POP     DE                  
1675: C1              POP     BC                  
1676: C9              RET                         

1677: E5              PUSH    HL                  
1678: 78              LD      A,B                 
1679: 32 8D 60        LD      ($608D),A           
167C: CD 95 16        CALL    $1695               
167F: CD 9F 17        CALL    $179F               
1682: E1              POP     HL                  
1683: E3              EX      (SP),HL             
1684: C9              RET                         

1685: CD CD 17        CALL    $17CD               
1688: 83              ADD     A,E                 
1689: 32 90 60        LD      ($6090),A           
168C: C3 EB 17        JP      $17EB               
168F: 26 60           LD      H,$60               
1691: AF              XOR     A                   
1692: 6B              LD      L,E                 
1693: 34              INC     (HL)                
1694: C9              RET                         

1695: CD 85 16        CALL    $1685               
1698: FE DF           CP      $DF                 
169A: 7B              LD      A,E                 
169B: C8              RET     Z                   
169C: FE 0F           CP      $0F                 
169E: CC 00 00        CALL    Z,$0000             
16A1: 7B              LD      A,E                 
16A2: FE 0C           CP      $0C                 
16A4: D2 00 00        JP      NC,$0000            
16A7: 21 01 60        LD      HL,$6001            
16AA: 35              DEC     (HL)                
16AB: 6F              LD      L,A                 
16AC: 35              DEC     (HL)                
16AD: CB 7E           BIT     7,(HL)              
16AF: 28 01           JR      Z,$16B2             
16B1: 34              INC     (HL)                
16B2: 3A 8D 60        LD      A,($608D)           
16B5: FE 0D           CP      $0D                 
16B7: C8              RET     Z                   
16B8: AF              XOR     A                   
16B9: 21 4F 64        LD      HL,$644F            
16BC: 23              INC     HL                  
16BD: BE              CP      (HL)                
16BE: 20 FC           JR      NZ,$16BC            
16C0: 73              LD      (HL),E              
16C1: C9              RET                         

16C2: 3A C0 62        LD      A,($62C0)           
16C5: A7              AND     A                   
16C6: C9              RET                         

16C7: 3A 1A 60        LD      A,($601A)           
16CA: A7              AND     A                   
16CB: C9              RET                         

16CC: 3A 33 64        LD      A,($6433)           ; Are we running in RAM or ROM?
16CF: A7              AND     A                   ; NZ for ROM, Z for RAM
16D0: 20 04           JR      NZ,$16D6            ; ROM ... use port 2
16D2: DB 22           IN      A,($22)             ; I/O IN
16D4: 18 02           JR      $16D8               
16D6: DB 02           IN      A,($02)             ; I/O IN
16D8: 2F              CPL                         ; TTL comes in reverse
16D9: A7              AND     A                   
16DA: C9              RET                         

16DB: 3A 74 62        LD      A,($6274)           
16DE: A7              AND     A                   
16DF: C9              RET                         

16E0: 3A 08 65        LD      A,($6508)           
16E3: A7              AND     A                   
16E4: C9              RET                         

16E5: 21 8C 60        LD      HL,$608C            
16E8: AF              XOR     A                   
16E9: BE              CP      (HL)                
16EA: C9              RET                         

16EB: 21 8B 60        LD      HL,$608B            
16EE: 7E              LD      A,(HL)              
16EF: A7              AND     A                   
16F0: C9              RET                         

16F1: 3A 3A 62        LD      A,($623A)           
16F4: A7              AND     A                   
16F5: C9              RET                         

16F6: 21 8A 60        LD      HL,$608A            
16F9: 7E              LD      A,(HL)              
16FA: A7              AND     A                   
16FB: C9              RET                         

16FC: 3A 32 64        LD      A,($6432)           
16FF: A7              AND     A                   
1700: C9              RET                         

;##RamOrRom
; Determine if we are running in RAM or ROM.
; The flag at 6433 is 0 if RAM or not 0 if ROM.
; In the RAM configuration we have a keyboard attached to port 22. In ROM mode
; we have shoe-switches on port 2.
; Return Z if RAM or NZ if ROM
1701: 21 00 00        LD      HL,$0000            ; First location of program
1704: 46              LD      B,(HL)              ; Get first byte of program (not 0)
1705: AF              XOR     A                   ; Try and ...
1706: 77              LD      (HL),A              ; ... change the first
1707: 7E              LD      A,(HL)              ; ROM we get back not-0. RAM we get back 0.
1708: 70              LD      (HL),B              ; Restore the program value (in case we changed it)
1709: 32 33 64        LD      ($6433),A           ; Store RAM/ROM flag
170C: A7              AND     A                   ; Z if RAM, NZ if ROM
170D: C9              RET                         ; Done

170E: 2A 8E 60        LD      HL,($608E)          
1711: 7E              LD      A,(HL)              
1712: E6 F0           AND     $F0                 
1714: 0F              RRCA                        
1715: 0F              RRCA                        
1716: 0F              RRCA                        
1717: 0F              RRCA                        
1718: C9              RET                         

1719: CD 1F 18        CALL    $181F               
171C: 21 7B 60        LD      HL,$607B            
171F: 7E              LD      A,(HL)              
1720: 32 81 60        LD      ($6081),A           
1723: AF              XOR     A                   
1724: 32 82 60        LD      ($6082),A           
1727: BE              CP      (HL)                
1728: C8              RET     Z                   
1729: 3E 06           LD      A,$06               
172B: BE              CP      (HL)                
172C: C8              RET     Z                   
172D: D8              RET     C                   
172E: A7              AND     A                   
172F: C9              RET                         

1730: E5              PUSH    HL                  
1731: 21 0C 60        LD      HL,$600C            
1734: CB EE           SET     5,(HL)              
1736: E1              POP     HL                  
1737: C9              RET                         

1738: E5              PUSH    HL                  
1739: 21 0C 60        LD      HL,$600C            
173C: CB AE           RES     5,(HL)              
173E: E1              POP     HL                  
173F: C9              RET                         

1740: CD 38 17        CALL    $1738           ; This could be a call to $0028 ... original excel sheet was conflicted    
1743: 57              LD      D,A                 
1744: CD 0E 17        CALL    $170E               
1747: 4F              LD      C,A                 
1748: A7              AND     A                   
1749: C8              RET     Z                   
174A: 21 8E 60        LD      HL,$608E            
174D: 34              INC     (HL)                
174E: FE 0D           CP      $0D                 
1750: 28 EE           JR      Z,$1740             
1752: FE 0E           CP      $0E                 
1754: 28 EA           JR      Z,$1740             
1756: FE 09           CP      $09                 
1758: 28 06           JR      Z,$1760             
175A: FE 0A           CP      $0A                 
175C: 28 09           JR      Z,$1767             
175E: 18 23           JR      $1783               
1760: 7A              LD      A,D                 
1761: FE 0C           CP      $0C                 
1763: 38 1E           JR      C,$1783             
1765: 18 D9           JR      $1740               
1767: 7A              LD      A,D                 
1768: FE 0F           CP      $0F                 
176A: 20 13           JR      NZ,$177F            
176C: 21 8D 60        LD      HL,$608D            
176F: 36 02           LD      (HL),$02            
1771: CD 85 16        CALL    $1685               
1774: CD 0E 18        CALL    $180E               
1777: CD 9F 16        CALL    $169F               
177A: 0E 00           LD      C,$00               
177C: CD 38 00        CALL    $0038               
177F: FE 0C           CP      $0C                 
1781: 30 BD           JR      NC,$1740            
1783: 7A              LD      A,D                 
1784: FE 0F           CP      $0F                 
1786: 20 0C           JR      NZ,$1794            
1788: 79              LD      A,C                 
1789: FE 0B           CP      $0B                 
178B: 38 07           JR      C,$1794             
178D: 20 03           JR      NZ,$1792            
178F: 3E 03           LD      A,$03               
1791: C9              RET                         

1792: 7A              LD      A,D                 
1793: C9              RET                         

1794: FE 0C           CP      $0C                 
1796: 30 A8           JR      NC,$1740            
1798: 79              LD      A,C                 
1799: C9              RET                         

179A: 21 8A 60        LD      HL,$608A            
179D: 34              INC     (HL)                
179E: C9              RET                         

179F: 79              LD      A,C                 
17A0: A7              AND     A                   
17A1: C8              RET     Z                   
17A2: FE 02           CP      $02                 
17A4: 38 11           JR      C,$17B7             
17A6: 28 0A           JR      Z,$17B2             
17A8: C6 0B           ADD     A,$0B               
17AA: 6F              LD      L,A                 
17AB: 26 60           LD      H,$60               
17AD: 73              LD      (HL),E              
17AE: CD 62 15        CALL    $1562               
17B1: C9              RET                         

17B2: 21 0D 60        LD      HL,$600D            
17B5: 73              LD      (HL),E              
17B6: C9              RET                         

17B7: 21 1A 60        LD      HL,$601A            
17BA: 73              LD      (HL),E              
17BB: 3E 0B           LD      A,$0B               
17BD: 93              SUB     E                   
17BE: 28 02           JR      Z,$17C2             
17C0: 3E FF           LD      A,$FF               
17C2: 3C              INC     A                   
17C3: 32 8C 60        LD      ($608C),A           
17C6: 32 1D 60        LD      ($601D),A           
17C9: 2E 0C           LD      L,$0C               
17CB: 18 E1           JR      $17AE               

17CD: 3A 8D 60        LD      A,($608D)           
17D0: 07              RLCA                        
17D1: 07              RLCA                        
17D2: 07              RLCA                        
17D3: 07              RLCA                        
17D4: C9              RET                         

17D5: 32 81 60        LD      ($6081),A           
17D8: C9              RET                         

17D9: C5              PUSH    BC                  
17DA: D5              PUSH    DE                  
17DB: E5              PUSH    HL                  
17DC: 11 90 60        LD      DE,$6090            
17DF: 21 91 60        LD      HL,$6091            
17E2: 01 2F 00        LD      BC,$002F            
17E5: ED B0           LDIR                        
17E7: E1              POP     HL                  
17E8: D1              POP     DE                  
17E9: C1              POP     BC                  
17EA: C9              RET                         

17EB: C5              PUSH    BC                  
17EC: D5              PUSH    DE                  
17ED: E5              PUSH    HL                  
17EE: 21 BE 60        LD      HL,$60BE            
17F1: 11 BF 60        LD      DE,$60BF            
17F4: 01 2F 00        LD      BC,$002F            
17F7: ED B8           LDDR                        
17F9: E1              POP     HL                  
17FA: D1              POP     DE                  
17FB: C1              POP     BC                  
17FC: C9              RET                         

17FD: 21 14 60        LD      HL,$6014            
1800: AF              XOR     A                   
1801: BE              CP      (HL)                
1802: 20 07           JR      NZ,$180B            
1804: 2D              DEC     L                   
1805: 3E 0D           LD      A,$0D               
1807: BD              CP      L                   
1808: C8              RET     Z                   
1809: 18 F5           JR      $1800               
180B: 36 00           LD      (HL),$00            
180D: C9              RET                         

180E: 21 91 60        LD      HL,$6091            
1811: 22 8E 60        LD      ($608E),HL          
1814: C9              RET                        
 
1815: AF              XOR     A                   
1816: 32 8C 60        LD      ($608C),A           
1819: C9              RET                         

181A: AF              XOR     A                   
181B: 32 8B 60        LD      ($608B),A           
181E: C9              RET                         

181F: 21 CE 64        LD      HL,$64CE            
1822: 06 38           LD      B,$38               
1824: 23              INC     HL                  
1825: 10 FD           DJNZ    $1824               
1827: 7E              LD      A,(HL)              
1828: A7              AND     A                   
1829: C8              RET     Z                   
182A: 3A 1A 60        LD      A,($601A)           
182D: FE 07           CP      $07                 
182F: D8              RET     C                   
1830: D5              PUSH    DE                  
1831: CD FC 0E        CALL    $0EFC               
1834: D1              POP     DE                  
1835: FE 16           CP      $16                 
1837: 38 04           JR      C,$183D             
1839: D6 0A           SUB     $0A                 
183B: 18 F8           JR      $1835               
183D: FE 0E           CP      $0E                 
183F: D8              RET     C                   
1840: FE 11           CP      $11                 
1842: D0              RET     NC                  
1843: 3A 07 65        LD      A,($6507)           
1846: A7              AND     A                   
1847: C0              RET     NZ                  
1848: 3A 7B 60        LD      A,($607B)           
184B: FE 02           CP      $02                 
184D: D0              RET     NC                  
184E: 3D              DEC     A                   
184F: ED 44           NEG                         
1851: 32 7B 60        LD      ($607B),A           
1854: C9              RET                         

1855: F5              PUSH    AF                  
1856: 3A 05 65        LD      A,($6505)           
1859: A7              AND     A                   
185A: 20 2D           JR      NZ,$1889            
185C: 3A 7E 62        LD      A,($627E)           
185F: A7              AND     A                   
1860: 20 27           JR      NZ,$1889            
1862: CD CC 16        CALL    $16CC               ; Get user inputs
1865: E6 01           AND     $01                 ; Bit 0 "1"?
1867: 20 F9           JR      NZ,$1862            ; No ... wait for a "1"
1869: 3A 33 64        LD      A,($6433)           
186C: A7              AND     A                   
186D: 28 15           JR      Z,$1884             
186F: D3 13           OUT     ($13),A             ; I/O OUT
1871: CD CC 16        CALL    $16CC               ; Get user inputs
1874: D3 0F           OUT     ($0F),A             ; I/O OUT
1876: E6 01           AND     $01                 ; The "1" key
1878: 3D              DEC     A                   ; 1 becomes 0, 0 becomes FF
1879: ED 44           NEG                         ; 0-A: 1 becomes 255, 0 becomes 1
187B: 21 ED 64        LD      HL,$64ED            
187E: 06 19           LD      B,$19               
1880: 23              INC     HL                  
1881: 10 FD           DJNZ    $1880               ; HL becomes 6506
1883: 77              LD      (HL),A              
1884: 3E 01           LD      A,$01               
1886: 32 05 65        LD      ($6505),A           
1889: F1              POP     AF                  
188A: C9              RET                         

188B: 3E 01           LD      A,$01               
188D: 32 8C 60        LD      ($608C),A           
1890: C9              RET                         

1891: 3E 01           LD      A,$01               
1893: 32 8B 60        LD      ($608B),A           
1896: 32 7B 60        LD      ($607B),A           
1899: C9              RET                         


189A: FF FF FF FF FF FF                 
18A0: FF FF FF FF FF FF FF FF FF FF FF FF FF FF FF FF
18B0: FF FF FF FF FF FF FF FF FF FF FF FF FF FF FF FF
18C0: FF FF FF FF FF FF FF FF FF FF FF FF FF FF FF FF
18D0: FF FF FF FF FF FF FF FF FF FF FF FF FF FF FF FF
18E0: FF FF FF FF FF FF FF FF FF FF FF FF FF FF FF FF
18F0: FF FF FF FF FF FF FF FF FF FF FF FF FF FF FF FF

    
1900: CD 38 17        CALL    $1738               
1903: 06 0F           LD      B,$0F               
1905: CD B8 1D        CALL    $1DB8               
1908: 0E 00           LD      C,$00               
190A: CD 38 00        CALL    $0038               
190D: F5              PUSH    AF                  
190E: 06 0A           LD      B,$0A               
1910: 20 02           JR      NZ,$1914            
1912: CB 38           SRL     B                   
1914: F1              POP     AF                  
1915: C5              PUSH    BC                  
1916: F5              PUSH    AF                  
1917: 16 19           LD      D,$19               
1919: 20 02           JR      NZ,$191D            
191B: CB 22           SLA     D                   
191D: CD 25 1E        CALL    $1E25               ; Long delay
1920: F1              POP     AF                  
1921: F5              PUSH    AF                  
1922: 0E 0A           LD      C,$0A               
1924: 20 02           JR      NZ,$1928            
1926: CB 21           SLA     C                   
1928: CD 50 1D        CALL    $1D50               

192B: CD 01 17        CALL    $1701               
192E: 20 04           JR      NZ,$1934            
1930: DB 22           IN      A,($22)             ; I/O IN
1932: 18 02           JR      $1936               
1934: DB 02           IN      A,($02)             ; I/O IN
1936: 2F              CPL                         
1937: A7              AND     A                   
1938: 28 07           JR      Z,$1941             
193A: 16 01           LD      D,$01               
193C: CD 25 1E        CALL    $1E25               ; Long delay (1)
193F: 18 EA           JR      $192B               

1941: F1              POP     AF                  
1942: C1              POP     BC                  
1943: F5              PUSH    AF                  
1944: 10 CE           DJNZ    $1914               
1946: F1              POP     AF                  
1947: CD 01 17        CALL    $1701               
194A: 28 09           JR      Z,$1955             
194C: AF              XOR     A                   
194D: 32 3B 64        LD      ($643B),A           
1950: 0E 00           LD      C,$00               
1952: CD 38 00        CALL    $0038               
1955: F7              RST     $30                 
1956: 06 03           LD      B,$03               
1958: CD B8 1D        CALL    $1DB8               
195B: CD E3 1D        CALL    $1DE3               
195E: 0E 08           LD      C,$08               
1960: CD 50 1D        CALL    $1D50               
1963: CD E3 1D        CALL    $1DE3               
1966: 06 01           LD      B,$01               
1968: CD B8 1D        CALL    $1DB8               
196B: CD E3 1D        CALL    $1DE3               
196E: 0E 0C           LD      C,$0C               
1970: CD 50 1D        CALL    $1D50               
1973: C9              RET                         

1974: 3A 21 64        LD      A,($6421)           
1977: A7              AND     A                   
1978: CA 00 00        JP      Z,$0000             
197B: FE 03           CP      $03                 
197D: DA 16 1A        JP      C,$1A16             
1980: 28 72           JR      Z,$19F4             
1982: 06 0B           LD      B,$0B               
1984: 21 C1 62        LD      HL,$62C1            
1987: 7B              LD      A,E                 
1988: FE 01           CP      $01                 
198A: 28 10           JR      Z,$199C             
198C: 21 01 60        LD      HL,$6001            
198F: FE 02           CP      $02                 
1991: 28 09           JR      Z,$199C             
1993: 21 91 60        LD      HL,$6091            
1996: FE 03           CP      $03                 
1998: 20 2E           JR      NZ,$19C8            
199A: 06 2F           LD      B,$2F               
199C: AF              XOR     A                   
199D: 32 21 64        LD      ($6421),A           
19A0: 32 87 60        LD      ($6087),A           
19A3: 3C              INC     A                   
19A4: 32 26 64        LD      ($6426),A           
19A7: CD C8 1D        CALL    $1DC8               
19AA: 7B              LD      A,E                 
19AB: FE 03           CP      $03                 
19AD: 7E              LD      A,(HL)              
19AE: 23              INC     HL                  
19AF: E5              PUSH    HL                  
19B0: 28 03           JR      Z,$19B5             
19B2: A7              AND     A                   
19B3: 18 02           JR      $19B7               
19B5: E6 0F           AND     $0F                 
19B7: CD 74 1C        CALL    $1C74               
19BA: CD C8 1D        CALL    $1DC8               
19BD: CD D2 1D        CALL    $1DD2               
19C0: E1              POP     HL                  
19C1: 10 E7           DJNZ    $19AA               
19C3: 0E 00           LD      C,$00               
19C5: CD 38 00        CALL    $0038               
19C8: CB 23           SLA     E                   
19CA: CB 23           SLA     E                   
19CC: CB 23           SLA     E                   
19CE: CB 23           SLA     E                   
19D0: 3A 23 64        LD      A,($6423)           
19D3: E6 0F           AND     $0F                 
19D5: B3              OR      E                   
19D6: 32 23 64        LD      ($6423),A           
19D9: 5F              LD      E,A                 
19DA: 21 21 64        LD      HL,$6421            
19DD: 35              DEC     (HL)                
19DE: 3E 01           LD      A,$01               
19E0: 32 28 64        LD      ($6428),A           
19E3: 7B              LD      A,E                 
19E4: CD 74 1C        CALL    $1C74               
19E7: CD 07 1C        CALL    $1C07               
19EA: 3A 23 64        LD      A,($6423)           
19ED: A7              AND     A                   
19EE: CD 74 1C        CALL    $1C74               
19F1: C3 79 1E        JP      $1E79               
19F4: 3A 23 64        LD      A,($6423)           
19F7: E6 F0           AND     $F0                 
19F9: 83              ADD     A,E                 
19FA: 32 23 64        LD      ($6423),A           
19FD: 21 21 64        LD      HL,$6421            
1A00: 35              DEC     (HL)                
1A01: CD 74 1C        CALL    $1C74               
1A04: CD 07 1C        CALL    $1C07               
1A07: 3E 01           LD      A,$01               
1A09: 32 28 64        LD      ($6428),A           
1A0C: 3A 22 64        LD      A,($6422)           
1A0F: A7              AND     A                   
1A10: CD 74 1C        CALL    $1C74               
1A13: C3 79 1E        JP      $1E79               
1A16: FE 01           CP      $01                 
1A18: 28 2C           JR      Z,$1A46             
1A1A: CB 23           SLA     E                   
1A1C: CB 23           SLA     E                   
1A1E: CB 23           SLA     E                   
1A20: CB 23           SLA     E                   
1A22: 3A 22 64        LD      A,($6422)           
1A25: E6 0F           AND     $0F                 
1A27: B3              OR      E                   
1A28: 32 22 64        LD      ($6422),A           
1A2B: 5F              LD      E,A                 
1A2C: 21 21 64        LD      HL,$6421            
1A2F: 35              DEC     (HL)                
1A30: 3E 01           LD      A,$01               
1A32: 32 28 64        LD      ($6428),A           
1A35: 7B              LD      A,E                 
1A36: CD 74 1C        CALL    $1C74               
1A39: CD 07 1C        CALL    $1C07               
1A3C: 3A 22 64        LD      A,($6422)           
1A3F: A7              AND     A                   
1A40: CD 74 1C        CALL    $1C74               
1A43: C3 79 1E        JP      $1E79               
1A46: AF              XOR     A                   
1A47: 32 87 60        LD      ($6087),A           
1A4A: 3A 22 64        LD      A,($6422)           
1A4D: E6 F0           AND     $F0                 
1A4F: 83              ADD     A,E                 
1A50: 32 22 64        LD      ($6422),A           
1A53: 21 21 64        LD      HL,$6421            
1A56: 35              DEC     (HL)                
1A57: CD 74 1C        CALL    $1C74               
1A5A: 06 04           LD      B,$04               
1A5C: CD C8 1D        CALL    $1DC8               
1A5F: 10 FB           DJNZ    $1A5C               
1A61: 2A 22 64        LD      HL,($6422)          
1A64: AF              XOR     A                   
1A65: 32 27 64        LD      ($6427),A           
1A68: 7D              LD      A,L                 
1A69: A7              AND     A                   
1A6A: E5              PUSH    HL                  
1A6B: CD 74 1C        CALL    $1C74               
1A6E: 16 C8           LD      D,$C8               
1A70: CD E9 1D        CALL    $1DE9               
1A73: 3E 01           LD      A,$01               
1A75: 32 27 64        LD      ($6427),A           
1A78: E1              POP     HL                  
1A79: E5              PUSH    HL                  
1A7A: 7E              LD      A,(HL)              
1A7B: A7              AND     A                   
1A7C: CD 74 1C        CALL    $1C74               
1A7F: 06 03           LD      B,$03               
1A81: CD C8 1D        CALL    $1DC8               
1A84: 10 FB           DJNZ    $1A81               
1A86: E1              POP     HL                  
1A87: 2B              DEC     HL                  
1A88: 18 DA           JR      $1A64               
1A8A: 0E 24           LD      C,$24               
1A8C: CD 49 1D        CALL    $1D49               
1A8F: CD D2 1D        CALL    $1DD2               
1A92: 3E 01           LD      A,$01               
1A94: 32 26 64        LD      ($6426),A           
1A97: 3A 2A 64        LD      A,($642A)           
1A9A: A7              AND     A                   
1A9B: CD 74 1C        CALL    $1C74               
1A9E: 0E 00           LD      C,$00               
1AA0: CD 38 00        CALL    $0038               
1AA3: 06 0A           LD      B,$0A               
1AA5: CD B8 1D        CALL    $1DB8               
1AA8: 0E 00           LD      C,$00               
1AAA: CD 38 00        CALL    $0038               
1AAD: CD 30 17        CALL    $1730               
1AB0: 26 03           LD      H,$03               
1AB2: 44              LD      B,H                 
1AB3: CD B8 1D        CALL    $1DB8               
1AB6: CD 45 1E        CALL    $1E45               
1AB9: CD 25 1D        CALL    $1D25               
1ABC: 44              LD      B,H                 
1ABD: CD B8 1D        CALL    $1DB8               
1AC0: 0E 00           LD      C,$00               
1AC2: CD 38 00        CALL    $0038               
1AC5: CD 38 17        CALL    $1738               
1AC8: 06 03           LD      B,$03               
1ACA: CD B8 1D        CALL    $1DB8               
1ACD: 06 FF           LD      B,$FF               
1ACF: 0C              INC     C                   
1AD0: CD 48 1E        CALL    $1E48               
1AD3: 06 03           LD      B,$03               
1AD5: CD B8 1D        CALL    $1DB8               
1AD8: 0E 00           LD      C,$00               
1ADA: CD 38 00        CALL    $0038               
1ADD: 0E 0E           LD      C,$0E               
1ADF: CD 49 1D        CALL    $1D49               
1AE2: 0E 09           LD      C,$09               
1AE4: CD 49 1D        CALL    $1D49               
1AE7: 06 01           LD      B,$01               
1AE9: CD B8 1D        CALL    $1DB8               
1AEC: CD E3 1D        CALL    $1DE3               
1AEF: 0E 0E           LD      C,$0E               
1AF1: CD 49 1D        CALL    $1D49               
1AF4: 0E 0A           LD      C,$0A               
1AF6: CD 49 1D        CALL    $1D49               
1AF9: CD D2 1D        CALL    $1DD2               
1AFC: 3A 7A 62        LD      A,($627A)           
1AFF: 5F              LD      E,A                 
1B00: CD 20 00        CALL    $0020               
1B03: 3E 01           LD      A,$01               
1B05: 32 26 64        LD      ($6426),A           
1B08: 2A 7C 62        LD      HL,($627C)          
1B0B: 22 81 60        LD      ($6081),HL          
1B0E: CD 08 00        CALL    $0008               
1B11: 7B              LD      A,E                 
1B12: D9              EXX                         
1B13: 21 93 62        LD      HL,$6293            
1B16: 5D              LD      E,L                 
1B17: FE 0F           CP      $0F                 
1B19: 28 03           JR      Z,$1B1E             
1B1B: 21 90 62        LD      HL,$6290            
1B1E: D9              EXX                         
1B1F: 7B              LD      A,E                 
1B20: D9              EXX                         
1B21: FE 0E           CP      $0E                 
1B23: 30 08           JR      NC,$1B2D            
1B25: 7B              LD      A,E                 
1B26: BD              CP      L                   
1B27: 28 20           JR      Z,$1B49             
1B29: 7E              LD      A,(HL)              
1B2A: 23              INC     HL                  
1B2B: 18 05           JR      $1B32               
1B2D: 7E              LD      A,(HL)              
1B2E: 23              INC     HL                  
1B2F: A7              AND     A                   
1B30: 28 17           JR      Z,$1B49             
1B32: FE 0A           CP      $0A                 
1B34: 28 04           JR      Z,$1B3A             
1B36: FE 0B           CP      $0B                 
1B38: 20 02           JR      NZ,$1B3C            
1B3A: D6 0A           SUB     $0A                 
1B3C: D9              EXX                         
1B3D: A7              AND     A                   
1B3E: CD 74 1C        CALL    $1C74               
1B41: 16 50           LD      D,$50               
1B43: CD E9 1D        CALL    $1DE9               
1B46: D9              EXX                         
1B47: 18 D5           JR      $1B1E               
1B49: D9              EXX                         
1B4A: 0E 00           LD      C,$00               
1B4C: CD 38 00        CALL    $0038               
1B4F: 3A 8E 62        LD      A,($628E)           
1B52: CD FA 1B        CALL    $1BFA               
1B55: 5F              LD      E,A                 
1B56: 3A 8F 62        LD      A,($628F)           
1B59: CD FA 1B        CALL    $1BFA               
1B5C: 83              ADD     A,E                 
1B5D: F5              PUSH    AF                  
1B5E: 3A 91 62        LD      A,($6291)           
1B61: 47              LD      B,A                 
1B62: 0E 08           LD      C,$08               
1B64: AF              XOR     A                   
1B65: 81              ADD     A,C                 
1B66: 10 FD           DJNZ    $1B65               
1B68: 47              LD      B,A                 
1B69: F1              POP     AF                  
1B6A: B8              CP      B                   
1B6B: 38 14           JR      C,$1B81             
1B6D: 3E 02           LD      A,$02               
1B6F: 32 3C 64        LD      ($643C),A           
1B72: CD 46 1C        CALL    $1C46               
1B75: CD C8 1D        CALL    $1DC8               
1B78: CD BB 1B        CALL    $1BBB               
1B7B: CD C8 1D        CALL    $1DC8               
1B7E: C3 00 00        JP      $0000               
1B81: AF              XOR     A                   
1B82: 3C              INC     A                   
1B83: 32 26 64        LD      ($6426),A           
1B86: 3A 6C 62        LD      A,($626C)           
1B89: CD 38 17        CALL    $1738               
1B8C: CD 74 1C        CALL    $1C74               
1B8F: CD C8 1D        CALL    $1DC8               
1B92: AF              XOR     A                   
1B93: 3A 6C 62        LD      A,($626C)           
1B96: CD 74 1C        CALL    $1C74               
1B99: CD 30 17        CALL    $1730               
1B9C: CD C8 1D        CALL    $1DC8               
1B9F: CD C8 1D        CALL    $1DC8               
1BA2: CD C8 1D        CALL    $1DC8               
1BA5: AF              XOR     A                   
1BA6: 3A 6B 62        LD      A,($626B)           
1BA9: CD 74 1C        CALL    $1C74               
1BAC: CD C8 1D        CALL    $1DC8               
1BAF: AF              XOR     A                   
1BB0: 3A 6B 62        LD      A,($626B)           
1BB3: CD 74 1C        CALL    $1C74               
1BB6: 0E 00           LD      C,$00               
1BB8: CD 38 00        CALL    $0038               
1BBB: 3A 8E 62        LD      A,($628E)           
1BBE: CD FA 1B        CALL    $1BFA               
1BC1: CD 74 1C        CALL    $1C74               
1BC4: CD C8 1D        CALL    $1DC8               
1BC7: CD D9 1D        CALL    $1DD9               
1BCA: CD E3 1D        CALL    $1DE3               
1BCD: CD E3 1D        CALL    $1DE3               
1BD0: 3A 8F 62        LD      A,($628F)           
1BD3: CD FA 1B        CALL    $1BFA               
1BD6: CD 74 1C        CALL    $1C74               
1BD9: 3A 3C 64        LD      A,($643C)           
1BDC: A7              AND     A                   
1BDD: C0              RET     NZ                  
1BDE: 0E 00           LD      C,$00               
1BE0: CD 38 00        CALL    $0038               
1BE3: 3E 01           LD      A,$01               
1BE5: 32 26 64        LD      ($6426),A           
1BE8: AF              XOR     A                   
1BE9: 3A 6C 62        LD      A,($626C)           
1BEC: CD 74 1C        CALL    $1C74               
1BEF: CD C8 1D        CALL    $1DC8               
1BF2: AF              XOR     A                   
1BF3: 3A 6C 62        LD      A,($626C)           
1BF6: 5F              LD      E,A                 
1BF7: CD 20 00        CALL    $0020               
1BFA: 21 26 64        LD      HL,$6426            
1BFD: 36 01           LD      (HL),$01            
1BFF: A7              AND     A                   
1C00: CB 7F           BIT     7,A                 
1C02: C8              RET     Z                   
1C03: 2F              CPL                         
1C04: 3C              INC     A                   
1C05: 37              SCF                         
1C06: C9              RET                         
1C07: CD D2 1D        CALL    $1DD2               
1C0A: 06 03           LD      B,$03               
1C0C: CD B8 1D        CALL    $1DB8               
1C0F: CD D9 1D        CALL    $1DD9               
1C12: C9              RET                         
1C13: 06 05           LD      B,$05               
1C15: CD B8 1D        CALL    $1DB8               
1C18: 3A 31 64        LD      A,($6431)           
1C1B: A7              AND     A                   
1C1C: C0              RET     NZ                  
1C1D: 0E 00           LD      C,$00               
1C1F: CD 38 00        CALL    $0038               
1C22: CD 38 17        CALL    $1738               
1C25: 0E 06           LD      C,$06               
1C27: CD 49 1D        CALL    $1D49               
1C2A: 06 03           LD      B,$03               
1C2C: CD B8 1D        CALL    $1DB8               
1C2F: CD 45 1E        CALL    $1E45               
1C32: 0E 06           LD      C,$06               
1C34: CD 49 1D        CALL    $1D49               
1C37: 0E 00           LD      C,$00               
1C39: CD 38 00        CALL    $0038               
1C3C: 06 03           LD      B,$03               
1C3E: C5              PUSH    BC                  
1C3F: CD 56 19        CALL    $1956               
1C42: C1              POP     BC                  
1C43: 10 F9           DJNZ    $1C3E               
1C45: C9              RET                         
1C46: D5              PUSH    DE                  
1C47: 06 07           LD      B,$07               
1C49: C5              PUSH    BC                  
1C4A: 3E 01           LD      A,$01               
1C4C: A7              AND     A                   
1C4D: CD 74 1C        CALL    $1C74               
1C50: CD 45 1E        CALL    $1E45               
1C53: 3E 03           LD      A,$03               
1C55: A7              AND     A                   
1C56: CD 74 1C        CALL    $1C74               
1C59: CD 45 1E        CALL    $1E45               
1C5C: C1              POP     BC                  
1C5D: 10 EA           DJNZ    $1C49               
1C5F: D1              POP     DE                  
1C60: C9              RET                         
1C61: 06 04           LD      B,$04               
1C63: C5              PUSH    BC                  
1C64: 06 01           LD      B,$01               
1C66: CD B8 1D        CALL    $1DB8               
1C69: CD D9 1D        CALL    $1DD9               
1C6C: C1              POP     BC                  
1C6D: 10 F4           DJNZ    $1C63               
1C6F: 1E 00           LD      E,$00               
1C71: CD 20 00        CALL    $0020               
1C74: 21 81 60        LD      HL,$6081            
1C77: 77              LD      (HL),A              
1C78: 2C              INC     L                   
1C79: 36 00           LD      (HL),$00            
1C7B: 21 81 60        LD      HL,$6081            
1C7E: 30 05           JR      NC,$1C85            
1C80: 0E 13           LD      C,$13               
1C82: CD 49 1D        CALL    $1D49               
1C85: C5              PUSH    BC                  
1C86: D5              PUSH    DE                  
1C87: E5              PUSH    HL                  
1C88: 5E              LD      E,(HL)              
1C89: 3A 26 64        LD      A,($6426)           
1C8C: A7              AND     A                   
1C8D: 28 03           JR      Z,$1C92             
1C8F: 7E              LD      A,(HL)              
1C90: 18 26           JR      $1CB8               
1C92: 3A 27 64        LD      A,($6427)           
1C95: A7              AND     A                   
1C96: 28 08           JR      Z,$1CA0             
1C98: 7E              LD      A,(HL)              
1C99: 21 29 64        LD      HL,$6429            
1C9C: ED 6F           RLD                         
1C9E: 18 09           JR      $1CA9               
1CA0: 3A 28 64        LD      A,($6428)           
1CA3: A7              AND     A                   
1CA4: 20 03           JR      NZ,$1CA9            
1CA6: 7E              LD      A,(HL)              
1CA7: 18 0D           JR      $1CB6               
1CA9: AF              XOR     A                   
1CAA: 32 28 64        LD      ($6428),A           
1CAD: 7B              LD      A,E                 
1CAE: CB 2F           SRA     A                   
1CB0: CB 2F           SRA     A                   
1CB2: CB 2F           SRA     A                   
1CB4: CB 2F           SRA     A                   
1CB6: E6 0F           AND     $0F                 
1CB8: 32 81 60        LD      ($6081),A           
1CBB: 21 D0 60        LD      HL,$60D0            
1CBE: 1E 00           LD      E,$00               
1CC0: D6 64           SUB     $64                 
1CC2: 38 03           JR      C,$1CC7             
1CC4: 1C              INC     E                   
1CC5: 18 F9           JR      $1CC0               
1CC7: F5              PUSH    AF                  
1CC8: 3A 82 60        LD      A,($6082)           
1CCB: A7              AND     A                   
1CCC: 28 07           JR      Z,$1CD5             
1CCE: AF              XOR     A                   
1CCF: 32 82 60        LD      ($6082),A           
1CD2: F1              POP     AF                  
1CD3: 18 EF           JR      $1CC4               
1CD5: F1              POP     AF                  
1CD6: 73              LD      (HL),E              
1CD7: 2C              INC     L                   
1CD8: C6 64           ADD     A,$64               
1CDA: 1E 00           LD      E,$00               
1CDC: D6 0A           SUB     $0A                 
1CDE: 38 03           JR      C,$1CE3             
1CE0: 1C              INC     E                   
1CE1: 18 F9           JR      $1CDC               
1CE3: 73              LD      (HL),E              
1CE4: 2C              INC     L                   
1CE5: C6 0A           ADD     A,$0A               
1CE7: 77              LD      (HL),A              
1CE8: 3A D0 60        LD      A,($60D0)           
1CEB: A7              AND     A                   
1CEC: 28 08           JR      Z,$1CF6             
1CEE: CD 25 1D        CALL    $1D25               
1CF1: CD D9 1D        CALL    $1DD9               
1CF4: 18 06           JR      $1CFC               
1CF6: 3A D1 60        LD      A,($60D1)           
1CF9: A7              AND     A                   
1CFA: 28 09           JR      Z,$1D05             
1CFC: 3A D1 60        LD      A,($60D1)           
1CFF: CD 25 1D        CALL    $1D25               
1D02: CD D9 1D        CALL    $1DD9               
1D05: 3A D2 60        LD      A,($60D2)           
1D08: CD 25 1D        CALL    $1D25               
1D0B: 3A 27 64        LD      A,($6427)           
1D0E: A7              AND     A                   
1D0F: 28 10           JR      Z,$1D21             
1D11: AF              XOR     A                   
1D12: 32 27 64        LD      ($6427),A           
1D15: 21 29 64        LD      HL,$6429            
1D18: ED 67           RRD                         
1D1A: 5F              LD      E,A                 
1D1B: CD C8 1D        CALL    $1DC8               
1D1E: 7B              LD      A,E                 
1D1F: 18 95           JR      $1CB6               
1D21: E1              POP     HL                  
1D22: D1              POP     DE                  
1D23: C1              POP     BC                  
1D24: C9              RET                         
1D25: A7              AND     A                   
1D26: 20 06           JR      NZ,$1D2E            
1D28: 0E 0E           LD      C,$0E               
1D2A: CD 49 1D        CALL    $1D49               
1D2D: C9              RET                         
1D2E: D6 03           SUB     $03                 
1D30: 57              LD      D,A                 
1D31: 38 08           JR      C,$1D3B             
1D33: 0E 04           LD      C,$04               
1D35: CD 49 1D        CALL    $1D49               
1D38: 7A              LD      A,D                 
1D39: 18 F3           JR      $1D2E               
1D3B: C6 03           ADD     A,$03               
1D3D: C8              RET     Z                   
1D3E: 3D              DEC     A                   
1D3F: 57              LD      D,A                 
1D40: 0E 01           LD      C,$01               
1D42: CD 49 1D        CALL    $1D49               
1D45: 7A              LD      A,D                 
1D46: A7              AND     A                   
1D47: 18 F4           JR      $1D3D               
1D49: CD 50 1D        CALL    $1D50               
1D4C: CD 45 1E        CALL    $1E45               
1D4F: C9              RET                         

1D50: C5              PUSH    BC                  
1D51: 3A 33 64        LD      A,($6433)           
1D54: A7              AND     A                   
1D55: 28 23           JR      Z,$1D7A             
1D57: 3A 0C 60        LD      A,($600C)           
1D5A: CB 6F           BIT     5,A                 
1D5C: 20 04           JR      NZ,$1D62            
1D5E: D3 0C           OUT     ($0C),A             ; I/O OUT
1D60: 18 02           JR      $1D64               
;
1D62: D3 0E           OUT     ($0E),A             ; I/O OUT
1D64: 3A 3B 64        LD      A,($643B)           
1D67: A7              AND     A                   
1D68: 20 07           JR      NZ,$1D71            
1D6A: 06 0C           LD      B,$0C               
1D6C: CD 48 1E        CALL    $1E48               
1D6F: 18 05           JR      $1D76               
1D71: 16 02           LD      D,$02               
1D73: CD 25 1E        CALL    $1E25               ; Long delay (2)
1D76: D3 0F           OUT     ($0F),A             ; I/O OUT
1D78: 18 26           JR      $1DA0               
1D7A: 3A 0C 60        LD      A,($600C)           
1D7D: CB 6F           BIT     5,A                 
1D7F: 20 05           JR      NZ,$1D86            
1D81: AF              XOR     A                   
1D82: D3 22           OUT     ($22),A             ; I/O OUT
1D84: 18 04           JR      $1D8A               
1D86: 3E 06           LD      A,$06               ; I/O OUT
1D88: D3 22           OUT     ($22),A             
1D8A: 3A 3B 64        LD      A,($643B)           
1D8D: A7              AND     A                   
1D8E: 20 07           JR      NZ,$1D97            
1D90: 06 0C           LD      B,$0C               
1D92: CD 48 1E        CALL    $1E48               
1D95: 18 05           JR      $1D9C               
1D97: 16 02           LD      D,$02               
1D99: CD 25 1E        CALL    $1E25               ; Long delay (2)
1D9C: 3E FF           LD      A,$FF               
1D9E: D3 22           OUT     ($22),A             ; I/O OUT
1DA0: 3A 3B 64        LD      A,($643B)           
1DA3: A7              AND     A                   
1DA4: 20 07           JR      NZ,$1DAD            
1DA6: 06 06           LD      B,$06               
1DA8: CD 48 1E        CALL    $1E48               
1DAB: 18 05           JR      $1DB2               
1DAD: 16 01           LD      D,$01               
1DAF: CD 25 1E        CALL    $1E25               ; Long delay (1)
1DB2: C1              POP     BC                  
1DB3: 0D              DEC     C                   
1DB4: C2 50 1D        JP      NZ,$1D50            
1DB7: C9              RET                         

1DB8: 48              LD      C,B                 
1DB9: C5              PUSH    BC                  
1DBA: 06 20           LD      B,$20               
1DBC: CD 48 1E        CALL    $1E48               
1DBF: 0C              INC     C                   
1DC0: CD 50 1D        CALL    $1D50               
1DC3: C1              POP     BC                  
1DC4: 10 F3           DJNZ    $1DB9               
1DC6: 48              LD      C,B                 
1DC7: C9              RET                         

1DC8: CD D2 1D        CALL    $1DD2               
1DCB: CD D9 1D        CALL    $1DD9               
1DCE: CD E3 1D        CALL    $1DE3               
1DD1: C9              RET                         

1DD2: CD D9 1D        CALL    $1DD9               
1DD5: CD D9 1D        CALL    $1DD9               
1DD8: C9              RET                         

1DD9: CD E3 1D        CALL    $1DE3               
1DDC: CD E3 1D        CALL    $1DE3               
1DDF: CD E3 1D        CALL    $1DE3               
1DE2: C9              RET                         

1DE3: 16 0A           LD      D,$0A               
1DE5: CD E9 1D        CALL    $1DE9               
1DE8: C9              RET                         

1DE9: C5              PUSH    BC                  
1DEA: D5              PUSH    DE                  
1DEB: E5              PUSH    HL                  
1DEC: 0E 01           LD      C,$01               
1DEE: 06 DF           LD      B,$DF               
1DF0: 10 FE           DJNZ    $1DF0               
1DF2: 10 FE           DJNZ    $1DF2               
1DF4: 10 FE           DJNZ    $1DF4               
1DF6: 10 FE           DJNZ    $1DF6               
1DF8: 10 FE           DJNZ    $1DF8               
1DFA: 21 0C 60        LD      HL,$600C            
1DFD: CB 6E           BIT     5,(HL)              
1DFF: 20 0E           JR      NZ,$1E0F            
1E01: 3A FE 1F        LD      A,($1FFE)           
1E04: A7              AND     A                   
1E05: 20 08           JR      NZ,$1E0F            
1E07: 57              LD      D,A                 
1E08: 06 9A           LD      B,$9A               
1E0A: 10 FE           DJNZ    $1E0A               
1E0C: 15              DEC     D                   
1E0D: 20 F9           JR      NZ,$1E08            
1E0F: 3A 33 64        LD      A,($6433)           
1E12: A7              AND     A                   
1E13: 28 06           JR      Z,$1E1B             
1E15: 06 80           LD      B,$80               
1E17: 10 FE           DJNZ    $1E17               
1E19: 10 FE           DJNZ    $1E19               
1E1B: CD 38 00        CALL    $0038               
1E1E: E1              POP     HL                  
1E1F: D1              POP     DE                  
1E20: C1              POP     BC                  
1E21: 15              DEC     D                   
1E22: 20 C5           JR      NZ,$1DE9            
1E24: C9              RET                         

;#LongDelay
; This routine is a massive delay controlled by D. The total passes through
; a DJNZ are D * (256*7 + 128) if running in ROM or D * (256*6) if RAM.
; Each DJNZ is 13 cycles if jump is taken or 8 if not taken.
1E25: C5              PUSH    BC                  ; Hold B and C
1E26: 06 00           LD      B,$00               ; Start with 0
1E28: 10 FE           DJNZ    $1E28               ; Loop of 256
1E2A: 10 FE           DJNZ    $1E2A               ; Loop of 256
1E2C: 10 FE           DJNZ    $1E2C               ; Loop of 256
1E2E: 10 FE           DJNZ    $1E2E               ; Loop of 256
1E30: 10 FE           DJNZ    $1E30               ; Loop of 256
1E32: 10 FE           DJNZ    $1E32               ; Loop of 256
1E34: 3A 33 64        LD      A,($6433)           ; Are we running ...
1E37: A7              AND     A                   ; .. in RAM and ROM
1E38: 28 06           JR      Z,$1E40             ; RAM ... skip the next delay
1E3A: 06 80           LD      B,$80               ; Loop of 128
1E3C: 10 FE           DJNZ    $1E3C               ; Loop of 256
1E3E: 10 FE           DJNZ    $1E3E               ; Loop of 256
1E40: C1              POP     BC                  ; Restore BC
1E41: 15              DEC     D                   ; Loop count
1E42: 20 E1           JR      NZ,$1E25            ; Keep going till all done
1E44: C9              RET                         ; Out

1E45: 0C              INC     C                   
1E46: 06 78           LD      B,$78               
;
1E48: D5              PUSH    DE                  
1E49: C5              PUSH    BC                  
1E4A: E5              PUSH    HL                  
1E4B: 0E 01           LD      C,$01               
1E4D: CD 38 00        CALL    $0038               
1E50: 21 0C 60        LD      HL,$600C            
1E53: CB 6E           BIT     5,(HL)              
1E55: 20 0E           JR      NZ,$1E65            
1E57: 3A FE 1F        LD      A,($1FFE)           
1E5A: A7              AND     A                   
1E5B: 28 08           JR      Z,$1E65             
1E5D: 57              LD      D,A                 
1E5E: 06 21           LD      B,$21               
1E60: 10 FE           DJNZ    $1E60               
1E62: 15              DEC     D                   
1E63: 20 F9           JR      NZ,$1E5E            
1E65: 3A 33 64        LD      A,($6433)           
1E68: A7              AND     A                   
1E69: 3E 00           LD      A,$00               
1E6B: 28 04           JR      Z,$1E71             
1E6D: 06 52           LD      B,$52               
1E6F: 10 FE           DJNZ    $1E6F               
1E71: E1              POP     HL                  
1E72: C1              POP     BC                  
1E73: D1              POP     DE                  
1E74: 10 D2           DJNZ    $1E48               
1E76: 0E 00           LD      C,$00               
1E78: C9              RET                         

1E79: 06 04           LD      B,$04               
1E7B: CD C8 1D        CALL    $1DC8               
1E7E: 10 FB           DJNZ    $1E7B               
1E80: 1E 00           LD      E,$00               
1E82: C3 99 00        JP      $0099               

1E85: FF FF FF FF FF FF FF FF FF FF FF                
1E90: FF FF FF FF FF FF FF FF FF FF FF FF FF FF FF FF            
1EA0: FF FF FF FF FF FF FF FF FF FF FF FF FF FF FF FF    
1EB0: FF FF FF FF FF FF FF FF FF FF FF FF FF FF FF FF    
1EC0: FF FF FF FF FF FF FF FF FF FF FF FF FF FF FF FF    
1ED0: FF FF FF FF FF FF FF FF FF FF FF FF FF FF FF FF    
1EE0: FF FF FF FF FF FF FF FF FF FF FF FF FF FF FF FF    
1EF0: FF FF FF FF FF FF FF FF FF FF FF FF FF FF FF FF    
1F00: FF FF FF FF FF FF FF FF FF FF FF FF FF FF FF FF    
1F10: FF FF FF FF FF FF FF FF FF FF FF FF FF FF FF FF
1F20: FF FF FF FF FF FF FF FF FF FF FF FF FF FF FF FF
1F30: FF FF FF FF FF FF FF FF FF FF FF FF FF FF FF FF
1F40: FF FF FF FF FF FF FF FF FF FF FF FF FF FF FF FF
1F50: FF FF FF FF FF FF FF FF FF FF FF FF FF FF FF FF
1F60: FF FF FF FF FF FF FF FF FF FF FF FF FF FF FF FF
1F70: FF FF FF FF FF FF FF FF FF FF FF FF FF FF FF FF
1F80: FF FF FF FF FF FF FF FF FF FF FF FF FF FF FF FF
1F90: FF FF FF FF FF FF FF FF FF FF FF FF FF FF FF FF
1FA0: FF FF FF FF FF FF FF FF FF FF FF FF FF FF FF FF
1FB0: FF FF FF FF FF FF FF FF FF FF FF FF FF FF FF FF
1FC0: FF FF FF FF FF FF FF FF FF FF FF FF FF FF FF FF
1FD0: FF FF FF FF FF FF FF FF FF FF FF FF FF FF FF FF
1FE0: FF FF FF FF FF FF FF FF FF FF FF FF FF FF FF FF
1FF0: FF FF FF FF FF FF FF FF FF FF FF FF FF FF 04 E7
              
